SF:/path/to/ecoPrimals/phase2/loamSpine/bin/loamspine-service/main.rs
FN:113,_RNCNCNvCsl9PbXwrLDqV_17loamspine_service4main00B5_
FN:148,_RNCNCNvCsl9PbXwrLDqV_17loamspine_service4main0s0_0B5_
FN:139,_RNCNCNvCsl9PbXwrLDqV_17loamspine_service4main0s_0B5_
FN:108,_RNCNvCsl9PbXwrLDqV_17loamspine_service4main0B3_
FN:52,_RNCNvMCsl9PbXwrLDqV_17loamspine_serviceNtB4_4Args5parse0B4_
FN:57,_RNCNvMCsl9PbXwrLDqV_17loamspine_serviceNtB4_4Args5parses_0B4_
FN:108,_RNvCsl9PbXwrLDqV_17loamspine_service4main
FN:49,_RNvMCsl9PbXwrLDqV_17loamspine_serviceNtB2_4Args5parse
FNDA:0,_RNCNCNvCsl9PbXwrLDqV_17loamspine_service4main00B5_
FNDA:0,_RNCNCNvCsl9PbXwrLDqV_17loamspine_service4main0s0_0B5_
FNDA:0,_RNCNCNvCsl9PbXwrLDqV_17loamspine_service4main0s_0B5_
FNDA:0,_RNCNvCsl9PbXwrLDqV_17loamspine_service4main0B3_
FNDA:0,_RNCNvMCsl9PbXwrLDqV_17loamspine_serviceNtB4_4Args5parse0B4_
FNDA:0,_RNCNvMCsl9PbXwrLDqV_17loamspine_serviceNtB4_4Args5parses_0B4_
FNDA:0,_RNvCsl9PbXwrLDqV_17loamspine_service4main
FNDA:0,_RNvMCsl9PbXwrLDqV_17loamspine_serviceNtB2_4Args5parse
FNF:8
FNH:0
DA:49,0
DA:50,0
DA:51,0
DA:52,0
DA:53,0
DA:54,0
DA:55,0
DA:56,0
DA:57,0
DA:58,0
DA:59,0
DA:60,0
DA:61,0
DA:62,0
DA:63,0
DA:64,0
DA:65,0
DA:66,0
DA:67,0
DA:69,0
DA:70,0
DA:71,0
DA:72,0
DA:74,0
DA:75,0
DA:76,0
DA:77,0
DA:78,0
DA:79,0
DA:80,0
DA:81,0
DA:82,0
DA:83,0
DA:84,0
DA:85,0
DA:86,0
DA:87,0
DA:88,0
DA:89,0
DA:90,0
DA:93,0
DA:94,0
DA:95,0
DA:100,0
DA:101,0
DA:102,0
DA:103,0
DA:104,0
DA:108,0
DA:109,0
DA:110,0
DA:111,0
DA:112,0
DA:113,0
DA:114,0
DA:115,0
DA:116,0
DA:117,0
DA:118,0
DA:119,0
DA:120,0
DA:121,0
DA:122,0
DA:123,0
DA:124,0
DA:125,0
DA:126,0
DA:127,0
DA:128,0
DA:129,0
DA:130,0
DA:131,0
DA:132,0
DA:133,0
DA:134,0
DA:135,0
DA:136,0
DA:137,0
DA:138,0
DA:139,0
DA:140,0
DA:141,0
DA:142,0
DA:143,0
DA:144,0
DA:145,0
DA:146,0
DA:147,0
DA:148,0
DA:149,0
DA:150,0
DA:151,0
DA:152,0
DA:153,0
DA:154,0
DA:155,0
DA:156,0
DA:157,0
DA:158,0
DA:159,0
DA:160,0
DA:161,0
DA:162,0
DA:163,0
DA:164,0
DA:165,0
DA:166,0
DA:167,0
DA:168,0
DA:169,0
DA:170,0
DA:171,0
DA:172,0
DA:173,0
DA:174,0
DA:175,0
DA:176,0
BRF:0
BRH:0
LF:176
LH:0
end_of_record
SF:/path/to/ecoPrimals/phase2/loamSpine/crates/loam-spine-api/src/error.rs
FN:56,_RNvXNtCs4SaE2cvVVUV_14loam_spine_api5errorNtB2_8ApiErrorINtNtCs9sjCchOt1K7_4core7convert4FromNtNtCskrSqHInbZEk_15loam_spine_core5error14LoamSpineErrorE4from
FN:56,_RNvXNtCs4S1xE8DPCBn_14loam_spine_api5errorNtB2_8ApiErrorINtNtCs9sjCchOt1K7_4core7convert4FromNtNtCskrSqHInbZEk_15loam_spine_core5error14LoamSpineErrorE4from
FN:100,_RNvNtNtCs4S1xE8DPCBn_14loam_spine_api5error5testss_17api_error_display
FN:137,_RNvNtNtCs4S1xE8DPCBn_14loam_spine_api5error5testss_20from_loamspine_error
FN:223,_RNvNtNtCs4S1xE8DPCBn_14loam_spine_api5error5testss_23api_error_serialization
FNDA:1,_RNvXNtCs4SaE2cvVVUV_14loam_spine_api5errorNtB2_8ApiErrorINtNtCs9sjCchOt1K7_4core7convert4FromNtNtCskrSqHInbZEk_15loam_spine_core5error14LoamSpineErrorE4from
FNDA:17,_RNvXNtCs4S1xE8DPCBn_14loam_spine_api5errorNtB2_8ApiErrorINtNtCs9sjCchOt1K7_4core7convert4FromNtNtCskrSqHInbZEk_15loam_spine_core5error14LoamSpineErrorE4from
FNDA:1,_RNvNtNtCs4S1xE8DPCBn_14loam_spine_api5error5testss_17api_error_display
FNDA:1,_RNvNtNtCs4S1xE8DPCBn_14loam_spine_api5error5testss_20from_loamspine_error
FNDA:1,_RNvNtNtCs4S1xE8DPCBn_14loam_spine_api5error5testss_23api_error_serialization
FNF:4
FNH:4
DA:56,18
DA:58,18
DA:59,1
DA:60,2
DA:61,2
DA:63,1
DA:64,2
DA:65,1
DA:67,1
DA:69,1
DA:70,1
DA:72,1
DA:73,1
DA:76,1
DA:77,1
DA:78,1
DA:79,4
DA:81,1
DA:82,1
DA:83,1
DA:84,3
DA:85,1
DA:87,18
DA:100,1
DA:101,1
DA:102,1
DA:104,1
DA:105,1
DA:107,1
DA:108,1
DA:110,1
DA:111,1
DA:113,1
DA:114,1
DA:116,1
DA:117,1
DA:119,1
DA:120,1
DA:122,1
DA:123,1
DA:125,1
DA:126,1
DA:128,1
DA:129,1
DA:131,1
DA:132,1
DA:133,1
DA:137,1
DA:138,1
DA:139,1
DA:140,1
DA:141,1
DA:144,1
DA:145,1
DA:146,1
DA:149,1
DA:150,1
DA:151,1
DA:154,1
DA:155,1
DA:156,1
DA:159,1
DA:160,1
DA:161,1
DA:164,1
DA:165,1
DA:166,1
DA:169,1
DA:170,1
DA:171,1
DA:174,1
DA:175,1
DA:176,1
DA:177,1
DA:178,1
DA:179,1
DA:182,1
DA:183,1
DA:184,1
DA:187,1
DA:188,1
DA:189,1
DA:192,1
DA:193,1
DA:194,1
DA:197,1
DA:198,1
DA:199,1
DA:202,1
DA:203,1
DA:204,1
DA:207,1
DA:208,1
DA:209,1
DA:212,1
DA:213,1
DA:214,1
DA:217,1
DA:218,1
DA:219,1
DA:220,1
DA:223,1
DA:224,1
DA:225,1
DA:226,1
DA:227,1
DA:228,1
BRF:0
BRH:0
LF:107
LH:107
end_of_record
SF:/path/to/ecoPrimals/phase2/loamSpine/crates/loam-spine-api/src/health.rs
FN:185,_RNCNvMNtCs4SaE2cvVVUV_14loam_spine_api6healthNtB4_13HealthChecker12check_health0B6_
FN:238,_RNCNvMNtCs4SaE2cvVVUV_14loam_spine_api6healthNtB4_13HealthChecker15check_readiness0B6_
FN:328,_RNvNtNtCs4S1xE8DPCBn_14loam_spine_api6health5testss_23health_checker_creation
FN:367,_RNvNtNtCs4S1xE8DPCBn_14loam_spine_api6health5testss_27health_status_tracks_uptime
FN:335,_RNvNtNtCs4S1xE8DPCBn_14loam_spine_api6health5testss_27liveness_probe_always_alive
FN:393,_RNvNtNtCs4S1xE8DPCBn_14loam_spine_api6health5testss_28service_status_serialization
FN:350,_RNvNtNtCs4S1xE8DPCBn_14loam_spine_api6health5testss_30health_status_includes_version
FN:357,_RNvNtNtCs4S1xE8DPCBn_14loam_spine_api6health5testss_35health_status_includes_capabilities
FN:342,_RNvNtNtCs4S1xE8DPCBn_14loam_spine_api6health5testss_42readiness_probe_ready_when_storage_healthy
FN:185,_RNCNvMNtCs4S1xE8DPCBn_14loam_spine_api6healthNtB4_13HealthChecker12check_health0B6_
FN:238,_RNCNvMNtCs4S1xE8DPCBn_14loam_spine_api6healthNtB4_13HealthChecker15check_readiness0B6_
FN:185,_RNvMNtCs4S1xE8DPCBn_14loam_spine_api6healthNtB2_13HealthChecker12check_health
FN:259,_RNvMNtCs4S1xE8DPCBn_14loam_spine_api6healthNtB2_13HealthChecker13check_storage
FN:227,_RNvMNtCs4S1xE8DPCBn_14loam_spine_api6healthNtB2_13HealthChecker14check_liveness
FN:275,_RNvMNtCs4S1xE8DPCBn_14loam_spine_api6healthNtB2_13HealthChecker15check_discovery
FN:238,_RNvMNtCs4S1xE8DPCBn_14loam_spine_api6healthNtB2_13HealthChecker15check_readiness
FN:122,_RNvMNtCs4S1xE8DPCBn_14loam_spine_api6healthNtB2_13HealthChecker3new
FN:168,_RNvMNtCs4S1xE8DPCBn_14loam_spine_api6healthNtB2_13HealthChecker11with_checks
FN:146,_RNvMNtCs4S1xE8DPCBn_14loam_spine_api6healthNtB2_13HealthChecker18with_storage_check
FN:284,_RNvXs_NtCs4S1xE8DPCBn_14loam_spine_api6healthNtB4_13HealthCheckerNtNtCs9sjCchOt1K7_4core7default7Default7default
FN:328,_RNCNvNtNtCs4S1xE8DPCBn_14loam_spine_api6health5testss_23health_checker_creation0B7_
FN:367,_RNCNvNtNtCs4S1xE8DPCBn_14loam_spine_api6health5testss_27health_status_tracks_uptime0B7_
FN:335,_RNCNvNtNtCs4S1xE8DPCBn_14loam_spine_api6health5testss_27liveness_probe_always_alive0B7_
FN:350,_RNCNvNtNtCs4S1xE8DPCBn_14loam_spine_api6health5testss_30health_status_includes_version0B7_
FN:357,_RNCNvNtNtCs4S1xE8DPCBn_14loam_spine_api6health5testss_35health_status_includes_capabilities0B7_
FN:342,_RNCNvNtNtCs4S1xE8DPCBn_14loam_spine_api6health5testss_42readiness_probe_ready_when_storage_healthy0B7_
FNDA:0,_RNCNvMNtCs4SaE2cvVVUV_14loam_spine_api6healthNtB4_13HealthChecker12check_health0B6_
FNDA:0,_RNCNvMNtCs4SaE2cvVVUV_14loam_spine_api6healthNtB4_13HealthChecker15check_readiness0B6_
FNDA:1,_RNvNtNtCs4S1xE8DPCBn_14loam_spine_api6health5testss_23health_checker_creation
FNDA:1,_RNvNtNtCs4S1xE8DPCBn_14loam_spine_api6health5testss_27health_status_tracks_uptime
FNDA:1,_RNvNtNtCs4S1xE8DPCBn_14loam_spine_api6health5testss_27liveness_probe_always_alive
FNDA:1,_RNvNtNtCs4S1xE8DPCBn_14loam_spine_api6health5testss_28service_status_serialization
FNDA:1,_RNvNtNtCs4S1xE8DPCBn_14loam_spine_api6health5testss_30health_status_includes_version
FNDA:1,_RNvNtNtCs4S1xE8DPCBn_14loam_spine_api6health5testss_35health_status_includes_capabilities
FNDA:1,_RNvNtNtCs4S1xE8DPCBn_14loam_spine_api6health5testss_42readiness_probe_ready_when_storage_healthy
FNDA:5,_RNCNvMNtCs4S1xE8DPCBn_14loam_spine_api6healthNtB4_13HealthChecker12check_health0B6_
FNDA:1,_RNCNvMNtCs4S1xE8DPCBn_14loam_spine_api6healthNtB4_13HealthChecker15check_readiness0B6_
FNDA:5,_RNvMNtCs4S1xE8DPCBn_14loam_spine_api6healthNtB2_13HealthChecker12check_health
FNDA:6,_RNvMNtCs4S1xE8DPCBn_14loam_spine_api6healthNtB2_13HealthChecker13check_storage
FNDA:1,_RNvMNtCs4S1xE8DPCBn_14loam_spine_api6healthNtB2_13HealthChecker14check_liveness
FNDA:5,_RNvMNtCs4S1xE8DPCBn_14loam_spine_api6healthNtB2_13HealthChecker15check_discovery
FNDA:1,_RNvMNtCs4S1xE8DPCBn_14loam_spine_api6healthNtB2_13HealthChecker15check_readiness
FNDA:6,_RNvMNtCs4S1xE8DPCBn_14loam_spine_api6healthNtB2_13HealthChecker3new
FNDA:0,_RNvMNtCs4S1xE8DPCBn_14loam_spine_api6healthNtB2_13HealthChecker11with_checks
FNDA:0,_RNvMNtCs4S1xE8DPCBn_14loam_spine_api6healthNtB2_13HealthChecker18with_storage_check
FNDA:0,_RNvXs_NtCs4S1xE8DPCBn_14loam_spine_api6healthNtB4_13HealthCheckerNtNtCs9sjCchOt1K7_4core7default7Default7default
FNDA:1,_RNCNvNtNtCs4S1xE8DPCBn_14loam_spine_api6health5testss_23health_checker_creation0B7_
FNDA:1,_RNCNvNtNtCs4S1xE8DPCBn_14loam_spine_api6health5testss_27health_status_tracks_uptime0B7_
FNDA:1,_RNCNvNtNtCs4S1xE8DPCBn_14loam_spine_api6health5testss_27liveness_probe_always_alive0B7_
FNDA:1,_RNCNvNtNtCs4S1xE8DPCBn_14loam_spine_api6health5testss_30health_status_includes_version0B7_
FNDA:1,_RNCNvNtNtCs4S1xE8DPCBn_14loam_spine_api6health5testss_35health_status_includes_capabilities0B7_
FNDA:1,_RNCNvNtNtCs4S1xE8DPCBn_14loam_spine_api6health5testss_42readiness_probe_ready_when_storage_healthy0B7_
FNF:24
FNH:21
DA:122,6
DA:123,6
DA:124,6
DA:125,6
DA:126,6
DA:127,6
DA:128,6
DA:146,0
DA:147,0
DA:148,0
DA:149,0
DA:150,0
DA:151,0
DA:152,0
DA:168,0
DA:169,0
DA:170,0
DA:171,0
DA:172,0
DA:173,0
DA:174,0
DA:175,0
DA:176,0
DA:177,0
DA:185,5
DA:186,5
DA:187,5
DA:188,5
DA:189,5
DA:190,5
DA:193,5
DA:194,5
DA:195,0
DA:196,0
DA:200,5
DA:201,5
DA:202,5
DA:203,5
DA:204,5
DA:205,5
DA:206,5
DA:207,5
DA:208,5
DA:209,5
DA:210,5
DA:211,5
DA:212,5
DA:213,5
DA:214,5
DA:215,5
DA:216,5
DA:217,5
DA:218,5
DA:219,5
DA:220,5
DA:221,5
DA:222,5
DA:223,5
DA:227,1
DA:228,1
DA:229,1
DA:230,1
DA:238,1
DA:239,1
DA:240,1
DA:241,1
DA:242,1
DA:243,1
DA:244,1
DA:245,1
DA:246,1
DA:248,0
DA:249,0
DA:250,0
DA:251,0
DA:253,1
DA:259,6
DA:260,6
DA:261,0
DA:262,6
DA:264,6
DA:275,5
DA:276,5
DA:277,0
DA:278,5
DA:280,5
DA:284,0
DA:285,0
DA:286,0
DA:328,1
DA:329,1
DA:330,1
DA:331,1
DA:332,1
DA:335,1
DA:336,1
DA:337,1
DA:338,1
DA:339,1
DA:342,1
DA:343,1
DA:344,1
DA:345,1
DA:346,1
DA:347,1
DA:350,1
DA:351,1
DA:352,1
DA:353,1
DA:354,1
DA:357,1
DA:358,1
DA:359,1
DA:360,1
DA:361,1
DA:362,1
DA:363,1
DA:364,1
DA:367,1
DA:368,1
DA:369,1
DA:370,1
DA:371,1
DA:372,1
DA:373,1
DA:374,1
DA:375,1
DA:376,1
DA:377,1
DA:378,1
DA:379,1
DA:380,1
DA:381,1
DA:382,1
DA:383,1
DA:384,1
DA:385,1
DA:386,1
DA:387,1
DA:388,1
DA:389,1
DA:390,1
DA:393,1
DA:394,1
DA:395,1
DA:396,1
DA:398,1
DA:399,1
DA:400,1
DA:402,1
DA:403,1
DA:404,1
DA:405,1
BRF:0
BRH:0
LF:193
LH:162
end_of_record
SF:/path/to/ecoPrimals/phase2/loamSpine/crates/loam-spine-api/src/jsonrpc.rs
FN:31,_RINvNtCs4SaE2cvVVUV_14loam_spine_api7jsonrpc12to_rpc_errorNtNtB4_5error8ApiErrorEB4_
FN:362,_RNCNvNtCs4SaE2cvVVUV_14loam_spine_api7jsonrpc18run_jsonrpc_server0B5_
FN:31,_RINvNtCs4S1xE8DPCBn_14loam_spine_api7jsonrpc12to_rpc_errorNtNtB4_5error8ApiErrorEB4_
FN:447,_RNCNCNvNtNtCs4S1xE8DPCBn_14loam_spine_api7jsonrpc5testss_23test_jsonrpc_seal_spine00B9_
FN:416,_RNCNCNvNtNtCs4S1xE8DPCBn_14loam_spine_api7jsonrpc5testss_25test_jsonrpc_create_spine00B9_
FN:400,_RNCNCNvNtNtCs4S1xE8DPCBn_14loam_spine_api7jsonrpc5testss_25test_jsonrpc_health_check00B9_
FN:513,_RNCNCNvNtNtCs4S1xE8DPCBn_14loam_spine_api7jsonrpc5testss_27test_jsonrpc_commit_session00B9_
FN:430,_RNCNCNvNtNtCs4S1xE8DPCBn_14loam_spine_api7jsonrpc5testss_34test_jsonrpc_get_nonexistent_spine00B9_
FN:472,_RNCNCNvNtNtCs4S1xE8DPCBn_14loam_spine_api7jsonrpc5testss_37test_jsonrpc_mint_and_get_certificate00B9_
FN:489,_RNCNCNvNtNtCs4S1xE8DPCBn_14loam_spine_api7jsonrpc5testss_37test_jsonrpc_mint_and_get_certificate0s_0B9_
FN:435,_RNCNvNtNtCs4S1xE8DPCBn_14loam_spine_api7jsonrpc5testss_23test_jsonrpc_seal_spine0B7_
FN:405,_RNCNvNtNtCs4S1xE8DPCBn_14loam_spine_api7jsonrpc5testss_25test_jsonrpc_create_spine0B7_
FN:391,_RNCNvNtNtCs4S1xE8DPCBn_14loam_spine_api7jsonrpc5testss_25test_jsonrpc_health_check0B7_
FN:501,_RNCNvNtNtCs4S1xE8DPCBn_14loam_spine_api7jsonrpc5testss_27test_jsonrpc_commit_session0B7_
FN:421,_RNCNvNtNtCs4S1xE8DPCBn_14loam_spine_api7jsonrpc5testss_34test_jsonrpc_get_nonexistent_spine0B7_
FN:460,_RNCNvNtNtCs4S1xE8DPCBn_14loam_spine_api7jsonrpc5testss_37test_jsonrpc_mint_and_get_certificate0B7_
FN:197,_RNvMNtCs4S1xE8DPCBn_14loam_spine_api7jsonrpcNtB2_16LoamSpineJsonRpc14default_server
FN:189,_RNvMNtCs4S1xE8DPCBn_14loam_spine_api7jsonrpcNtB2_16LoamSpineJsonRpc3new
FN:215,_RNvXs_NtCs4S1xE8DPCBn_14loam_spine_api7jsonrpcNtB4_16LoamSpineJsonRpcNtB4_25LoamSpineJsonRpcApiServer10seal_spine
FN:204,_RNvXs_NtCs4S1xE8DPCBn_14loam_spine_api7jsonrpcNtB4_16LoamSpineJsonRpcNtB4_25LoamSpineJsonRpcApiServer12create_spine
FN:284,_RNvXs_NtCs4S1xE8DPCBn_14loam_spine_api7jsonrpcNtB4_16LoamSpineJsonRpcNtB4_25LoamSpineJsonRpcApiServer12health_check
FN:302,_RNvXs_NtCs4S1xE8DPCBn_14loam_spine_api7jsonrpcNtB4_16LoamSpineJsonRpcNtB4_25LoamSpineJsonRpcApiServer14commit_session
FN:277,_RNvXs_NtCs4S1xE8DPCBn_14loam_spine_api7jsonrpcNtB4_16LoamSpineJsonRpcNtB4_25LoamSpineJsonRpcApiServer15get_certificate
FN:237,_RNvXs_NtCs4S1xE8DPCBn_14loam_spine_api7jsonrpcNtB4_16LoamSpineJsonRpcNtB4_25LoamSpineJsonRpcApiServer16mint_certificate
FN:211,_RNvXs_NtCs4S1xE8DPCBn_14loam_spine_api7jsonrpcNtB4_16LoamSpineJsonRpcNtB4_25LoamSpineJsonRpcApiServer9get_spine
FN:362,_RNCNvNtCs4S1xE8DPCBn_14loam_spine_api7jsonrpc18run_jsonrpc_server0B5_
FN:359,_RNvNtCs4S1xE8DPCBn_14loam_spine_api7jsonrpc18run_jsonrpc_server
FN:316,_RNvXs_NtCs4S1xE8DPCBn_14loam_spine_api7jsonrpcNtB4_16LoamSpineJsonRpcNtB4_25LoamSpineJsonRpcApiServer12anchor_slice
FN:219,_RNvXs_NtCs4S1xE8DPCBn_14loam_spine_api7jsonrpcNtB4_16LoamSpineJsonRpcNtB4_25LoamSpineJsonRpcApiServer12append_entry
FN:309,_RNvXs_NtCs4S1xE8DPCBn_14loam_spine_api7jsonrpcNtB4_16LoamSpineJsonRpcNtB4_25LoamSpineJsonRpcApiServer12commit_braid
FN:326,_RNvXs_NtCs4S1xE8DPCBn_14loam_spine_api7jsonrpcNtB4_16LoamSpineJsonRpcNtB4_25LoamSpineJsonRpcApiServer14checkout_slice
FN:257,_RNvXs_NtCs4S1xE8DPCBn_14loam_spine_api7jsonrpcNtB4_16LoamSpineJsonRpcNtB4_25LoamSpineJsonRpcApiServer16loan_certificate
FN:267,_RNvXs_NtCs4S1xE8DPCBn_14loam_spine_api7jsonrpcNtB4_16LoamSpineJsonRpcNtB4_25LoamSpineJsonRpcApiServer18return_certificate
FN:247,_RNvXs_NtCs4S1xE8DPCBn_14loam_spine_api7jsonrpcNtB4_16LoamSpineJsonRpcNtB4_25LoamSpineJsonRpcApiServer20transfer_certificate
FN:346,_RNvXs_NtCs4S1xE8DPCBn_14loam_spine_api7jsonrpcNtB4_16LoamSpineJsonRpcNtB4_25LoamSpineJsonRpcApiServer22verify_inclusion_proof
FN:336,_RNvXs_NtCs4S1xE8DPCBn_14loam_spine_api7jsonrpcNtB4_16LoamSpineJsonRpcNtB4_25LoamSpineJsonRpcApiServer24generate_inclusion_proof
FN:230,_RNvXs_NtCs4S1xE8DPCBn_14loam_spine_api7jsonrpcNtB4_16LoamSpineJsonRpcNtB4_25LoamSpineJsonRpcApiServer7get_tip
FN:291,_RNvXs_NtCs4S1xE8DPCBn_14loam_spine_api7jsonrpcNtB4_16LoamSpineJsonRpcNtB4_25LoamSpineJsonRpcApiServer8liveness
FN:226,_RNvXs_NtCs4S1xE8DPCBn_14loam_spine_api7jsonrpcNtB4_16LoamSpineJsonRpcNtB4_25LoamSpineJsonRpcApiServer9get_entry
FN:295,_RNvXs_NtCs4S1xE8DPCBn_14loam_spine_api7jsonrpcNtB4_16LoamSpineJsonRpcNtB4_25LoamSpineJsonRpcApiServer9readiness
FN:378,_RNvNtNtCs4S1xE8DPCBn_14loam_spine_api7jsonrpc5testss_21test_jsonrpc_creation
FN:435,_RNvNtNtCs4S1xE8DPCBn_14loam_spine_api7jsonrpc5testss_23test_jsonrpc_seal_spine
FN:405,_RNvNtNtCs4S1xE8DPCBn_14loam_spine_api7jsonrpc5testss_25test_jsonrpc_create_spine
FN:391,_RNvNtNtCs4S1xE8DPCBn_14loam_spine_api7jsonrpc5testss_25test_jsonrpc_health_check
FN:383,_RNvNtNtCs4S1xE8DPCBn_14loam_spine_api7jsonrpc5testss_25test_jsonrpc_with_service
FN:501,_RNvNtNtCs4S1xE8DPCBn_14loam_spine_api7jsonrpc5testss_27test_jsonrpc_commit_session
FN:421,_RNvNtNtCs4S1xE8DPCBn_14loam_spine_api7jsonrpc5testss_34test_jsonrpc_get_nonexistent_spine
FN:460,_RNvNtNtCs4S1xE8DPCBn_14loam_spine_api7jsonrpc5testss_37test_jsonrpc_mint_and_get_certificate
FNDA:0,_RINvNtCs4SaE2cvVVUV_14loam_spine_api7jsonrpc12to_rpc_errorNtNtB4_5error8ApiErrorEB4_
FNDA:0,_RNCNvNtCs4SaE2cvVVUV_14loam_spine_api7jsonrpc18run_jsonrpc_server0B5_
FNDA:0,_RINvNtCs4S1xE8DPCBn_14loam_spine_api7jsonrpc12to_rpc_errorNtNtB4_5error8ApiErrorEB4_
FNDA:0,_RNCNCNvNtNtCs4S1xE8DPCBn_14loam_spine_api7jsonrpc5testss_23test_jsonrpc_seal_spine00B9_
FNDA:0,_RNCNCNvNtNtCs4S1xE8DPCBn_14loam_spine_api7jsonrpc5testss_25test_jsonrpc_create_spine00B9_
FNDA:0,_RNCNCNvNtNtCs4S1xE8DPCBn_14loam_spine_api7jsonrpc5testss_25test_jsonrpc_health_check00B9_
FNDA:0,_RNCNCNvNtNtCs4S1xE8DPCBn_14loam_spine_api7jsonrpc5testss_27test_jsonrpc_commit_session00B9_
FNDA:0,_RNCNCNvNtNtCs4S1xE8DPCBn_14loam_spine_api7jsonrpc5testss_34test_jsonrpc_get_nonexistent_spine00B9_
FNDA:0,_RNCNCNvNtNtCs4S1xE8DPCBn_14loam_spine_api7jsonrpc5testss_37test_jsonrpc_mint_and_get_certificate00B9_
FNDA:0,_RNCNCNvNtNtCs4S1xE8DPCBn_14loam_spine_api7jsonrpc5testss_37test_jsonrpc_mint_and_get_certificate0s_0B9_
FNDA:1,_RNCNvNtNtCs4S1xE8DPCBn_14loam_spine_api7jsonrpc5testss_23test_jsonrpc_seal_spine0B7_
FNDA:1,_RNCNvNtNtCs4S1xE8DPCBn_14loam_spine_api7jsonrpc5testss_25test_jsonrpc_create_spine0B7_
FNDA:1,_RNCNvNtNtCs4S1xE8DPCBn_14loam_spine_api7jsonrpc5testss_25test_jsonrpc_health_check0B7_
FNDA:1,_RNCNvNtNtCs4S1xE8DPCBn_14loam_spine_api7jsonrpc5testss_27test_jsonrpc_commit_session0B7_
FNDA:1,_RNCNvNtNtCs4S1xE8DPCBn_14loam_spine_api7jsonrpc5testss_34test_jsonrpc_get_nonexistent_spine0B7_
FNDA:1,_RNCNvNtNtCs4S1xE8DPCBn_14loam_spine_api7jsonrpc5testss_37test_jsonrpc_mint_and_get_certificate0B7_
FNDA:7,_RNvMNtCs4S1xE8DPCBn_14loam_spine_api7jsonrpcNtB2_16LoamSpineJsonRpc14default_server
FNDA:8,_RNvMNtCs4S1xE8DPCBn_14loam_spine_api7jsonrpcNtB2_16LoamSpineJsonRpc3new
FNDA:1,_RNvXs_NtCs4S1xE8DPCBn_14loam_spine_api7jsonrpcNtB4_16LoamSpineJsonRpcNtB4_25LoamSpineJsonRpcApiServer10seal_spine
FNDA:4,_RNvXs_NtCs4S1xE8DPCBn_14loam_spine_api7jsonrpcNtB4_16LoamSpineJsonRpcNtB4_25LoamSpineJsonRpcApiServer12create_spine
FNDA:1,_RNvXs_NtCs4S1xE8DPCBn_14loam_spine_api7jsonrpcNtB4_16LoamSpineJsonRpcNtB4_25LoamSpineJsonRpcApiServer12health_check
FNDA:1,_RNvXs_NtCs4S1xE8DPCBn_14loam_spine_api7jsonrpcNtB4_16LoamSpineJsonRpcNtB4_25LoamSpineJsonRpcApiServer14commit_session
FNDA:1,_RNvXs_NtCs4S1xE8DPCBn_14loam_spine_api7jsonrpcNtB4_16LoamSpineJsonRpcNtB4_25LoamSpineJsonRpcApiServer15get_certificate
FNDA:1,_RNvXs_NtCs4S1xE8DPCBn_14loam_spine_api7jsonrpcNtB4_16LoamSpineJsonRpcNtB4_25LoamSpineJsonRpcApiServer16mint_certificate
FNDA:1,_RNvXs_NtCs4S1xE8DPCBn_14loam_spine_api7jsonrpcNtB4_16LoamSpineJsonRpcNtB4_25LoamSpineJsonRpcApiServer9get_spine
FNDA:0,_RNCNvNtCs4S1xE8DPCBn_14loam_spine_api7jsonrpc18run_jsonrpc_server0B5_
FNDA:0,_RNvNtCs4S1xE8DPCBn_14loam_spine_api7jsonrpc18run_jsonrpc_server
FNDA:0,_RNvXs_NtCs4S1xE8DPCBn_14loam_spine_api7jsonrpcNtB4_16LoamSpineJsonRpcNtB4_25LoamSpineJsonRpcApiServer12anchor_slice
FNDA:0,_RNvXs_NtCs4S1xE8DPCBn_14loam_spine_api7jsonrpcNtB4_16LoamSpineJsonRpcNtB4_25LoamSpineJsonRpcApiServer12append_entry
FNDA:0,_RNvXs_NtCs4S1xE8DPCBn_14loam_spine_api7jsonrpcNtB4_16LoamSpineJsonRpcNtB4_25LoamSpineJsonRpcApiServer12commit_braid
FNDA:0,_RNvXs_NtCs4S1xE8DPCBn_14loam_spine_api7jsonrpcNtB4_16LoamSpineJsonRpcNtB4_25LoamSpineJsonRpcApiServer14checkout_slice
FNDA:0,_RNvXs_NtCs4S1xE8DPCBn_14loam_spine_api7jsonrpcNtB4_16LoamSpineJsonRpcNtB4_25LoamSpineJsonRpcApiServer16loan_certificate
FNDA:0,_RNvXs_NtCs4S1xE8DPCBn_14loam_spine_api7jsonrpcNtB4_16LoamSpineJsonRpcNtB4_25LoamSpineJsonRpcApiServer18return_certificate
FNDA:0,_RNvXs_NtCs4S1xE8DPCBn_14loam_spine_api7jsonrpcNtB4_16LoamSpineJsonRpcNtB4_25LoamSpineJsonRpcApiServer20transfer_certificate
FNDA:0,_RNvXs_NtCs4S1xE8DPCBn_14loam_spine_api7jsonrpcNtB4_16LoamSpineJsonRpcNtB4_25LoamSpineJsonRpcApiServer22verify_inclusion_proof
FNDA:0,_RNvXs_NtCs4S1xE8DPCBn_14loam_spine_api7jsonrpcNtB4_16LoamSpineJsonRpcNtB4_25LoamSpineJsonRpcApiServer24generate_inclusion_proof
FNDA:0,_RNvXs_NtCs4S1xE8DPCBn_14loam_spine_api7jsonrpcNtB4_16LoamSpineJsonRpcNtB4_25LoamSpineJsonRpcApiServer7get_tip
FNDA:0,_RNvXs_NtCs4S1xE8DPCBn_14loam_spine_api7jsonrpcNtB4_16LoamSpineJsonRpcNtB4_25LoamSpineJsonRpcApiServer8liveness
FNDA:0,_RNvXs_NtCs4S1xE8DPCBn_14loam_spine_api7jsonrpcNtB4_16LoamSpineJsonRpcNtB4_25LoamSpineJsonRpcApiServer9get_entry
FNDA:0,_RNvXs_NtCs4S1xE8DPCBn_14loam_spine_api7jsonrpcNtB4_16LoamSpineJsonRpcNtB4_25LoamSpineJsonRpcApiServer9readiness
FNDA:1,_RNvNtNtCs4S1xE8DPCBn_14loam_spine_api7jsonrpc5testss_21test_jsonrpc_creation
FNDA:1,_RNvNtNtCs4S1xE8DPCBn_14loam_spine_api7jsonrpc5testss_23test_jsonrpc_seal_spine
FNDA:1,_RNvNtNtCs4S1xE8DPCBn_14loam_spine_api7jsonrpc5testss_25test_jsonrpc_create_spine
FNDA:1,_RNvNtNtCs4S1xE8DPCBn_14loam_spine_api7jsonrpc5testss_25test_jsonrpc_health_check
FNDA:1,_RNvNtNtCs4S1xE8DPCBn_14loam_spine_api7jsonrpc5testss_25test_jsonrpc_with_service
FNDA:1,_RNvNtNtCs4S1xE8DPCBn_14loam_spine_api7jsonrpc5testss_27test_jsonrpc_commit_session
FNDA:1,_RNvNtNtCs4S1xE8DPCBn_14loam_spine_api7jsonrpc5testss_34test_jsonrpc_get_nonexistent_spine
FNDA:1,_RNvNtNtCs4S1xE8DPCBn_14loam_spine_api7jsonrpc5testss_37test_jsonrpc_mint_and_get_certificate
FNF:46
FNH:23
DA:31,0
DA:32,0
DA:33,0
DA:189,8
DA:190,8
DA:191,8
DA:192,8
DA:193,8
DA:197,7
DA:198,7
DA:199,7
DA:204,4
DA:205,4
DA:206,4
DA:207,4
DA:208,4
DA:209,4
DA:211,1
DA:212,1
DA:213,1
DA:215,1
DA:216,1
DA:217,1
DA:219,0
DA:220,0
DA:221,0
DA:222,0
DA:223,0
DA:224,0
DA:226,0
DA:227,0
DA:228,0
DA:230,0
DA:231,0
DA:232,0
DA:237,1
DA:238,1
DA:239,1
DA:240,1
DA:241,1
DA:242,1
DA:247,0
DA:248,0
DA:249,0
DA:250,0
DA:251,0
DA:252,0
DA:257,0
DA:258,0
DA:259,0
DA:260,0
DA:261,0
DA:262,0
DA:267,0
DA:268,0
DA:269,0
DA:270,0
DA:271,0
DA:272,0
DA:277,1
DA:278,1
DA:279,1
DA:280,1
DA:281,1
DA:282,1
DA:284,1
DA:285,1
DA:286,1
DA:287,1
DA:288,1
DA:289,1
DA:291,0
DA:292,0
DA:293,0
DA:295,0
DA:296,0
DA:297,0
DA:302,1
DA:303,1
DA:304,1
DA:305,1
DA:306,1
DA:307,1
DA:309,0
DA:310,0
DA:311,0
DA:312,0
DA:313,0
DA:314,0
DA:316,0
DA:317,0
DA:318,0
DA:319,0
DA:320,0
DA:321,0
DA:326,0
DA:327,0
DA:328,0
DA:329,0
DA:330,0
DA:331,0
DA:336,0
DA:337,0
DA:338,0
DA:339,0
DA:340,0
DA:341,0
DA:346,0
DA:347,0
DA:348,0
DA:349,0
DA:350,0
DA:351,0
DA:359,0
DA:360,0
DA:361,0
DA:362,0
DA:363,0
DA:364,0
DA:365,0
DA:366,0
DA:368,0
DA:369,0
DA:370,0
DA:378,1
DA:379,1
DA:380,1
DA:383,1
DA:384,1
DA:385,1
DA:386,1
DA:387,1
DA:388,1
DA:391,1
DA:392,1
DA:393,1
DA:394,1
DA:395,1
DA:396,1
DA:397,1
DA:398,1
DA:399,1
DA:400,1
DA:401,1
DA:402,1
DA:405,1
DA:406,1
DA:407,1
DA:408,1
DA:409,1
DA:410,1
DA:411,1
DA:412,1
DA:413,1
DA:414,1
DA:415,1
DA:416,1
DA:417,1
DA:418,1
DA:421,1
DA:422,1
DA:423,1
DA:424,1
DA:425,1
DA:426,1
DA:427,1
DA:428,1
DA:429,1
DA:430,1
DA:431,1
DA:432,1
DA:435,1
DA:436,1
DA:437,1
DA:438,1
DA:439,1
DA:440,1
DA:441,1
DA:442,1
DA:443,1
DA:444,1
DA:445,1
DA:446,1
DA:447,1
DA:448,1
DA:449,1
DA:450,1
DA:451,1
DA:452,1
DA:453,1
DA:454,1
DA:455,1
DA:456,1
DA:457,1
DA:460,1
DA:461,1
DA:462,1
DA:463,1
DA:464,1
DA:465,1
DA:466,1
DA:467,1
DA:468,1
DA:469,1
DA:470,1
DA:471,1
DA:472,1
DA:473,1
DA:474,1
DA:475,1
DA:476,1
DA:477,1
DA:478,1
DA:479,1
DA:480,1
DA:481,1
DA:482,1
DA:483,1
DA:484,1
DA:485,1
DA:486,1
DA:487,1
DA:488,1
DA:489,1
DA:490,1
DA:491,1
DA:492,1
DA:493,1
DA:494,1
DA:495,1
DA:496,1
DA:497,1
DA:498,1
DA:501,1
DA:502,1
DA:503,1
DA:504,1
DA:505,1
DA:506,1
DA:507,1
DA:508,1
DA:509,1
DA:510,1
DA:511,1
DA:512,1
DA:513,1
DA:514,1
DA:515,1
DA:516,1
DA:517,1
DA:518,1
DA:519,1
DA:520,1
DA:521,1
DA:522,1
DA:523,1
DA:524,1
DA:525,1
DA:526,1
BRF:0
BRH:0
LF:376
LH:288
end_of_record
SF:/path/to/ecoPrimals/phase2/loamSpine/crates/loam-spine-api/src/rpc.rs
FN:40,_RINvMs0_NtCs4SaE2cvVVUV_14loam_spine_api3rpcNtB6_18LoamSpineRpcClient3newpEB8_
FN:40,_RNCNvMs2_NtCs4SaE2cvVVUV_14loam_spine_api3rpcINtB7_18LoamSpineRpcClientpE10seal_spine0B9_
FN:40,_RNCNvMs2_NtCs4SaE2cvVVUV_14loam_spine_api3rpcINtB7_18LoamSpineRpcClientpE12anchor_slice0B9_
FN:40,_RNCNvMs2_NtCs4SaE2cvVVUV_14loam_spine_api3rpcINtB7_18LoamSpineRpcClientpE12append_entry0B9_
FN:40,_RNCNvMs2_NtCs4SaE2cvVVUV_14loam_spine_api3rpcINtB7_18LoamSpineRpcClientpE12commit_braid0B9_
FN:40,_RNCNvMs2_NtCs4SaE2cvVVUV_14loam_spine_api3rpcINtB7_18LoamSpineRpcClientpE12create_spine0B9_
FN:40,_RNCNvMs2_NtCs4SaE2cvVVUV_14loam_spine_api3rpcINtB7_18LoamSpineRpcClientpE12health_check0B9_
FN:40,_RNCNvMs2_NtCs4SaE2cvVVUV_14loam_spine_api3rpcINtB7_18LoamSpineRpcClientpE14checkout_slice0B9_
FN:40,_RNCNvMs2_NtCs4SaE2cvVVUV_14loam_spine_api3rpcINtB7_18LoamSpineRpcClientpE14commit_session0B9_
FN:40,_RNCNvMs2_NtCs4SaE2cvVVUV_14loam_spine_api3rpcINtB7_18LoamSpineRpcClientpE15get_certificate0B9_
FN:40,_RNCNvMs2_NtCs4SaE2cvVVUV_14loam_spine_api3rpcINtB7_18LoamSpineRpcClientpE16loan_certificate0B9_
FN:40,_RNCNvMs2_NtCs4SaE2cvVVUV_14loam_spine_api3rpcINtB7_18LoamSpineRpcClientpE16mint_certificate0B9_
FN:40,_RNCNvMs2_NtCs4SaE2cvVVUV_14loam_spine_api3rpcINtB7_18LoamSpineRpcClientpE18return_certificate0B9_
FN:40,_RNCNvMs2_NtCs4SaE2cvVVUV_14loam_spine_api3rpcINtB7_18LoamSpineRpcClientpE20transfer_certificate0B9_
FN:40,_RNCNvMs2_NtCs4SaE2cvVVUV_14loam_spine_api3rpcINtB7_18LoamSpineRpcClientpE22verify_inclusion_proof0B9_
FN:40,_RNCNvMs2_NtCs4SaE2cvVVUV_14loam_spine_api3rpcINtB7_18LoamSpineRpcClientpE24generate_inclusion_proof0B9_
FN:40,_RNCNvMs2_NtCs4SaE2cvVVUV_14loam_spine_api3rpcINtB7_18LoamSpineRpcClientpE7get_tip0B9_
FN:40,_RNCNvMs2_NtCs4SaE2cvVVUV_14loam_spine_api3rpcINtB7_18LoamSpineRpcClientpE9get_entry0B9_
FN:40,_RNCNvMs2_NtCs4SaE2cvVVUV_14loam_spine_api3rpcINtB7_18LoamSpineRpcClientpE9get_spine0B9_
FN:40,_RNvXININtCs4SaE2cvVVUV_14loam_spine_api3rpcs1_0pEINtB5_18LoamSpineRpcClientpEINtNtCs9sjCchOt1K7_4core7convert4FrompE4fromB7_
FN:40,_RNvYpNtNtCs4SaE2cvVVUV_14loam_spine_api3rpc12LoamSpineRpc5serveB7_
FN:40,_RINvMs0_NtCs4S1xE8DPCBn_14loam_spine_api3rpcNtB6_18LoamSpineRpcClient3newpEB8_
FN:40,_RNCNvMs2_NtCs4S1xE8DPCBn_14loam_spine_api3rpcINtB7_18LoamSpineRpcClientpE10seal_spine0B9_
FN:40,_RNCNvMs2_NtCs4S1xE8DPCBn_14loam_spine_api3rpcINtB7_18LoamSpineRpcClientpE12anchor_slice0B9_
FN:40,_RNCNvMs2_NtCs4S1xE8DPCBn_14loam_spine_api3rpcINtB7_18LoamSpineRpcClientpE12append_entry0B9_
FN:40,_RNCNvMs2_NtCs4S1xE8DPCBn_14loam_spine_api3rpcINtB7_18LoamSpineRpcClientpE12commit_braid0B9_
FN:40,_RNCNvMs2_NtCs4S1xE8DPCBn_14loam_spine_api3rpcINtB7_18LoamSpineRpcClientpE12create_spine0B9_
FN:40,_RNCNvMs2_NtCs4S1xE8DPCBn_14loam_spine_api3rpcINtB7_18LoamSpineRpcClientpE12health_check0B9_
FN:40,_RNCNvMs2_NtCs4S1xE8DPCBn_14loam_spine_api3rpcINtB7_18LoamSpineRpcClientpE14checkout_slice0B9_
FN:40,_RNCNvMs2_NtCs4S1xE8DPCBn_14loam_spine_api3rpcINtB7_18LoamSpineRpcClientpE14commit_session0B9_
FN:40,_RNCNvMs2_NtCs4S1xE8DPCBn_14loam_spine_api3rpcINtB7_18LoamSpineRpcClientpE15get_certificate0B9_
FN:40,_RNCNvMs2_NtCs4S1xE8DPCBn_14loam_spine_api3rpcINtB7_18LoamSpineRpcClientpE16loan_certificate0B9_
FN:40,_RNCNvMs2_NtCs4S1xE8DPCBn_14loam_spine_api3rpcINtB7_18LoamSpineRpcClientpE16mint_certificate0B9_
FN:40,_RNCNvMs2_NtCs4S1xE8DPCBn_14loam_spine_api3rpcINtB7_18LoamSpineRpcClientpE18return_certificate0B9_
FN:40,_RNCNvMs2_NtCs4S1xE8DPCBn_14loam_spine_api3rpcINtB7_18LoamSpineRpcClientpE20transfer_certificate0B9_
FN:40,_RNCNvMs2_NtCs4S1xE8DPCBn_14loam_spine_api3rpcINtB7_18LoamSpineRpcClientpE22verify_inclusion_proof0B9_
FN:40,_RNCNvMs2_NtCs4S1xE8DPCBn_14loam_spine_api3rpcINtB7_18LoamSpineRpcClientpE24generate_inclusion_proof0B9_
FN:40,_RNCNvMs2_NtCs4S1xE8DPCBn_14loam_spine_api3rpcINtB7_18LoamSpineRpcClientpE7get_tip0B9_
FN:40,_RNCNvMs2_NtCs4S1xE8DPCBn_14loam_spine_api3rpcINtB7_18LoamSpineRpcClientpE9get_entry0B9_
FN:40,_RNCNvMs2_NtCs4S1xE8DPCBn_14loam_spine_api3rpcINtB7_18LoamSpineRpcClientpE9get_spine0B9_
FN:40,_RNvXININtCs4S1xE8DPCBn_14loam_spine_api3rpcs1_0pEINtB5_18LoamSpineRpcClientpEINtNtCs9sjCchOt1K7_4core7convert4FrompE4fromB7_
FN:40,_RNvYpNtNtCs4S1xE8DPCBn_14loam_spine_api3rpc12LoamSpineRpc5serveB7_
FNDA:0,_RINvMs0_NtCs4SaE2cvVVUV_14loam_spine_api3rpcNtB6_18LoamSpineRpcClient3newpEB8_
FNDA:0,_RNCNvMs2_NtCs4SaE2cvVVUV_14loam_spine_api3rpcINtB7_18LoamSpineRpcClientpE10seal_spine0B9_
FNDA:0,_RNCNvMs2_NtCs4SaE2cvVVUV_14loam_spine_api3rpcINtB7_18LoamSpineRpcClientpE12anchor_slice0B9_
FNDA:0,_RNCNvMs2_NtCs4SaE2cvVVUV_14loam_spine_api3rpcINtB7_18LoamSpineRpcClientpE12append_entry0B9_
FNDA:0,_RNCNvMs2_NtCs4SaE2cvVVUV_14loam_spine_api3rpcINtB7_18LoamSpineRpcClientpE12commit_braid0B9_
FNDA:0,_RNCNvMs2_NtCs4SaE2cvVVUV_14loam_spine_api3rpcINtB7_18LoamSpineRpcClientpE12create_spine0B9_
FNDA:0,_RNCNvMs2_NtCs4SaE2cvVVUV_14loam_spine_api3rpcINtB7_18LoamSpineRpcClientpE12health_check0B9_
FNDA:0,_RNCNvMs2_NtCs4SaE2cvVVUV_14loam_spine_api3rpcINtB7_18LoamSpineRpcClientpE14checkout_slice0B9_
FNDA:0,_RNCNvMs2_NtCs4SaE2cvVVUV_14loam_spine_api3rpcINtB7_18LoamSpineRpcClientpE14commit_session0B9_
FNDA:0,_RNCNvMs2_NtCs4SaE2cvVVUV_14loam_spine_api3rpcINtB7_18LoamSpineRpcClientpE15get_certificate0B9_
FNDA:0,_RNCNvMs2_NtCs4SaE2cvVVUV_14loam_spine_api3rpcINtB7_18LoamSpineRpcClientpE16loan_certificate0B9_
FNDA:0,_RNCNvMs2_NtCs4SaE2cvVVUV_14loam_spine_api3rpcINtB7_18LoamSpineRpcClientpE16mint_certificate0B9_
FNDA:0,_RNCNvMs2_NtCs4SaE2cvVVUV_14loam_spine_api3rpcINtB7_18LoamSpineRpcClientpE18return_certificate0B9_
FNDA:0,_RNCNvMs2_NtCs4SaE2cvVVUV_14loam_spine_api3rpcINtB7_18LoamSpineRpcClientpE20transfer_certificate0B9_
FNDA:0,_RNCNvMs2_NtCs4SaE2cvVVUV_14loam_spine_api3rpcINtB7_18LoamSpineRpcClientpE22verify_inclusion_proof0B9_
FNDA:0,_RNCNvMs2_NtCs4SaE2cvVVUV_14loam_spine_api3rpcINtB7_18LoamSpineRpcClientpE24generate_inclusion_proof0B9_
FNDA:0,_RNCNvMs2_NtCs4SaE2cvVVUV_14loam_spine_api3rpcINtB7_18LoamSpineRpcClientpE7get_tip0B9_
FNDA:0,_RNCNvMs2_NtCs4SaE2cvVVUV_14loam_spine_api3rpcINtB7_18LoamSpineRpcClientpE9get_entry0B9_
FNDA:0,_RNCNvMs2_NtCs4SaE2cvVVUV_14loam_spine_api3rpcINtB7_18LoamSpineRpcClientpE9get_spine0B9_
FNDA:0,_RNvXININtCs4SaE2cvVVUV_14loam_spine_api3rpcs1_0pEINtB5_18LoamSpineRpcClientpEINtNtCs9sjCchOt1K7_4core7convert4FrompE4fromB7_
FNDA:0,_RNvYpNtNtCs4SaE2cvVVUV_14loam_spine_api3rpc12LoamSpineRpc5serveB7_
FNDA:0,_RINvMs0_NtCs4S1xE8DPCBn_14loam_spine_api3rpcNtB6_18LoamSpineRpcClient3newpEB8_
FNDA:0,_RNCNvMs2_NtCs4S1xE8DPCBn_14loam_spine_api3rpcINtB7_18LoamSpineRpcClientpE10seal_spine0B9_
FNDA:0,_RNCNvMs2_NtCs4S1xE8DPCBn_14loam_spine_api3rpcINtB7_18LoamSpineRpcClientpE12anchor_slice0B9_
FNDA:0,_RNCNvMs2_NtCs4S1xE8DPCBn_14loam_spine_api3rpcINtB7_18LoamSpineRpcClientpE12append_entry0B9_
FNDA:0,_RNCNvMs2_NtCs4S1xE8DPCBn_14loam_spine_api3rpcINtB7_18LoamSpineRpcClientpE12commit_braid0B9_
FNDA:0,_RNCNvMs2_NtCs4S1xE8DPCBn_14loam_spine_api3rpcINtB7_18LoamSpineRpcClientpE12create_spine0B9_
FNDA:0,_RNCNvMs2_NtCs4S1xE8DPCBn_14loam_spine_api3rpcINtB7_18LoamSpineRpcClientpE12health_check0B9_
FNDA:0,_RNCNvMs2_NtCs4S1xE8DPCBn_14loam_spine_api3rpcINtB7_18LoamSpineRpcClientpE14checkout_slice0B9_
FNDA:0,_RNCNvMs2_NtCs4S1xE8DPCBn_14loam_spine_api3rpcINtB7_18LoamSpineRpcClientpE14commit_session0B9_
FNDA:0,_RNCNvMs2_NtCs4S1xE8DPCBn_14loam_spine_api3rpcINtB7_18LoamSpineRpcClientpE15get_certificate0B9_
FNDA:0,_RNCNvMs2_NtCs4S1xE8DPCBn_14loam_spine_api3rpcINtB7_18LoamSpineRpcClientpE16loan_certificate0B9_
FNDA:0,_RNCNvMs2_NtCs4S1xE8DPCBn_14loam_spine_api3rpcINtB7_18LoamSpineRpcClientpE16mint_certificate0B9_
FNDA:0,_RNCNvMs2_NtCs4S1xE8DPCBn_14loam_spine_api3rpcINtB7_18LoamSpineRpcClientpE18return_certificate0B9_
FNDA:0,_RNCNvMs2_NtCs4S1xE8DPCBn_14loam_spine_api3rpcINtB7_18LoamSpineRpcClientpE20transfer_certificate0B9_
FNDA:0,_RNCNvMs2_NtCs4S1xE8DPCBn_14loam_spine_api3rpcINtB7_18LoamSpineRpcClientpE22verify_inclusion_proof0B9_
FNDA:0,_RNCNvMs2_NtCs4S1xE8DPCBn_14loam_spine_api3rpcINtB7_18LoamSpineRpcClientpE24generate_inclusion_proof0B9_
FNDA:0,_RNCNvMs2_NtCs4S1xE8DPCBn_14loam_spine_api3rpcINtB7_18LoamSpineRpcClientpE7get_tip0B9_
FNDA:0,_RNCNvMs2_NtCs4S1xE8DPCBn_14loam_spine_api3rpcINtB7_18LoamSpineRpcClientpE9get_entry0B9_
FNDA:0,_RNCNvMs2_NtCs4S1xE8DPCBn_14loam_spine_api3rpcINtB7_18LoamSpineRpcClientpE9get_spine0B9_
FNDA:0,_RNvXININtCs4S1xE8DPCBn_14loam_spine_api3rpcs1_0pEINtB5_18LoamSpineRpcClientpEINtNtCs9sjCchOt1K7_4core7convert4FrompE4fromB7_
FNDA:0,_RNvYpNtNtCs4S1xE8DPCBn_14loam_spine_api3rpc12LoamSpineRpc5serveB7_
FNF:2
FNH:0
DA:40,0
BRF:0
BRH:0
LF:2
LH:0
end_of_record
SF:/path/to/ecoPrimals/phase2/loamSpine/crates/loam-spine-api/src/service.rs
FN:36,_RNvMNtCs4SaE2cvVVUV_14loam_spine_api7serviceNtB2_19LoamSpineRpcService15default_service
FN:28,_RNvMNtCs4SaE2cvVVUV_14loam_spine_api7serviceNtB2_19LoamSpineRpcService3new
FN:41,_RNvMNtCs4SaE2cvVVUV_14loam_spine_api7serviceNtB2_19LoamSpineRpcService4core
FN:46,_RNvMNtCs4SaE2cvVVUV_14loam_spine_api7serviceNtB2_19LoamSpineRpcService8core_mut
FN:105,_RNvMs_NtCs4SaE2cvVVUV_14loam_spine_api7serviceNtB4_19LoamSpineRpcService10seal_spine
FN:316,_RNvMs_NtCs4SaE2cvVVUV_14loam_spine_api7serviceNtB4_19LoamSpineRpcService12anchor_slice
FN:121,_RNvMs_NtCs4SaE2cvVVUV_14loam_spine_api7serviceNtB4_19LoamSpineRpcService12append_entry
FN:499,_RNvMs_NtCs4SaE2cvVVUV_14loam_spine_api7serviceNtB4_19LoamSpineRpcService12commit_braid
FN:58,_RNvMs_NtCs4SaE2cvVVUV_14loam_spine_api7serviceNtB4_19LoamSpineRpcService12create_spine
FN:417,_RNvMs_NtCs4SaE2cvVVUV_14loam_spine_api7serviceNtB4_19LoamSpineRpcService12health_check
FN:344,_RNvMs_NtCs4SaE2cvVVUV_14loam_spine_api7serviceNtB4_19LoamSpineRpcService14checkout_slice
FN:473,_RNvMs_NtCs4SaE2cvVVUV_14loam_spine_api7serviceNtB4_19LoamSpineRpcService14commit_session
FN:294,_RNvMs_NtCs4SaE2cvVVUV_14loam_spine_api7serviceNtB4_19LoamSpineRpcService15get_certificate
FN:245,_RNvMs_NtCs4SaE2cvVVUV_14loam_spine_api7serviceNtB4_19LoamSpineRpcService16loan_certificate
FN:197,_RNvMs_NtCs4SaE2cvVVUV_14loam_spine_api7serviceNtB4_19LoamSpineRpcService16mint_certificate
FN:272,_RNvMs_NtCs4SaE2cvVVUV_14loam_spine_api7serviceNtB4_19LoamSpineRpcService18return_certificate
FN:223,_RNvMs_NtCs4SaE2cvVVUV_14loam_spine_api7serviceNtB4_19LoamSpineRpcService20transfer_certificate
FN:397,_RNvMs_NtCs4SaE2cvVVUV_14loam_spine_api7serviceNtB4_19LoamSpineRpcService22verify_inclusion_proof
FN:379,_RNvMs_NtCs4SaE2cvVVUV_14loam_spine_api7serviceNtB4_19LoamSpineRpcService24generate_inclusion_proof
FN:169,_RNvMs_NtCs4SaE2cvVVUV_14loam_spine_api7serviceNtB4_19LoamSpineRpcService7get_tip
FN:445,_RNvMs_NtCs4SaE2cvVVUV_14loam_spine_api7serviceNtB4_19LoamSpineRpcService8liveness
FN:149,_RNvMs_NtCs4SaE2cvVVUV_14loam_spine_api7serviceNtB4_19LoamSpineRpcService9get_entry
FN:86,_RNvMs_NtCs4SaE2cvVVUV_14loam_spine_api7serviceNtB4_19LoamSpineRpcService9get_spine
FN:457,_RNvMs_NtCs4SaE2cvVVUV_14loam_spine_api7serviceNtB4_19LoamSpineRpcService9readiness
FN:136,_RNCNCNvMs_NtCs4SaE2cvVVUV_14loam_spine_api7serviceNtB8_19LoamSpineRpcService12append_entry00Ba_
FN:73,_RNCNCNvMs_NtCs4SaE2cvVVUV_14loam_spine_api7serviceNtB8_19LoamSpineRpcService12create_spine00Ba_
FN:175,_RNCNCNvMs_NtCs4SaE2cvVVUV_14loam_spine_api7serviceNtB8_19LoamSpineRpcService7get_tip00Ba_
FN:181,_RNCNCNvMs_NtCs4SaE2cvVVUV_14loam_spine_api7serviceNtB8_19LoamSpineRpcService7get_tip0s_0Ba_
FN:41,_RNCNvMNtCs4SaE2cvVVUV_14loam_spine_api7serviceNtB4_19LoamSpineRpcService4core0B6_
FN:46,_RNCNvMNtCs4SaE2cvVVUV_14loam_spine_api7serviceNtB4_19LoamSpineRpcService8core_mut0B6_
FN:105,_RNCNvMs_NtCs4SaE2cvVVUV_14loam_spine_api7serviceNtB6_19LoamSpineRpcService10seal_spine0B8_
FN:319,_RNCNvMs_NtCs4SaE2cvVVUV_14loam_spine_api7serviceNtB6_19LoamSpineRpcService12anchor_slice0B8_
FN:124,_RNCNvMs_NtCs4SaE2cvVVUV_14loam_spine_api7serviceNtB6_19LoamSpineRpcService12append_entry0B8_
FN:502,_RNCNvMs_NtCs4SaE2cvVVUV_14loam_spine_api7serviceNtB6_19LoamSpineRpcService12commit_braid0B8_
FN:61,_RNCNvMs_NtCs4SaE2cvVVUV_14loam_spine_api7serviceNtB6_19LoamSpineRpcService12create_spine0B8_
FN:420,_RNCNvMs_NtCs4SaE2cvVVUV_14loam_spine_api7serviceNtB6_19LoamSpineRpcService12health_check0B8_
FN:347,_RNCNvMs_NtCs4SaE2cvVVUV_14loam_spine_api7serviceNtB6_19LoamSpineRpcService14checkout_slice0B8_
FN:476,_RNCNvMs_NtCs4SaE2cvVVUV_14loam_spine_api7serviceNtB6_19LoamSpineRpcService14commit_session0B8_
FN:297,_RNCNvMs_NtCs4SaE2cvVVUV_14loam_spine_api7serviceNtB6_19LoamSpineRpcService15get_certificate0B8_
FN:248,_RNCNvMs_NtCs4SaE2cvVVUV_14loam_spine_api7serviceNtB6_19LoamSpineRpcService16loan_certificate0B8_
FN:200,_RNCNvMs_NtCs4SaE2cvVVUV_14loam_spine_api7serviceNtB6_19LoamSpineRpcService16mint_certificate0B8_
FN:275,_RNCNvMs_NtCs4SaE2cvVVUV_14loam_spine_api7serviceNtB6_19LoamSpineRpcService18return_certificate0B8_
FN:226,_RNCNvMs_NtCs4SaE2cvVVUV_14loam_spine_api7serviceNtB6_19LoamSpineRpcService20transfer_certificate0B8_
FN:400,_RNCNvMs_NtCs4SaE2cvVVUV_14loam_spine_api7serviceNtB6_19LoamSpineRpcService22verify_inclusion_proof0B8_
FN:382,_RNCNvMs_NtCs4SaE2cvVVUV_14loam_spine_api7serviceNtB6_19LoamSpineRpcService24generate_inclusion_proof0B8_
FN:169,_RNCNvMs_NtCs4SaE2cvVVUV_14loam_spine_api7serviceNtB6_19LoamSpineRpcService7get_tip0B8_
FN:445,_RNCNvMs_NtCs4SaE2cvVVUV_14loam_spine_api7serviceNtB6_19LoamSpineRpcService8liveness0B8_
FN:149,_RNCNvMs_NtCs4SaE2cvVVUV_14loam_spine_api7serviceNtB6_19LoamSpineRpcService9get_entry0B8_
FN:86,_RNCNvMs_NtCs4SaE2cvVVUV_14loam_spine_api7serviceNtB6_19LoamSpineRpcService9get_spine0B8_
FN:457,_RNCNvMs_NtCs4SaE2cvVVUV_14loam_spine_api7serviceNtB6_19LoamSpineRpcService9readiness0B8_
FN:36,_RNvMNtCs4S1xE8DPCBn_14loam_spine_api7serviceNtB2_19LoamSpineRpcService15default_service
FN:28,_RNvMNtCs4S1xE8DPCBn_14loam_spine_api7serviceNtB2_19LoamSpineRpcService3new
FN:41,_RNvMNtCs4S1xE8DPCBn_14loam_spine_api7serviceNtB2_19LoamSpineRpcService4core
FN:46,_RNvMNtCs4S1xE8DPCBn_14loam_spine_api7serviceNtB2_19LoamSpineRpcService8core_mut
FN:105,_RNvMs_NtCs4S1xE8DPCBn_14loam_spine_api7serviceNtB4_19LoamSpineRpcService10seal_spine
FN:316,_RNvMs_NtCs4S1xE8DPCBn_14loam_spine_api7serviceNtB4_19LoamSpineRpcService12anchor_slice
FN:121,_RNvMs_NtCs4S1xE8DPCBn_14loam_spine_api7serviceNtB4_19LoamSpineRpcService12append_entry
FN:499,_RNvMs_NtCs4S1xE8DPCBn_14loam_spine_api7serviceNtB4_19LoamSpineRpcService12commit_braid
FN:58,_RNvMs_NtCs4S1xE8DPCBn_14loam_spine_api7serviceNtB4_19LoamSpineRpcService12create_spine
FN:417,_RNvMs_NtCs4S1xE8DPCBn_14loam_spine_api7serviceNtB4_19LoamSpineRpcService12health_check
FN:473,_RNvMs_NtCs4S1xE8DPCBn_14loam_spine_api7serviceNtB4_19LoamSpineRpcService14commit_session
FN:294,_RNvMs_NtCs4S1xE8DPCBn_14loam_spine_api7serviceNtB4_19LoamSpineRpcService15get_certificate
FN:245,_RNvMs_NtCs4S1xE8DPCBn_14loam_spine_api7serviceNtB4_19LoamSpineRpcService16loan_certificate
FN:197,_RNvMs_NtCs4S1xE8DPCBn_14loam_spine_api7serviceNtB4_19LoamSpineRpcService16mint_certificate
FN:272,_RNvMs_NtCs4S1xE8DPCBn_14loam_spine_api7serviceNtB4_19LoamSpineRpcService18return_certificate
FN:223,_RNvMs_NtCs4S1xE8DPCBn_14loam_spine_api7serviceNtB4_19LoamSpineRpcService20transfer_certificate
FN:379,_RNvMs_NtCs4S1xE8DPCBn_14loam_spine_api7serviceNtB4_19LoamSpineRpcService24generate_inclusion_proof
FN:149,_RNvMs_NtCs4S1xE8DPCBn_14loam_spine_api7serviceNtB4_19LoamSpineRpcService9get_entry
FN:86,_RNvMs_NtCs4S1xE8DPCBn_14loam_spine_api7serviceNtB4_19LoamSpineRpcService9get_spine
FN:136,_RNCNCNvMs_NtCs4S1xE8DPCBn_14loam_spine_api7serviceNtB8_19LoamSpineRpcService12append_entry00Ba_
FN:73,_RNCNCNvMs_NtCs4S1xE8DPCBn_14loam_spine_api7serviceNtB8_19LoamSpineRpcService12create_spine00Ba_
FN:41,_RNCNvMNtCs4S1xE8DPCBn_14loam_spine_api7serviceNtB4_19LoamSpineRpcService4core0B6_
FN:46,_RNCNvMNtCs4S1xE8DPCBn_14loam_spine_api7serviceNtB4_19LoamSpineRpcService8core_mut0B6_
FN:105,_RNCNvMs_NtCs4S1xE8DPCBn_14loam_spine_api7serviceNtB6_19LoamSpineRpcService10seal_spine0B8_
FN:319,_RNCNvMs_NtCs4S1xE8DPCBn_14loam_spine_api7serviceNtB6_19LoamSpineRpcService12anchor_slice0B8_
FN:124,_RNCNvMs_NtCs4S1xE8DPCBn_14loam_spine_api7serviceNtB6_19LoamSpineRpcService12append_entry0B8_
FN:502,_RNCNvMs_NtCs4S1xE8DPCBn_14loam_spine_api7serviceNtB6_19LoamSpineRpcService12commit_braid0B8_
FN:61,_RNCNvMs_NtCs4S1xE8DPCBn_14loam_spine_api7serviceNtB6_19LoamSpineRpcService12create_spine0B8_
FN:420,_RNCNvMs_NtCs4S1xE8DPCBn_14loam_spine_api7serviceNtB6_19LoamSpineRpcService12health_check0B8_
FN:476,_RNCNvMs_NtCs4S1xE8DPCBn_14loam_spine_api7serviceNtB6_19LoamSpineRpcService14commit_session0B8_
FN:297,_RNCNvMs_NtCs4S1xE8DPCBn_14loam_spine_api7serviceNtB6_19LoamSpineRpcService15get_certificate0B8_
FN:248,_RNCNvMs_NtCs4S1xE8DPCBn_14loam_spine_api7serviceNtB6_19LoamSpineRpcService16loan_certificate0B8_
FN:200,_RNCNvMs_NtCs4S1xE8DPCBn_14loam_spine_api7serviceNtB6_19LoamSpineRpcService16mint_certificate0B8_
FN:275,_RNCNvMs_NtCs4S1xE8DPCBn_14loam_spine_api7serviceNtB6_19LoamSpineRpcService18return_certificate0B8_
FN:226,_RNCNvMs_NtCs4S1xE8DPCBn_14loam_spine_api7serviceNtB6_19LoamSpineRpcService20transfer_certificate0B8_
FN:382,_RNCNvMs_NtCs4S1xE8DPCBn_14loam_spine_api7serviceNtB6_19LoamSpineRpcService24generate_inclusion_proof0B8_
FN:149,_RNCNvMs_NtCs4S1xE8DPCBn_14loam_spine_api7serviceNtB6_19LoamSpineRpcService9get_entry0B8_
FN:86,_RNCNvMs_NtCs4S1xE8DPCBn_14loam_spine_api7serviceNtB6_19LoamSpineRpcService9get_spine0B8_
FN:749,_RNvNtNtCs4S1xE8DPCBn_14loam_spine_api7service5testss_15test_seal_spine
FN:833,_RNvNtNtCs4S1xE8DPCBn_14loam_spine_api7service5testss_17test_anchor_slice
FN:787,_RNvNtNtCs4S1xE8DPCBn_14loam_spine_api7service5testss_17test_append_entry
FN:578,_RNvNtNtCs4S1xE8DPCBn_14loam_spine_api7service5testss_21test_mint_certificate
FN:540,_RNvNtNtCs4S1xE8DPCBn_14loam_spine_api7service5testss_21test_service_creation
FN:622,_RNvNtNtCs4S1xE8DPCBn_14loam_spine_api7service5testss_25test_certificate_transfer
FN:553,_RNvNtNtCs4S1xE8DPCBn_14loam_spine_api7service5testss_25test_create_and_get_spine
FN:873,_RNvNtNtCs4S1xE8DPCBn_14loam_spine_api7service5testss_29test_generate_inclusion_proof
FN:679,_RNvNtNtCs4S1xE8DPCBn_14loam_spine_api7service5testss_32test_certificate_loan_and_return
FN:175,_RNCNCNvMs_NtCs4S1xE8DPCBn_14loam_spine_api7serviceNtB8_19LoamSpineRpcService7get_tip00Ba_
FN:181,_RNCNCNvMs_NtCs4S1xE8DPCBn_14loam_spine_api7serviceNtB8_19LoamSpineRpcService7get_tip0s_0Ba_
FN:347,_RNCNvMs_NtCs4S1xE8DPCBn_14loam_spine_api7serviceNtB6_19LoamSpineRpcService14checkout_slice0B8_
FN:400,_RNCNvMs_NtCs4S1xE8DPCBn_14loam_spine_api7serviceNtB6_19LoamSpineRpcService22verify_inclusion_proof0B8_
FN:169,_RNCNvMs_NtCs4S1xE8DPCBn_14loam_spine_api7serviceNtB6_19LoamSpineRpcService7get_tip0B8_
FN:445,_RNCNvMs_NtCs4S1xE8DPCBn_14loam_spine_api7serviceNtB6_19LoamSpineRpcService8liveness0B8_
FN:457,_RNCNvMs_NtCs4S1xE8DPCBn_14loam_spine_api7serviceNtB6_19LoamSpineRpcService9readiness0B8_
FN:344,_RNvMs_NtCs4S1xE8DPCBn_14loam_spine_api7serviceNtB4_19LoamSpineRpcService14checkout_slice
FN:397,_RNvMs_NtCs4S1xE8DPCBn_14loam_spine_api7serviceNtB4_19LoamSpineRpcService22verify_inclusion_proof
FN:169,_RNvMs_NtCs4S1xE8DPCBn_14loam_spine_api7serviceNtB4_19LoamSpineRpcService7get_tip
FN:445,_RNvMs_NtCs4S1xE8DPCBn_14loam_spine_api7serviceNtB4_19LoamSpineRpcService8liveness
FN:457,_RNvMs_NtCs4S1xE8DPCBn_14loam_spine_api7serviceNtB4_19LoamSpineRpcService9readiness
FN:749,_RNCNvNtNtCs4S1xE8DPCBn_14loam_spine_api7service5testss_15test_seal_spine0B7_
FN:833,_RNCNvNtNtCs4S1xE8DPCBn_14loam_spine_api7service5testss_17test_anchor_slice0B7_
FN:787,_RNCNvNtNtCs4S1xE8DPCBn_14loam_spine_api7service5testss_17test_append_entry0B7_
FN:578,_RNCNvNtNtCs4S1xE8DPCBn_14loam_spine_api7service5testss_21test_mint_certificate0B7_
FN:540,_RNCNvNtNtCs4S1xE8DPCBn_14loam_spine_api7service5testss_21test_service_creation0B7_
FN:622,_RNCNvNtNtCs4S1xE8DPCBn_14loam_spine_api7service5testss_25test_certificate_transfer0B7_
FN:553,_RNCNvNtNtCs4S1xE8DPCBn_14loam_spine_api7service5testss_25test_create_and_get_spine0B7_
FN:873,_RNCNvNtNtCs4S1xE8DPCBn_14loam_spine_api7service5testss_29test_generate_inclusion_proof0B7_
FN:679,_RNCNvNtNtCs4S1xE8DPCBn_14loam_spine_api7service5testss_32test_certificate_loan_and_return0B7_
FNDA:13,_RNvMNtCs4SaE2cvVVUV_14loam_spine_api7serviceNtB2_19LoamSpineRpcService15default_service
FNDA:13,_RNvMNtCs4SaE2cvVVUV_14loam_spine_api7serviceNtB2_19LoamSpineRpcService3new
FNDA:9,_RNvMNtCs4SaE2cvVVUV_14loam_spine_api7serviceNtB2_19LoamSpineRpcService4core
FNDA:36,_RNvMNtCs4SaE2cvVVUV_14loam_spine_api7serviceNtB2_19LoamSpineRpcService8core_mut
FNDA:1,_RNvMs_NtCs4SaE2cvVVUV_14loam_spine_api7serviceNtB4_19LoamSpineRpcService10seal_spine
FNDA:1,_RNvMs_NtCs4SaE2cvVVUV_14loam_spine_api7serviceNtB4_19LoamSpineRpcService12anchor_slice
FNDA:5,_RNvMs_NtCs4SaE2cvVVUV_14loam_spine_api7serviceNtB4_19LoamSpineRpcService12append_entry
FNDA:1,_RNvMs_NtCs4SaE2cvVVUV_14loam_spine_api7serviceNtB4_19LoamSpineRpcService12commit_braid
FNDA:21,_RNvMs_NtCs4SaE2cvVVUV_14loam_spine_api7serviceNtB4_19LoamSpineRpcService12create_spine
FNDA:1,_RNvMs_NtCs4SaE2cvVVUV_14loam_spine_api7serviceNtB4_19LoamSpineRpcService12health_check
FNDA:1,_RNvMs_NtCs4SaE2cvVVUV_14loam_spine_api7serviceNtB4_19LoamSpineRpcService14checkout_slice
FNDA:1,_RNvMs_NtCs4SaE2cvVVUV_14loam_spine_api7serviceNtB4_19LoamSpineRpcService14commit_session
FNDA:2,_RNvMs_NtCs4SaE2cvVVUV_14loam_spine_api7serviceNtB4_19LoamSpineRpcService15get_certificate
FNDA:1,_RNvMs_NtCs4SaE2cvVVUV_14loam_spine_api7serviceNtB4_19LoamSpineRpcService16loan_certificate
FNDA:2,_RNvMs_NtCs4SaE2cvVVUV_14loam_spine_api7serviceNtB4_19LoamSpineRpcService16mint_certificate
FNDA:1,_RNvMs_NtCs4SaE2cvVVUV_14loam_spine_api7serviceNtB4_19LoamSpineRpcService18return_certificate
FNDA:1,_RNvMs_NtCs4SaE2cvVVUV_14loam_spine_api7serviceNtB4_19LoamSpineRpcService20transfer_certificate
FNDA:1,_RNvMs_NtCs4SaE2cvVVUV_14loam_spine_api7serviceNtB4_19LoamSpineRpcService22verify_inclusion_proof
FNDA:1,_RNvMs_NtCs4SaE2cvVVUV_14loam_spine_api7serviceNtB4_19LoamSpineRpcService24generate_inclusion_proof
FNDA:1,_RNvMs_NtCs4SaE2cvVVUV_14loam_spine_api7serviceNtB4_19LoamSpineRpcService7get_tip
FNDA:0,_RNvMs_NtCs4SaE2cvVVUV_14loam_spine_api7serviceNtB4_19LoamSpineRpcService8liveness
FNDA:1,_RNvMs_NtCs4SaE2cvVVUV_14loam_spine_api7serviceNtB4_19LoamSpineRpcService9get_entry
FNDA:3,_RNvMs_NtCs4SaE2cvVVUV_14loam_spine_api7serviceNtB4_19LoamSpineRpcService9get_spine
FNDA:0,_RNvMs_NtCs4SaE2cvVVUV_14loam_spine_api7serviceNtB4_19LoamSpineRpcService9readiness
FNDA:0,_RNCNCNvMs_NtCs4SaE2cvVVUV_14loam_spine_api7serviceNtB8_19LoamSpineRpcService12append_entry00Ba_
FNDA:0,_RNCNCNvMs_NtCs4SaE2cvVVUV_14loam_spine_api7serviceNtB8_19LoamSpineRpcService12create_spine00Ba_
FNDA:0,_RNCNCNvMs_NtCs4SaE2cvVVUV_14loam_spine_api7serviceNtB8_19LoamSpineRpcService7get_tip00Ba_
FNDA:0,_RNCNCNvMs_NtCs4SaE2cvVVUV_14loam_spine_api7serviceNtB8_19LoamSpineRpcService7get_tip0s_0Ba_
FNDA:9,_RNCNvMNtCs4SaE2cvVVUV_14loam_spine_api7serviceNtB4_19LoamSpineRpcService4core0B6_
FNDA:36,_RNCNvMNtCs4SaE2cvVVUV_14loam_spine_api7serviceNtB4_19LoamSpineRpcService8core_mut0B6_
FNDA:1,_RNCNvMs_NtCs4SaE2cvVVUV_14loam_spine_api7serviceNtB6_19LoamSpineRpcService10seal_spine0B8_
FNDA:1,_RNCNvMs_NtCs4SaE2cvVVUV_14loam_spine_api7serviceNtB6_19LoamSpineRpcService12anchor_slice0B8_
FNDA:5,_RNCNvMs_NtCs4SaE2cvVVUV_14loam_spine_api7serviceNtB6_19LoamSpineRpcService12append_entry0B8_
FNDA:1,_RNCNvMs_NtCs4SaE2cvVVUV_14loam_spine_api7serviceNtB6_19LoamSpineRpcService12commit_braid0B8_
FNDA:21,_RNCNvMs_NtCs4SaE2cvVVUV_14loam_spine_api7serviceNtB6_19LoamSpineRpcService12create_spine0B8_
FNDA:1,_RNCNvMs_NtCs4SaE2cvVVUV_14loam_spine_api7serviceNtB6_19LoamSpineRpcService12health_check0B8_
FNDA:1,_RNCNvMs_NtCs4SaE2cvVVUV_14loam_spine_api7serviceNtB6_19LoamSpineRpcService14checkout_slice0B8_
FNDA:1,_RNCNvMs_NtCs4SaE2cvVVUV_14loam_spine_api7serviceNtB6_19LoamSpineRpcService14commit_session0B8_
FNDA:2,_RNCNvMs_NtCs4SaE2cvVVUV_14loam_spine_api7serviceNtB6_19LoamSpineRpcService15get_certificate0B8_
FNDA:1,_RNCNvMs_NtCs4SaE2cvVVUV_14loam_spine_api7serviceNtB6_19LoamSpineRpcService16loan_certificate0B8_
FNDA:2,_RNCNvMs_NtCs4SaE2cvVVUV_14loam_spine_api7serviceNtB6_19LoamSpineRpcService16mint_certificate0B8_
FNDA:1,_RNCNvMs_NtCs4SaE2cvVVUV_14loam_spine_api7serviceNtB6_19LoamSpineRpcService18return_certificate0B8_
FNDA:1,_RNCNvMs_NtCs4SaE2cvVVUV_14loam_spine_api7serviceNtB6_19LoamSpineRpcService20transfer_certificate0B8_
FNDA:1,_RNCNvMs_NtCs4SaE2cvVVUV_14loam_spine_api7serviceNtB6_19LoamSpineRpcService22verify_inclusion_proof0B8_
FNDA:1,_RNCNvMs_NtCs4SaE2cvVVUV_14loam_spine_api7serviceNtB6_19LoamSpineRpcService24generate_inclusion_proof0B8_
FNDA:1,_RNCNvMs_NtCs4SaE2cvVVUV_14loam_spine_api7serviceNtB6_19LoamSpineRpcService7get_tip0B8_
FNDA:0,_RNCNvMs_NtCs4SaE2cvVVUV_14loam_spine_api7serviceNtB6_19LoamSpineRpcService8liveness0B8_
FNDA:1,_RNCNvMs_NtCs4SaE2cvVVUV_14loam_spine_api7serviceNtB6_19LoamSpineRpcService9get_entry0B8_
FNDA:3,_RNCNvMs_NtCs4SaE2cvVVUV_14loam_spine_api7serviceNtB6_19LoamSpineRpcService9get_spine0B8_
FNDA:0,_RNCNvMs_NtCs4SaE2cvVVUV_14loam_spine_api7serviceNtB6_19LoamSpineRpcService9readiness0B8_
FNDA:28,_RNvMNtCs4S1xE8DPCBn_14loam_spine_api7serviceNtB2_19LoamSpineRpcService15default_service
FNDA:28,_RNvMNtCs4S1xE8DPCBn_14loam_spine_api7serviceNtB2_19LoamSpineRpcService3new
FNDA:12,_RNvMNtCs4S1xE8DPCBn_14loam_spine_api7serviceNtB2_19LoamSpineRpcService4core
FNDA:38,_RNvMNtCs4S1xE8DPCBn_14loam_spine_api7serviceNtB2_19LoamSpineRpcService8core_mut
FNDA:4,_RNvMs_NtCs4S1xE8DPCBn_14loam_spine_api7serviceNtB4_19LoamSpineRpcService10seal_spine
FNDA:1,_RNvMs_NtCs4S1xE8DPCBn_14loam_spine_api7serviceNtB4_19LoamSpineRpcService12anchor_slice
FNDA:3,_RNvMs_NtCs4S1xE8DPCBn_14loam_spine_api7serviceNtB4_19LoamSpineRpcService12append_entry
FNDA:1,_RNvMs_NtCs4S1xE8DPCBn_14loam_spine_api7serviceNtB4_19LoamSpineRpcService12commit_braid
FNDA:19,_RNvMs_NtCs4S1xE8DPCBn_14loam_spine_api7serviceNtB4_19LoamSpineRpcService12create_spine
FNDA:3,_RNvMs_NtCs4S1xE8DPCBn_14loam_spine_api7serviceNtB4_19LoamSpineRpcService12health_check
FNDA:2,_RNvMs_NtCs4S1xE8DPCBn_14loam_spine_api7serviceNtB4_19LoamSpineRpcService14commit_session
FNDA:4,_RNvMs_NtCs4S1xE8DPCBn_14loam_spine_api7serviceNtB4_19LoamSpineRpcService15get_certificate
FNDA:1,_RNvMs_NtCs4S1xE8DPCBn_14loam_spine_api7serviceNtB4_19LoamSpineRpcService16loan_certificate
FNDA:5,_RNvMs_NtCs4S1xE8DPCBn_14loam_spine_api7serviceNtB4_19LoamSpineRpcService16mint_certificate
FNDA:1,_RNvMs_NtCs4S1xE8DPCBn_14loam_spine_api7serviceNtB4_19LoamSpineRpcService18return_certificate
FNDA:1,_RNvMs_NtCs4S1xE8DPCBn_14loam_spine_api7serviceNtB4_19LoamSpineRpcService20transfer_certificate
FNDA:1,_RNvMs_NtCs4S1xE8DPCBn_14loam_spine_api7serviceNtB4_19LoamSpineRpcService24generate_inclusion_proof
FNDA:1,_RNvMs_NtCs4S1xE8DPCBn_14loam_spine_api7serviceNtB4_19LoamSpineRpcService9get_entry
FNDA:3,_RNvMs_NtCs4S1xE8DPCBn_14loam_spine_api7serviceNtB4_19LoamSpineRpcService9get_spine
FNDA:0,_RNCNCNvMs_NtCs4S1xE8DPCBn_14loam_spine_api7serviceNtB8_19LoamSpineRpcService12append_entry00Ba_
FNDA:0,_RNCNCNvMs_NtCs4S1xE8DPCBn_14loam_spine_api7serviceNtB8_19LoamSpineRpcService12create_spine00Ba_
FNDA:12,_RNCNvMNtCs4S1xE8DPCBn_14loam_spine_api7serviceNtB4_19LoamSpineRpcService4core0B6_
FNDA:38,_RNCNvMNtCs4S1xE8DPCBn_14loam_spine_api7serviceNtB4_19LoamSpineRpcService8core_mut0B6_
FNDA:4,_RNCNvMs_NtCs4S1xE8DPCBn_14loam_spine_api7serviceNtB6_19LoamSpineRpcService10seal_spine0B8_
FNDA:1,_RNCNvMs_NtCs4S1xE8DPCBn_14loam_spine_api7serviceNtB6_19LoamSpineRpcService12anchor_slice0B8_
FNDA:3,_RNCNvMs_NtCs4S1xE8DPCBn_14loam_spine_api7serviceNtB6_19LoamSpineRpcService12append_entry0B8_
FNDA:1,_RNCNvMs_NtCs4S1xE8DPCBn_14loam_spine_api7serviceNtB6_19LoamSpineRpcService12commit_braid0B8_
FNDA:19,_RNCNvMs_NtCs4S1xE8DPCBn_14loam_spine_api7serviceNtB6_19LoamSpineRpcService12create_spine0B8_
FNDA:3,_RNCNvMs_NtCs4S1xE8DPCBn_14loam_spine_api7serviceNtB6_19LoamSpineRpcService12health_check0B8_
FNDA:2,_RNCNvMs_NtCs4S1xE8DPCBn_14loam_spine_api7serviceNtB6_19LoamSpineRpcService14commit_session0B8_
FNDA:4,_RNCNvMs_NtCs4S1xE8DPCBn_14loam_spine_api7serviceNtB6_19LoamSpineRpcService15get_certificate0B8_
FNDA:1,_RNCNvMs_NtCs4S1xE8DPCBn_14loam_spine_api7serviceNtB6_19LoamSpineRpcService16loan_certificate0B8_
FNDA:5,_RNCNvMs_NtCs4S1xE8DPCBn_14loam_spine_api7serviceNtB6_19LoamSpineRpcService16mint_certificate0B8_
FNDA:1,_RNCNvMs_NtCs4S1xE8DPCBn_14loam_spine_api7serviceNtB6_19LoamSpineRpcService18return_certificate0B8_
FNDA:1,_RNCNvMs_NtCs4S1xE8DPCBn_14loam_spine_api7serviceNtB6_19LoamSpineRpcService20transfer_certificate0B8_
FNDA:1,_RNCNvMs_NtCs4S1xE8DPCBn_14loam_spine_api7serviceNtB6_19LoamSpineRpcService24generate_inclusion_proof0B8_
FNDA:1,_RNCNvMs_NtCs4S1xE8DPCBn_14loam_spine_api7serviceNtB6_19LoamSpineRpcService9get_entry0B8_
FNDA:3,_RNCNvMs_NtCs4S1xE8DPCBn_14loam_spine_api7serviceNtB6_19LoamSpineRpcService9get_spine0B8_
FNDA:1,_RNvNtNtCs4S1xE8DPCBn_14loam_spine_api7service5testss_15test_seal_spine
FNDA:1,_RNvNtNtCs4S1xE8DPCBn_14loam_spine_api7service5testss_17test_anchor_slice
FNDA:1,_RNvNtNtCs4S1xE8DPCBn_14loam_spine_api7service5testss_17test_append_entry
FNDA:1,_RNvNtNtCs4S1xE8DPCBn_14loam_spine_api7service5testss_21test_mint_certificate
FNDA:1,_RNvNtNtCs4S1xE8DPCBn_14loam_spine_api7service5testss_21test_service_creation
FNDA:1,_RNvNtNtCs4S1xE8DPCBn_14loam_spine_api7service5testss_25test_certificate_transfer
FNDA:1,_RNvNtNtCs4S1xE8DPCBn_14loam_spine_api7service5testss_25test_create_and_get_spine
FNDA:1,_RNvNtNtCs4S1xE8DPCBn_14loam_spine_api7service5testss_29test_generate_inclusion_proof
FNDA:1,_RNvNtNtCs4S1xE8DPCBn_14loam_spine_api7service5testss_32test_certificate_loan_and_return
FNDA:0,_RNCNCNvMs_NtCs4S1xE8DPCBn_14loam_spine_api7serviceNtB8_19LoamSpineRpcService7get_tip00Ba_
FNDA:0,_RNCNCNvMs_NtCs4S1xE8DPCBn_14loam_spine_api7serviceNtB8_19LoamSpineRpcService7get_tip0s_0Ba_
FNDA:0,_RNCNvMs_NtCs4S1xE8DPCBn_14loam_spine_api7serviceNtB6_19LoamSpineRpcService14checkout_slice0B8_
FNDA:0,_RNCNvMs_NtCs4S1xE8DPCBn_14loam_spine_api7serviceNtB6_19LoamSpineRpcService22verify_inclusion_proof0B8_
FNDA:0,_RNCNvMs_NtCs4S1xE8DPCBn_14loam_spine_api7serviceNtB6_19LoamSpineRpcService7get_tip0B8_
FNDA:0,_RNCNvMs_NtCs4S1xE8DPCBn_14loam_spine_api7serviceNtB6_19LoamSpineRpcService8liveness0B8_
FNDA:0,_RNCNvMs_NtCs4S1xE8DPCBn_14loam_spine_api7serviceNtB6_19LoamSpineRpcService9readiness0B8_
FNDA:0,_RNvMs_NtCs4S1xE8DPCBn_14loam_spine_api7serviceNtB4_19LoamSpineRpcService14checkout_slice
FNDA:0,_RNvMs_NtCs4S1xE8DPCBn_14loam_spine_api7serviceNtB4_19LoamSpineRpcService22verify_inclusion_proof
FNDA:0,_RNvMs_NtCs4S1xE8DPCBn_14loam_spine_api7serviceNtB4_19LoamSpineRpcService7get_tip
FNDA:0,_RNvMs_NtCs4S1xE8DPCBn_14loam_spine_api7serviceNtB4_19LoamSpineRpcService8liveness
FNDA:0,_RNvMs_NtCs4S1xE8DPCBn_14loam_spine_api7serviceNtB4_19LoamSpineRpcService9readiness
FNDA:1,_RNCNvNtNtCs4S1xE8DPCBn_14loam_spine_api7service5testss_15test_seal_spine0B7_
FNDA:1,_RNCNvNtNtCs4S1xE8DPCBn_14loam_spine_api7service5testss_17test_anchor_slice0B7_
FNDA:1,_RNCNvNtNtCs4S1xE8DPCBn_14loam_spine_api7service5testss_17test_append_entry0B7_
FNDA:1,_RNCNvNtNtCs4S1xE8DPCBn_14loam_spine_api7service5testss_21test_mint_certificate0B7_
FNDA:1,_RNCNvNtNtCs4S1xE8DPCBn_14loam_spine_api7service5testss_21test_service_creation0B7_
FNDA:1,_RNCNvNtNtCs4S1xE8DPCBn_14loam_spine_api7service5testss_25test_certificate_transfer0B7_
FNDA:1,_RNCNvNtNtCs4S1xE8DPCBn_14loam_spine_api7service5testss_25test_create_and_get_spine0B7_
FNDA:1,_RNCNvNtNtCs4S1xE8DPCBn_14loam_spine_api7service5testss_29test_generate_inclusion_proof0B7_
FNDA:1,_RNCNvNtNtCs4S1xE8DPCBn_14loam_spine_api7service5testss_32test_certificate_loan_and_return0B7_
FNF:68
FNH:60
DA:28,41
DA:29,41
DA:30,41
DA:31,41
DA:32,41
DA:36,41
DA:37,41
DA:38,41
DA:41,21
DA:42,21
DA:43,21
DA:46,74
DA:47,74
DA:48,74
DA:58,40
DA:59,40
DA:60,40
DA:61,40
DA:62,40
DA:63,40
DA:64,40
DA:65,40
DA:66,40
DA:69,40
DA:70,40
DA:71,40
DA:72,40
DA:73,40
DA:75,40
DA:76,40
DA:77,40
DA:78,40
DA:79,40
DA:86,6
DA:87,6
DA:88,6
DA:89,3
DA:90,3
DA:91,3
DA:92,3
DA:93,3
DA:94,3
DA:95,3
DA:96,3
DA:98,6
DA:105,5
DA:106,5
DA:107,5
DA:108,4
DA:109,4
DA:110,4
DA:111,4
DA:112,1
DA:114,5
DA:121,8
DA:122,8
DA:123,8
DA:124,8
DA:125,8
DA:126,8
DA:127,8
DA:128,8
DA:129,8
DA:132,8
DA:133,8
DA:134,8
DA:135,8
DA:136,8
DA:138,8
DA:139,8
DA:140,8
DA:141,8
DA:142,8
DA:149,2
DA:150,2
DA:152,2
DA:153,2
DA:154,2
DA:155,2
DA:156,2
DA:157,0
DA:158,0
DA:159,0
DA:160,0
DA:162,2
DA:169,1
DA:170,1
DA:171,1
DA:172,1
DA:173,1
DA:174,1
DA:175,1
DA:177,1
DA:178,1
DA:179,1
DA:180,1
DA:181,1
DA:183,1
DA:184,1
DA:185,1
DA:186,1
DA:187,1
DA:188,1
DA:189,1
DA:190,1
DA:197,7
DA:198,7
DA:199,7
DA:200,7
DA:201,7
DA:202,7
DA:203,7
DA:204,7
DA:205,7
DA:206,7
DA:207,7
DA:208,7
DA:209,7
DA:210,7
DA:212,7
DA:213,7
DA:214,7
DA:215,7
DA:216,7
DA:223,2
DA:224,2
DA:225,2
DA:226,2
DA:227,2
DA:228,2
DA:229,2
DA:230,2
DA:232,2
DA:233,2
DA:234,2
DA:235,2
DA:236,0
DA:238,2
DA:245,2
DA:246,2
DA:247,2
DA:248,2
DA:249,2
DA:250,2
DA:251,2
DA:252,2
DA:253,2
DA:254,2
DA:255,2
DA:256,2
DA:257,2
DA:259,2
DA:260,2
DA:261,2
DA:262,2
DA:263,0
DA:265,2
DA:272,2
DA:273,2
DA:274,2
DA:275,2
DA:276,2
DA:277,2
DA:278,2
DA:279,2
DA:281,2
DA:282,2
DA:283,2
DA:284,2
DA:285,0
DA:287,2
DA:294,6
DA:295,6
DA:296,6
DA:297,6
DA:298,6
DA:299,6
DA:300,6
DA:301,6
DA:302,6
DA:303,6
DA:304,0
DA:305,0
DA:306,0
DA:307,0
DA:309,6
DA:316,2
DA:317,2
DA:318,2
DA:319,2
DA:320,2
DA:324,2
DA:326,2
DA:327,2
DA:328,2
DA:329,2
DA:330,2
DA:331,2
DA:332,2
DA:333,2
DA:334,2
DA:336,2
DA:337,2
DA:344,1
DA:345,1
DA:346,1
DA:347,1
DA:348,1
DA:351,1
DA:352,1
DA:353,1
DA:354,1
DA:355,1
DA:356,1
DA:357,1
DA:358,1
DA:359,1
DA:360,1
DA:361,1
DA:362,1
DA:363,1
DA:364,1
DA:366,0
DA:367,0
DA:368,0
DA:369,0
DA:370,1
DA:372,1
DA:379,2
DA:380,2
DA:381,2
DA:382,2
DA:383,2
DA:384,2
DA:385,2
DA:386,2
DA:387,2
DA:389,2
DA:390,2
DA:397,1
DA:398,1
DA:399,1
DA:400,1
DA:401,1
DA:402,1
DA:403,1
DA:404,1
DA:405,1
DA:407,0
DA:410,1
DA:417,4
DA:418,4
DA:419,4
DA:420,4
DA:421,4
DA:422,4
DA:423,4
DA:425,4
DA:426,2
DA:427,2
DA:428,2
DA:429,2
DA:430,2
DA:431,2
DA:432,2
DA:433,2
DA:434,2
DA:436,2
DA:439,4
DA:440,4
DA:445,0
DA:446,0
DA:447,0
DA:448,0
DA:457,0
DA:459,0
DA:462,0
DA:463,0
DA:464,0
DA:465,0
DA:466,0
DA:473,3
DA:474,3
DA:475,3
DA:476,3
DA:477,3
DA:480,3
DA:481,3
DA:483,3
DA:484,3
DA:485,3
DA:486,3
DA:488,3
DA:489,3
DA:490,3
DA:491,3
DA:492,3
DA:499,2
DA:500,2
DA:501,2
DA:502,2
DA:503,2
DA:507,2
DA:508,2
DA:509,2
DA:510,2
DA:511,2
DA:512,2
DA:515,3
DA:516,1
DA:517,1
DA:519,2
DA:520,2
DA:521,2
DA:522,2
DA:526,2
DA:527,2
DA:528,2
DA:529,2
DA:530,2
DA:540,1
DA:541,1
DA:542,1
DA:543,1
DA:544,1
DA:545,1
DA:546,1
DA:547,1
DA:548,1
DA:549,1
DA:550,1
DA:553,1
DA:554,1
DA:555,1
DA:556,1
DA:557,1
DA:558,1
DA:559,1
DA:560,1
DA:561,1
DA:562,1
DA:563,1
DA:564,1
DA:565,1
DA:566,1
DA:567,1
DA:568,1
DA:569,1
DA:570,1
DA:571,1
DA:572,1
DA:573,1
DA:574,1
DA:575,1
DA:578,1
DA:579,1
DA:580,1
DA:581,1
DA:582,1
DA:583,1
DA:584,1
DA:585,1
DA:586,1
DA:587,1
DA:588,1
DA:589,1
DA:590,1
DA:591,1
DA:592,1
DA:593,1
DA:594,1
DA:595,1
DA:596,1
DA:597,1
DA:598,1
DA:599,1
DA:600,1
DA:601,1
DA:602,1
DA:603,1
DA:604,1
DA:605,1
DA:606,1
DA:607,1
DA:608,1
DA:609,1
DA:610,1
DA:611,1
DA:612,1
DA:613,1
DA:614,1
DA:615,1
DA:616,1
DA:617,1
DA:618,1
DA:619,1
DA:622,1
DA:623,1
DA:624,1
DA:625,1
DA:626,1
DA:627,1
DA:628,1
DA:629,1
DA:630,1
DA:631,1
DA:632,1
DA:633,1
DA:634,1
DA:635,1
DA:636,1
DA:637,1
DA:638,1
DA:639,1
DA:640,1
DA:641,1
DA:642,1
DA:643,1
DA:644,1
DA:645,1
DA:646,1
DA:647,1
DA:648,1
DA:649,1
DA:650,1
DA:651,1
DA:652,1
DA:653,1
DA:654,1
DA:655,1
DA:656,1
DA:657,1
DA:658,1
DA:659,1
DA:660,1
DA:661,1
DA:662,1
DA:663,1
DA:664,1
DA:665,1
DA:666,1
DA:667,1
DA:668,1
DA:669,1
DA:670,1
DA:671,1
DA:672,1
DA:673,1
DA:674,1
DA:675,1
DA:676,1
DA:679,1
DA:680,1
DA:681,1
DA:682,1
DA:683,1
DA:684,1
DA:685,1
DA:686,1
DA:687,1
DA:688,1
DA:689,1
DA:690,1
DA:691,1
DA:692,1
DA:693,1
DA:694,1
DA:695,1
DA:696,1
DA:697,1
DA:698,1
DA:699,1
DA:700,1
DA:701,1
DA:702,1
DA:703,1
DA:704,1
DA:705,1
DA:706,1
DA:707,1
DA:708,1
DA:709,1
DA:710,1
DA:711,1
DA:712,1
DA:713,1
DA:714,1
DA:715,1
DA:716,1
DA:717,1
DA:718,1
DA:719,1
DA:720,1
DA:721,1
DA:722,1
DA:723,1
DA:724,1
DA:725,1
DA:726,1
DA:727,1
DA:728,1
DA:729,1
DA:730,1
DA:731,1
DA:732,1
DA:733,1
DA:734,1
DA:735,1
DA:736,1
DA:737,1
DA:738,1
DA:739,1
DA:740,1
DA:741,1
DA:742,1
DA:743,1
DA:744,1
DA:745,1
DA:746,1
DA:749,1
DA:750,1
DA:751,1
DA:752,1
DA:753,1
DA:754,1
DA:755,1
DA:756,1
DA:757,1
DA:758,1
DA:759,1
DA:760,1
DA:761,1
DA:762,1
DA:763,1
DA:764,1
DA:765,1
DA:766,1
DA:767,1
DA:768,1
DA:769,1
DA:770,1
DA:771,1
DA:772,1
DA:773,1
DA:774,1
DA:775,1
DA:776,1
DA:777,1
DA:778,1
DA:779,1
DA:780,1
DA:781,1
DA:782,1
DA:783,1
DA:784,1
DA:787,1
DA:788,1
DA:789,1
DA:790,1
DA:791,1
DA:792,1
DA:793,1
DA:794,1
DA:795,1
DA:796,1
DA:797,1
DA:798,1
DA:799,1
DA:800,1
DA:801,1
DA:802,1
DA:803,1
DA:804,1
DA:805,1
DA:806,1
DA:807,1
DA:808,1
DA:809,1
DA:810,1
DA:811,1
DA:812,1
DA:813,1
DA:814,1
DA:815,1
DA:816,1
DA:817,1
DA:818,1
DA:819,1
DA:820,1
DA:821,1
DA:822,1
DA:823,1
DA:824,1
DA:825,1
DA:826,1
DA:827,1
DA:828,1
DA:829,1
DA:830,1
DA:833,1
DA:834,1
DA:835,1
DA:836,1
DA:837,1
DA:838,1
DA:839,1
DA:840,1
DA:841,1
DA:842,1
DA:843,1
DA:844,1
DA:845,1
DA:846,1
DA:847,1
DA:848,1
DA:849,1
DA:850,1
DA:851,1
DA:852,1
DA:853,1
DA:854,1
DA:855,1
DA:856,1
DA:857,1
DA:858,1
DA:859,1
DA:860,1
DA:861,1
DA:862,1
DA:863,1
DA:864,1
DA:865,1
DA:866,1
DA:867,1
DA:868,1
DA:869,1
DA:870,1
DA:873,1
DA:874,1
DA:875,1
DA:876,1
DA:877,1
DA:878,1
DA:879,1
DA:880,1
DA:881,1
DA:882,1
DA:883,1
DA:884,1
DA:885,1
DA:886,1
DA:887,1
DA:888,1
DA:889,1
DA:890,1
DA:891,1
DA:892,1
DA:893,1
DA:894,1
DA:895,1
DA:896,1
DA:897,1
DA:898,1
DA:899,1
DA:900,1
DA:901,1
DA:902,1
DA:903,1
DA:904,1
DA:905,1
DA:906,1
DA:907,1
DA:908,1
DA:909,1
DA:910,1
DA:911,1
DA:912,1
DA:913,1
DA:914,1
BRF:0
BRH:0
LF:1008
LH:975
end_of_record
SF:/path/to/ecoPrimals/phase2/loamSpine/crates/loam-spine-api/src/tarpc_server.rs
FN:206,_RNCNCNCNvNtCs4SaE2cvVVUV_14loam_spine_api12tarpc_server16run_tarpc_server000B9_
FN:231,_RNCNCNCNvNtCs4SaE2cvVVUV_14loam_spine_api12tarpc_server16run_tarpc_server0s1_00B9_
FN:219,_RNCNCNCNvNtCs4SaE2cvVVUV_14loam_spine_api12tarpc_server16run_tarpc_server0s_00B9_
FN:220,_RNCNCNCNvNtCs4SaE2cvVVUV_14loam_spine_api12tarpc_server16run_tarpc_server0s_0s_0B9_
FN:214,_RNCNCNvNtCs4SaE2cvVVUV_14loam_spine_api12tarpc_server16run_tarpc_server00B7_
FN:223,_RNCNCNvNtCs4SaE2cvVVUV_14loam_spine_api12tarpc_server16run_tarpc_server0s0_0B7_
FN:231,_RNCNCNvNtCs4SaE2cvVVUV_14loam_spine_api12tarpc_server16run_tarpc_server0s1_0B7_
FN:217,_RNCNCNvNtCs4SaE2cvVVUV_14loam_spine_api12tarpc_server16run_tarpc_server0s_0B7_
FN:199,_RNCNvNtCs4SaE2cvVVUV_14loam_spine_api12tarpc_server16run_tarpc_server0B5_
FN:66,_RNCNvXs_NtCs4SaE2cvVVUV_14loam_spine_api12tarpc_serverNtB6_20LoamSpineTarpcServerNtNtB8_3rpc12LoamSpineRpc10seal_spine0B8_
FN:138,_RNCNvXs_NtCs4SaE2cvVVUV_14loam_spine_api12tarpc_serverNtB6_20LoamSpineTarpcServerNtNtB8_3rpc12LoamSpineRpc12anchor_slice0B8_
FN:74,_RNCNvXs_NtCs4SaE2cvVVUV_14loam_spine_api12tarpc_serverNtB6_20LoamSpineTarpcServerNtNtB8_3rpc12LoamSpineRpc12append_entry0B8_
FN:186,_RNCNvXs_NtCs4SaE2cvVVUV_14loam_spine_api12tarpc_serverNtB6_20LoamSpineTarpcServerNtNtB8_3rpc12LoamSpineRpc12commit_braid0B8_
FN:50,_RNCNvXs_NtCs4SaE2cvVVUV_14loam_spine_api12tarpc_serverNtB6_20LoamSpineTarpcServerNtNtB8_3rpc12LoamSpineRpc12create_spine0B8_
FN:170,_RNCNvXs_NtCs4SaE2cvVVUV_14loam_spine_api12tarpc_serverNtB6_20LoamSpineTarpcServerNtNtB8_3rpc12LoamSpineRpc12health_check0B8_
FN:146,_RNCNvXs_NtCs4SaE2cvVVUV_14loam_spine_api12tarpc_serverNtB6_20LoamSpineTarpcServerNtNtB8_3rpc12LoamSpineRpc14checkout_slice0B8_
FN:178,_RNCNvXs_NtCs4SaE2cvVVUV_14loam_spine_api12tarpc_serverNtB6_20LoamSpineTarpcServerNtNtB8_3rpc12LoamSpineRpc14commit_session0B8_
FN:130,_RNCNvXs_NtCs4SaE2cvVVUV_14loam_spine_api12tarpc_serverNtB6_20LoamSpineTarpcServerNtNtB8_3rpc12LoamSpineRpc15get_certificate0B8_
FN:114,_RNCNvXs_NtCs4SaE2cvVVUV_14loam_spine_api12tarpc_serverNtB6_20LoamSpineTarpcServerNtNtB8_3rpc12LoamSpineRpc16loan_certificate0B8_
FN:98,_RNCNvXs_NtCs4SaE2cvVVUV_14loam_spine_api12tarpc_serverNtB6_20LoamSpineTarpcServerNtNtB8_3rpc12LoamSpineRpc16mint_certificate0B8_
FN:122,_RNCNvXs_NtCs4SaE2cvVVUV_14loam_spine_api12tarpc_serverNtB6_20LoamSpineTarpcServerNtNtB8_3rpc12LoamSpineRpc18return_certificate0B8_
FN:106,_RNCNvXs_NtCs4SaE2cvVVUV_14loam_spine_api12tarpc_serverNtB6_20LoamSpineTarpcServerNtNtB8_3rpc12LoamSpineRpc20transfer_certificate0B8_
FN:162,_RNCNvXs_NtCs4SaE2cvVVUV_14loam_spine_api12tarpc_serverNtB6_20LoamSpineTarpcServerNtNtB8_3rpc12LoamSpineRpc22verify_inclusion_proof0B8_
FN:154,_RNCNvXs_NtCs4SaE2cvVVUV_14loam_spine_api12tarpc_serverNtB6_20LoamSpineTarpcServerNtNtB8_3rpc12LoamSpineRpc24generate_inclusion_proof0B8_
FN:90,_RNCNvXs_NtCs4SaE2cvVVUV_14loam_spine_api12tarpc_serverNtB6_20LoamSpineTarpcServerNtNtB8_3rpc12LoamSpineRpc7get_tip0B8_
FN:82,_RNCNvXs_NtCs4SaE2cvVVUV_14loam_spine_api12tarpc_serverNtB6_20LoamSpineTarpcServerNtNtB8_3rpc12LoamSpineRpc9get_entry0B8_
FN:58,_RNCNvXs_NtCs4SaE2cvVVUV_14loam_spine_api12tarpc_serverNtB6_20LoamSpineTarpcServerNtNtB8_3rpc12LoamSpineRpc9get_spine0B8_
FN:257,_RNvNtNtCs4S1xE8DPCBn_14loam_spine_api12tarpc_server5testss_17test_server_clone
FN:243,_RNvNtNtCs4S1xE8DPCBn_14loam_spine_api12tarpc_server5testss_20test_server_creation
FN:313,_RNvNtNtCs4S1xE8DPCBn_14loam_spine_api12tarpc_server5testss_21test_tarpc_seal_spine
FN:339,_RNvNtNtCs4S1xE8DPCBn_14loam_spine_api12tarpc_server5testss_23test_tarpc_append_entry
FN:432,_RNvNtNtCs4S1xE8DPCBn_14loam_spine_api12tarpc_server5testss_23test_tarpc_commit_braid
FN:281,_RNvNtNtCs4S1xE8DPCBn_14loam_spine_api12tarpc_server5testss_23test_tarpc_create_spine
FN:266,_RNvNtNtCs4S1xE8DPCBn_14loam_spine_api12tarpc_server5testss_23test_tarpc_health_check
FN:248,_RNvNtNtCs4S1xE8DPCBn_14loam_spine_api12tarpc_server5testss_24test_server_with_service
FN:403,_RNvNtNtCs4S1xE8DPCBn_14loam_spine_api12tarpc_server5testss_25test_tarpc_commit_session
FN:371,_RNvNtNtCs4S1xE8DPCBn_14loam_spine_api12tarpc_server5testss_27test_tarpc_mint_certificate
FN:298,_RNvNtNtCs4S1xE8DPCBn_14loam_spine_api12tarpc_server5testss_32test_tarpc_get_nonexistent_spine
FN:39,_RNvMNtCs4S1xE8DPCBn_14loam_spine_api12tarpc_serverNtB2_20LoamSpineTarpcServer14default_server
FN:31,_RNvMNtCs4S1xE8DPCBn_14loam_spine_api12tarpc_serverNtB2_20LoamSpineTarpcServer3new
FN:62,_RNvXs_NtCs4S1xE8DPCBn_14loam_spine_api12tarpc_serverNtB4_20LoamSpineTarpcServerNtNtB6_3rpc12LoamSpineRpc10seal_spine
FN:70,_RNvXs_NtCs4S1xE8DPCBn_14loam_spine_api12tarpc_serverNtB4_20LoamSpineTarpcServerNtNtB6_3rpc12LoamSpineRpc12append_entry
FN:182,_RNvXs_NtCs4S1xE8DPCBn_14loam_spine_api12tarpc_serverNtB4_20LoamSpineTarpcServerNtNtB6_3rpc12LoamSpineRpc12commit_braid
FN:46,_RNvXs_NtCs4S1xE8DPCBn_14loam_spine_api12tarpc_serverNtB4_20LoamSpineTarpcServerNtNtB6_3rpc12LoamSpineRpc12create_spine
FN:166,_RNvXs_NtCs4S1xE8DPCBn_14loam_spine_api12tarpc_serverNtB4_20LoamSpineTarpcServerNtNtB6_3rpc12LoamSpineRpc12health_check
FN:174,_RNvXs_NtCs4S1xE8DPCBn_14loam_spine_api12tarpc_serverNtB4_20LoamSpineTarpcServerNtNtB6_3rpc12LoamSpineRpc14commit_session
FN:94,_RNvXs_NtCs4S1xE8DPCBn_14loam_spine_api12tarpc_serverNtB4_20LoamSpineTarpcServerNtNtB6_3rpc12LoamSpineRpc16mint_certificate
FN:54,_RNvXs_NtCs4S1xE8DPCBn_14loam_spine_api12tarpc_serverNtB4_20LoamSpineTarpcServerNtNtB6_3rpc12LoamSpineRpc9get_spine
FN:206,_RNCNCNCNvNtCs4S1xE8DPCBn_14loam_spine_api12tarpc_server16run_tarpc_server000B9_
FN:231,_RNCNCNCNvNtCs4S1xE8DPCBn_14loam_spine_api12tarpc_server16run_tarpc_server0s1_00B9_
FN:219,_RNCNCNCNvNtCs4S1xE8DPCBn_14loam_spine_api12tarpc_server16run_tarpc_server0s_00B9_
FN:220,_RNCNCNCNvNtCs4S1xE8DPCBn_14loam_spine_api12tarpc_server16run_tarpc_server0s_0s_0B9_
FN:214,_RNCNCNvNtCs4S1xE8DPCBn_14loam_spine_api12tarpc_server16run_tarpc_server00B7_
FN:223,_RNCNCNvNtCs4S1xE8DPCBn_14loam_spine_api12tarpc_server16run_tarpc_server0s0_0B7_
FN:231,_RNCNCNvNtCs4S1xE8DPCBn_14loam_spine_api12tarpc_server16run_tarpc_server0s1_0B7_
FN:217,_RNCNCNvNtCs4S1xE8DPCBn_14loam_spine_api12tarpc_server16run_tarpc_server0s_0B7_
FN:199,_RNCNvNtCs4S1xE8DPCBn_14loam_spine_api12tarpc_server16run_tarpc_server0B5_
FN:138,_RNCNvXs_NtCs4S1xE8DPCBn_14loam_spine_api12tarpc_serverNtB6_20LoamSpineTarpcServerNtNtB8_3rpc12LoamSpineRpc12anchor_slice0B8_
FN:146,_RNCNvXs_NtCs4S1xE8DPCBn_14loam_spine_api12tarpc_serverNtB6_20LoamSpineTarpcServerNtNtB8_3rpc12LoamSpineRpc14checkout_slice0B8_
FN:130,_RNCNvXs_NtCs4S1xE8DPCBn_14loam_spine_api12tarpc_serverNtB6_20LoamSpineTarpcServerNtNtB8_3rpc12LoamSpineRpc15get_certificate0B8_
FN:114,_RNCNvXs_NtCs4S1xE8DPCBn_14loam_spine_api12tarpc_serverNtB6_20LoamSpineTarpcServerNtNtB8_3rpc12LoamSpineRpc16loan_certificate0B8_
FN:122,_RNCNvXs_NtCs4S1xE8DPCBn_14loam_spine_api12tarpc_serverNtB6_20LoamSpineTarpcServerNtNtB8_3rpc12LoamSpineRpc18return_certificate0B8_
FN:106,_RNCNvXs_NtCs4S1xE8DPCBn_14loam_spine_api12tarpc_serverNtB6_20LoamSpineTarpcServerNtNtB8_3rpc12LoamSpineRpc20transfer_certificate0B8_
FN:162,_RNCNvXs_NtCs4S1xE8DPCBn_14loam_spine_api12tarpc_serverNtB6_20LoamSpineTarpcServerNtNtB8_3rpc12LoamSpineRpc22verify_inclusion_proof0B8_
FN:154,_RNCNvXs_NtCs4S1xE8DPCBn_14loam_spine_api12tarpc_serverNtB6_20LoamSpineTarpcServerNtNtB8_3rpc12LoamSpineRpc24generate_inclusion_proof0B8_
FN:90,_RNCNvXs_NtCs4S1xE8DPCBn_14loam_spine_api12tarpc_serverNtB6_20LoamSpineTarpcServerNtNtB8_3rpc12LoamSpineRpc7get_tip0B8_
FN:82,_RNCNvXs_NtCs4S1xE8DPCBn_14loam_spine_api12tarpc_serverNtB6_20LoamSpineTarpcServerNtNtB8_3rpc12LoamSpineRpc9get_entry0B8_
FN:196,_RNvNtCs4S1xE8DPCBn_14loam_spine_api12tarpc_server16run_tarpc_server
FN:134,_RNvXs_NtCs4S1xE8DPCBn_14loam_spine_api12tarpc_serverNtB4_20LoamSpineTarpcServerNtNtB6_3rpc12LoamSpineRpc12anchor_slice
FN:142,_RNvXs_NtCs4S1xE8DPCBn_14loam_spine_api12tarpc_serverNtB4_20LoamSpineTarpcServerNtNtB6_3rpc12LoamSpineRpc14checkout_slice
FN:126,_RNvXs_NtCs4S1xE8DPCBn_14loam_spine_api12tarpc_serverNtB4_20LoamSpineTarpcServerNtNtB6_3rpc12LoamSpineRpc15get_certificate
FN:110,_RNvXs_NtCs4S1xE8DPCBn_14loam_spine_api12tarpc_serverNtB4_20LoamSpineTarpcServerNtNtB6_3rpc12LoamSpineRpc16loan_certificate
FN:118,_RNvXs_NtCs4S1xE8DPCBn_14loam_spine_api12tarpc_serverNtB4_20LoamSpineTarpcServerNtNtB6_3rpc12LoamSpineRpc18return_certificate
FN:102,_RNvXs_NtCs4S1xE8DPCBn_14loam_spine_api12tarpc_serverNtB4_20LoamSpineTarpcServerNtNtB6_3rpc12LoamSpineRpc20transfer_certificate
FN:158,_RNvXs_NtCs4S1xE8DPCBn_14loam_spine_api12tarpc_serverNtB4_20LoamSpineTarpcServerNtNtB6_3rpc12LoamSpineRpc22verify_inclusion_proof
FN:150,_RNvXs_NtCs4S1xE8DPCBn_14loam_spine_api12tarpc_serverNtB4_20LoamSpineTarpcServerNtNtB6_3rpc12LoamSpineRpc24generate_inclusion_proof
FN:86,_RNvXs_NtCs4S1xE8DPCBn_14loam_spine_api12tarpc_serverNtB4_20LoamSpineTarpcServerNtNtB6_3rpc12LoamSpineRpc7get_tip
FN:78,_RNvXs_NtCs4S1xE8DPCBn_14loam_spine_api12tarpc_serverNtB4_20LoamSpineTarpcServerNtNtB6_3rpc12LoamSpineRpc9get_entry
FN:326,_RNCNCNvNtNtCs4S1xE8DPCBn_14loam_spine_api12tarpc_server5testss_21test_tarpc_seal_spine00B9_
FN:352,_RNCNCNvNtNtCs4S1xE8DPCBn_14loam_spine_api12tarpc_server5testss_23test_tarpc_append_entry00B9_
FN:445,_RNCNCNvNtNtCs4S1xE8DPCBn_14loam_spine_api12tarpc_server5testss_23test_tarpc_commit_braid00B9_
FN:293,_RNCNCNvNtNtCs4S1xE8DPCBn_14loam_spine_api12tarpc_server5testss_23test_tarpc_create_spine00B9_
FN:276,_RNCNCNvNtNtCs4S1xE8DPCBn_14loam_spine_api12tarpc_server5testss_23test_tarpc_health_check00B9_
FN:416,_RNCNCNvNtNtCs4S1xE8DPCBn_14loam_spine_api12tarpc_server5testss_25test_tarpc_commit_session00B9_
FN:384,_RNCNCNvNtNtCs4S1xE8DPCBn_14loam_spine_api12tarpc_server5testss_27test_tarpc_mint_certificate00B9_
FN:308,_RNCNCNvNtNtCs4S1xE8DPCBn_14loam_spine_api12tarpc_server5testss_32test_tarpc_get_nonexistent_spine00B9_
FN:313,_RNCNvNtNtCs4S1xE8DPCBn_14loam_spine_api12tarpc_server5testss_21test_tarpc_seal_spine0B7_
FN:339,_RNCNvNtNtCs4S1xE8DPCBn_14loam_spine_api12tarpc_server5testss_23test_tarpc_append_entry0B7_
FN:432,_RNCNvNtNtCs4S1xE8DPCBn_14loam_spine_api12tarpc_server5testss_23test_tarpc_commit_braid0B7_
FN:281,_RNCNvNtNtCs4S1xE8DPCBn_14loam_spine_api12tarpc_server5testss_23test_tarpc_create_spine0B7_
FN:266,_RNCNvNtNtCs4S1xE8DPCBn_14loam_spine_api12tarpc_server5testss_23test_tarpc_health_check0B7_
FN:403,_RNCNvNtNtCs4S1xE8DPCBn_14loam_spine_api12tarpc_server5testss_25test_tarpc_commit_session0B7_
FN:371,_RNCNvNtNtCs4S1xE8DPCBn_14loam_spine_api12tarpc_server5testss_27test_tarpc_mint_certificate0B7_
FN:298,_RNCNvNtNtCs4S1xE8DPCBn_14loam_spine_api12tarpc_server5testss_32test_tarpc_get_nonexistent_spine0B7_
FN:66,_RNCNvXs_NtCs4S1xE8DPCBn_14loam_spine_api12tarpc_serverNtB6_20LoamSpineTarpcServerNtNtB8_3rpc12LoamSpineRpc10seal_spine0B8_
FN:74,_RNCNvXs_NtCs4S1xE8DPCBn_14loam_spine_api12tarpc_serverNtB6_20LoamSpineTarpcServerNtNtB8_3rpc12LoamSpineRpc12append_entry0B8_
FN:186,_RNCNvXs_NtCs4S1xE8DPCBn_14loam_spine_api12tarpc_serverNtB6_20LoamSpineTarpcServerNtNtB8_3rpc12LoamSpineRpc12commit_braid0B8_
FN:50,_RNCNvXs_NtCs4S1xE8DPCBn_14loam_spine_api12tarpc_serverNtB6_20LoamSpineTarpcServerNtNtB8_3rpc12LoamSpineRpc12create_spine0B8_
FN:170,_RNCNvXs_NtCs4S1xE8DPCBn_14loam_spine_api12tarpc_serverNtB6_20LoamSpineTarpcServerNtNtB8_3rpc12LoamSpineRpc12health_check0B8_
FN:178,_RNCNvXs_NtCs4S1xE8DPCBn_14loam_spine_api12tarpc_serverNtB6_20LoamSpineTarpcServerNtNtB8_3rpc12LoamSpineRpc14commit_session0B8_
FN:98,_RNCNvXs_NtCs4S1xE8DPCBn_14loam_spine_api12tarpc_serverNtB6_20LoamSpineTarpcServerNtNtB8_3rpc12LoamSpineRpc16mint_certificate0B8_
FN:58,_RNCNvXs_NtCs4S1xE8DPCBn_14loam_spine_api12tarpc_serverNtB6_20LoamSpineTarpcServerNtNtB8_3rpc12LoamSpineRpc9get_spine0B8_
FNDA:0,_RNCNCNCNvNtCs4SaE2cvVVUV_14loam_spine_api12tarpc_server16run_tarpc_server000B9_
FNDA:0,_RNCNCNCNvNtCs4SaE2cvVVUV_14loam_spine_api12tarpc_server16run_tarpc_server0s1_00B9_
FNDA:0,_RNCNCNCNvNtCs4SaE2cvVVUV_14loam_spine_api12tarpc_server16run_tarpc_server0s_00B9_
FNDA:0,_RNCNCNCNvNtCs4SaE2cvVVUV_14loam_spine_api12tarpc_server16run_tarpc_server0s_0s_0B9_
FNDA:0,_RNCNCNvNtCs4SaE2cvVVUV_14loam_spine_api12tarpc_server16run_tarpc_server00B7_
FNDA:0,_RNCNCNvNtCs4SaE2cvVVUV_14loam_spine_api12tarpc_server16run_tarpc_server0s0_0B7_
FNDA:0,_RNCNCNvNtCs4SaE2cvVVUV_14loam_spine_api12tarpc_server16run_tarpc_server0s1_0B7_
FNDA:0,_RNCNCNvNtCs4SaE2cvVVUV_14loam_spine_api12tarpc_server16run_tarpc_server0s_0B7_
FNDA:0,_RNCNvNtCs4SaE2cvVVUV_14loam_spine_api12tarpc_server16run_tarpc_server0B5_
FNDA:0,_RNCNvXs_NtCs4SaE2cvVVUV_14loam_spine_api12tarpc_serverNtB6_20LoamSpineTarpcServerNtNtB8_3rpc12LoamSpineRpc10seal_spine0B8_
FNDA:0,_RNCNvXs_NtCs4SaE2cvVVUV_14loam_spine_api12tarpc_serverNtB6_20LoamSpineTarpcServerNtNtB8_3rpc12LoamSpineRpc12anchor_slice0B8_
FNDA:0,_RNCNvXs_NtCs4SaE2cvVVUV_14loam_spine_api12tarpc_serverNtB6_20LoamSpineTarpcServerNtNtB8_3rpc12LoamSpineRpc12append_entry0B8_
FNDA:0,_RNCNvXs_NtCs4SaE2cvVVUV_14loam_spine_api12tarpc_serverNtB6_20LoamSpineTarpcServerNtNtB8_3rpc12LoamSpineRpc12commit_braid0B8_
FNDA:0,_RNCNvXs_NtCs4SaE2cvVVUV_14loam_spine_api12tarpc_serverNtB6_20LoamSpineTarpcServerNtNtB8_3rpc12LoamSpineRpc12create_spine0B8_
FNDA:0,_RNCNvXs_NtCs4SaE2cvVVUV_14loam_spine_api12tarpc_serverNtB6_20LoamSpineTarpcServerNtNtB8_3rpc12LoamSpineRpc12health_check0B8_
FNDA:0,_RNCNvXs_NtCs4SaE2cvVVUV_14loam_spine_api12tarpc_serverNtB6_20LoamSpineTarpcServerNtNtB8_3rpc12LoamSpineRpc14checkout_slice0B8_
FNDA:0,_RNCNvXs_NtCs4SaE2cvVVUV_14loam_spine_api12tarpc_serverNtB6_20LoamSpineTarpcServerNtNtB8_3rpc12LoamSpineRpc14commit_session0B8_
FNDA:0,_RNCNvXs_NtCs4SaE2cvVVUV_14loam_spine_api12tarpc_serverNtB6_20LoamSpineTarpcServerNtNtB8_3rpc12LoamSpineRpc15get_certificate0B8_
FNDA:0,_RNCNvXs_NtCs4SaE2cvVVUV_14loam_spine_api12tarpc_serverNtB6_20LoamSpineTarpcServerNtNtB8_3rpc12LoamSpineRpc16loan_certificate0B8_
FNDA:0,_RNCNvXs_NtCs4SaE2cvVVUV_14loam_spine_api12tarpc_serverNtB6_20LoamSpineTarpcServerNtNtB8_3rpc12LoamSpineRpc16mint_certificate0B8_
FNDA:0,_RNCNvXs_NtCs4SaE2cvVVUV_14loam_spine_api12tarpc_serverNtB6_20LoamSpineTarpcServerNtNtB8_3rpc12LoamSpineRpc18return_certificate0B8_
FNDA:0,_RNCNvXs_NtCs4SaE2cvVVUV_14loam_spine_api12tarpc_serverNtB6_20LoamSpineTarpcServerNtNtB8_3rpc12LoamSpineRpc20transfer_certificate0B8_
FNDA:0,_RNCNvXs_NtCs4SaE2cvVVUV_14loam_spine_api12tarpc_serverNtB6_20LoamSpineTarpcServerNtNtB8_3rpc12LoamSpineRpc22verify_inclusion_proof0B8_
FNDA:0,_RNCNvXs_NtCs4SaE2cvVVUV_14loam_spine_api12tarpc_serverNtB6_20LoamSpineTarpcServerNtNtB8_3rpc12LoamSpineRpc24generate_inclusion_proof0B8_
FNDA:0,_RNCNvXs_NtCs4SaE2cvVVUV_14loam_spine_api12tarpc_serverNtB6_20LoamSpineTarpcServerNtNtB8_3rpc12LoamSpineRpc7get_tip0B8_
FNDA:0,_RNCNvXs_NtCs4SaE2cvVVUV_14loam_spine_api12tarpc_serverNtB6_20LoamSpineTarpcServerNtNtB8_3rpc12LoamSpineRpc9get_entry0B8_
FNDA:0,_RNCNvXs_NtCs4SaE2cvVVUV_14loam_spine_api12tarpc_serverNtB6_20LoamSpineTarpcServerNtNtB8_3rpc12LoamSpineRpc9get_spine0B8_
FNDA:1,_RNvNtNtCs4S1xE8DPCBn_14loam_spine_api12tarpc_server5testss_17test_server_clone
FNDA:1,_RNvNtNtCs4S1xE8DPCBn_14loam_spine_api12tarpc_server5testss_20test_server_creation
FNDA:1,_RNvNtNtCs4S1xE8DPCBn_14loam_spine_api12tarpc_server5testss_21test_tarpc_seal_spine
FNDA:1,_RNvNtNtCs4S1xE8DPCBn_14loam_spine_api12tarpc_server5testss_23test_tarpc_append_entry
FNDA:1,_RNvNtNtCs4S1xE8DPCBn_14loam_spine_api12tarpc_server5testss_23test_tarpc_commit_braid
FNDA:1,_RNvNtNtCs4S1xE8DPCBn_14loam_spine_api12tarpc_server5testss_23test_tarpc_create_spine
FNDA:1,_RNvNtNtCs4S1xE8DPCBn_14loam_spine_api12tarpc_server5testss_23test_tarpc_health_check
FNDA:1,_RNvNtNtCs4S1xE8DPCBn_14loam_spine_api12tarpc_server5testss_24test_server_with_service
FNDA:1,_RNvNtNtCs4S1xE8DPCBn_14loam_spine_api12tarpc_server5testss_25test_tarpc_commit_session
FNDA:1,_RNvNtNtCs4S1xE8DPCBn_14loam_spine_api12tarpc_server5testss_27test_tarpc_mint_certificate
FNDA:1,_RNvNtNtCs4S1xE8DPCBn_14loam_spine_api12tarpc_server5testss_32test_tarpc_get_nonexistent_spine
FNDA:10,_RNvMNtCs4S1xE8DPCBn_14loam_spine_api12tarpc_serverNtB2_20LoamSpineTarpcServer14default_server
FNDA:11,_RNvMNtCs4S1xE8DPCBn_14loam_spine_api12tarpc_serverNtB2_20LoamSpineTarpcServer3new
FNDA:1,_RNvXs_NtCs4S1xE8DPCBn_14loam_spine_api12tarpc_serverNtB4_20LoamSpineTarpcServerNtNtB6_3rpc12LoamSpineRpc10seal_spine
FNDA:1,_RNvXs_NtCs4S1xE8DPCBn_14loam_spine_api12tarpc_serverNtB4_20LoamSpineTarpcServerNtNtB6_3rpc12LoamSpineRpc12append_entry
FNDA:1,_RNvXs_NtCs4S1xE8DPCBn_14loam_spine_api12tarpc_serverNtB4_20LoamSpineTarpcServerNtNtB6_3rpc12LoamSpineRpc12commit_braid
FNDA:6,_RNvXs_NtCs4S1xE8DPCBn_14loam_spine_api12tarpc_serverNtB4_20LoamSpineTarpcServerNtNtB6_3rpc12LoamSpineRpc12create_spine
FNDA:1,_RNvXs_NtCs4S1xE8DPCBn_14loam_spine_api12tarpc_serverNtB4_20LoamSpineTarpcServerNtNtB6_3rpc12LoamSpineRpc12health_check
FNDA:1,_RNvXs_NtCs4S1xE8DPCBn_14loam_spine_api12tarpc_serverNtB4_20LoamSpineTarpcServerNtNtB6_3rpc12LoamSpineRpc14commit_session
FNDA:1,_RNvXs_NtCs4S1xE8DPCBn_14loam_spine_api12tarpc_serverNtB4_20LoamSpineTarpcServerNtNtB6_3rpc12LoamSpineRpc16mint_certificate
FNDA:1,_RNvXs_NtCs4S1xE8DPCBn_14loam_spine_api12tarpc_serverNtB4_20LoamSpineTarpcServerNtNtB6_3rpc12LoamSpineRpc9get_spine
FNDA:0,_RNCNCNCNvNtCs4S1xE8DPCBn_14loam_spine_api12tarpc_server16run_tarpc_server000B9_
FNDA:0,_RNCNCNCNvNtCs4S1xE8DPCBn_14loam_spine_api12tarpc_server16run_tarpc_server0s1_00B9_
FNDA:0,_RNCNCNCNvNtCs4S1xE8DPCBn_14loam_spine_api12tarpc_server16run_tarpc_server0s_00B9_
FNDA:0,_RNCNCNCNvNtCs4S1xE8DPCBn_14loam_spine_api12tarpc_server16run_tarpc_server0s_0s_0B9_
FNDA:0,_RNCNCNvNtCs4S1xE8DPCBn_14loam_spine_api12tarpc_server16run_tarpc_server00B7_
FNDA:0,_RNCNCNvNtCs4S1xE8DPCBn_14loam_spine_api12tarpc_server16run_tarpc_server0s0_0B7_
FNDA:0,_RNCNCNvNtCs4S1xE8DPCBn_14loam_spine_api12tarpc_server16run_tarpc_server0s1_0B7_
FNDA:0,_RNCNCNvNtCs4S1xE8DPCBn_14loam_spine_api12tarpc_server16run_tarpc_server0s_0B7_
FNDA:0,_RNCNvNtCs4S1xE8DPCBn_14loam_spine_api12tarpc_server16run_tarpc_server0B5_
FNDA:0,_RNCNvXs_NtCs4S1xE8DPCBn_14loam_spine_api12tarpc_serverNtB6_20LoamSpineTarpcServerNtNtB8_3rpc12LoamSpineRpc12anchor_slice0B8_
FNDA:0,_RNCNvXs_NtCs4S1xE8DPCBn_14loam_spine_api12tarpc_serverNtB6_20LoamSpineTarpcServerNtNtB8_3rpc12LoamSpineRpc14checkout_slice0B8_
FNDA:0,_RNCNvXs_NtCs4S1xE8DPCBn_14loam_spine_api12tarpc_serverNtB6_20LoamSpineTarpcServerNtNtB8_3rpc12LoamSpineRpc15get_certificate0B8_
FNDA:0,_RNCNvXs_NtCs4S1xE8DPCBn_14loam_spine_api12tarpc_serverNtB6_20LoamSpineTarpcServerNtNtB8_3rpc12LoamSpineRpc16loan_certificate0B8_
FNDA:0,_RNCNvXs_NtCs4S1xE8DPCBn_14loam_spine_api12tarpc_serverNtB6_20LoamSpineTarpcServerNtNtB8_3rpc12LoamSpineRpc18return_certificate0B8_
FNDA:0,_RNCNvXs_NtCs4S1xE8DPCBn_14loam_spine_api12tarpc_serverNtB6_20LoamSpineTarpcServerNtNtB8_3rpc12LoamSpineRpc20transfer_certificate0B8_
FNDA:0,_RNCNvXs_NtCs4S1xE8DPCBn_14loam_spine_api12tarpc_serverNtB6_20LoamSpineTarpcServerNtNtB8_3rpc12LoamSpineRpc22verify_inclusion_proof0B8_
FNDA:0,_RNCNvXs_NtCs4S1xE8DPCBn_14loam_spine_api12tarpc_serverNtB6_20LoamSpineTarpcServerNtNtB8_3rpc12LoamSpineRpc24generate_inclusion_proof0B8_
FNDA:0,_RNCNvXs_NtCs4S1xE8DPCBn_14loam_spine_api12tarpc_serverNtB6_20LoamSpineTarpcServerNtNtB8_3rpc12LoamSpineRpc7get_tip0B8_
FNDA:0,_RNCNvXs_NtCs4S1xE8DPCBn_14loam_spine_api12tarpc_serverNtB6_20LoamSpineTarpcServerNtNtB8_3rpc12LoamSpineRpc9get_entry0B8_
FNDA:0,_RNvNtCs4S1xE8DPCBn_14loam_spine_api12tarpc_server16run_tarpc_server
FNDA:0,_RNvXs_NtCs4S1xE8DPCBn_14loam_spine_api12tarpc_serverNtB4_20LoamSpineTarpcServerNtNtB6_3rpc12LoamSpineRpc12anchor_slice
FNDA:0,_RNvXs_NtCs4S1xE8DPCBn_14loam_spine_api12tarpc_serverNtB4_20LoamSpineTarpcServerNtNtB6_3rpc12LoamSpineRpc14checkout_slice
FNDA:0,_RNvXs_NtCs4S1xE8DPCBn_14loam_spine_api12tarpc_serverNtB4_20LoamSpineTarpcServerNtNtB6_3rpc12LoamSpineRpc15get_certificate
FNDA:0,_RNvXs_NtCs4S1xE8DPCBn_14loam_spine_api12tarpc_serverNtB4_20LoamSpineTarpcServerNtNtB6_3rpc12LoamSpineRpc16loan_certificate
FNDA:0,_RNvXs_NtCs4S1xE8DPCBn_14loam_spine_api12tarpc_serverNtB4_20LoamSpineTarpcServerNtNtB6_3rpc12LoamSpineRpc18return_certificate
FNDA:0,_RNvXs_NtCs4S1xE8DPCBn_14loam_spine_api12tarpc_serverNtB4_20LoamSpineTarpcServerNtNtB6_3rpc12LoamSpineRpc20transfer_certificate
FNDA:0,_RNvXs_NtCs4S1xE8DPCBn_14loam_spine_api12tarpc_serverNtB4_20LoamSpineTarpcServerNtNtB6_3rpc12LoamSpineRpc22verify_inclusion_proof
FNDA:0,_RNvXs_NtCs4S1xE8DPCBn_14loam_spine_api12tarpc_serverNtB4_20LoamSpineTarpcServerNtNtB6_3rpc12LoamSpineRpc24generate_inclusion_proof
FNDA:0,_RNvXs_NtCs4S1xE8DPCBn_14loam_spine_api12tarpc_serverNtB4_20LoamSpineTarpcServerNtNtB6_3rpc12LoamSpineRpc7get_tip
FNDA:0,_RNvXs_NtCs4S1xE8DPCBn_14loam_spine_api12tarpc_serverNtB4_20LoamSpineTarpcServerNtNtB6_3rpc12LoamSpineRpc9get_entry
FNDA:0,_RNCNCNvNtNtCs4S1xE8DPCBn_14loam_spine_api12tarpc_server5testss_21test_tarpc_seal_spine00B9_
FNDA:0,_RNCNCNvNtNtCs4S1xE8DPCBn_14loam_spine_api12tarpc_server5testss_23test_tarpc_append_entry00B9_
FNDA:0,_RNCNCNvNtNtCs4S1xE8DPCBn_14loam_spine_api12tarpc_server5testss_23test_tarpc_commit_braid00B9_
FNDA:0,_RNCNCNvNtNtCs4S1xE8DPCBn_14loam_spine_api12tarpc_server5testss_23test_tarpc_create_spine00B9_
FNDA:0,_RNCNCNvNtNtCs4S1xE8DPCBn_14loam_spine_api12tarpc_server5testss_23test_tarpc_health_check00B9_
FNDA:0,_RNCNCNvNtNtCs4S1xE8DPCBn_14loam_spine_api12tarpc_server5testss_25test_tarpc_commit_session00B9_
FNDA:0,_RNCNCNvNtNtCs4S1xE8DPCBn_14loam_spine_api12tarpc_server5testss_27test_tarpc_mint_certificate00B9_
FNDA:0,_RNCNCNvNtNtCs4S1xE8DPCBn_14loam_spine_api12tarpc_server5testss_32test_tarpc_get_nonexistent_spine00B9_
FNDA:1,_RNCNvNtNtCs4S1xE8DPCBn_14loam_spine_api12tarpc_server5testss_21test_tarpc_seal_spine0B7_
FNDA:1,_RNCNvNtNtCs4S1xE8DPCBn_14loam_spine_api12tarpc_server5testss_23test_tarpc_append_entry0B7_
FNDA:1,_RNCNvNtNtCs4S1xE8DPCBn_14loam_spine_api12tarpc_server5testss_23test_tarpc_commit_braid0B7_
FNDA:1,_RNCNvNtNtCs4S1xE8DPCBn_14loam_spine_api12tarpc_server5testss_23test_tarpc_create_spine0B7_
FNDA:1,_RNCNvNtNtCs4S1xE8DPCBn_14loam_spine_api12tarpc_server5testss_23test_tarpc_health_check0B7_
FNDA:1,_RNCNvNtNtCs4S1xE8DPCBn_14loam_spine_api12tarpc_server5testss_25test_tarpc_commit_session0B7_
FNDA:1,_RNCNvNtNtCs4S1xE8DPCBn_14loam_spine_api12tarpc_server5testss_27test_tarpc_mint_certificate0B7_
FNDA:1,_RNCNvNtNtCs4S1xE8DPCBn_14loam_spine_api12tarpc_server5testss_32test_tarpc_get_nonexistent_spine0B7_
FNDA:1,_RNCNvXs_NtCs4S1xE8DPCBn_14loam_spine_api12tarpc_serverNtB6_20LoamSpineTarpcServerNtNtB8_3rpc12LoamSpineRpc10seal_spine0B8_
FNDA:1,_RNCNvXs_NtCs4S1xE8DPCBn_14loam_spine_api12tarpc_serverNtB6_20LoamSpineTarpcServerNtNtB8_3rpc12LoamSpineRpc12append_entry0B8_
FNDA:1,_RNCNvXs_NtCs4S1xE8DPCBn_14loam_spine_api12tarpc_serverNtB6_20LoamSpineTarpcServerNtNtB8_3rpc12LoamSpineRpc12commit_braid0B8_
FNDA:6,_RNCNvXs_NtCs4S1xE8DPCBn_14loam_spine_api12tarpc_serverNtB6_20LoamSpineTarpcServerNtNtB8_3rpc12LoamSpineRpc12create_spine0B8_
FNDA:1,_RNCNvXs_NtCs4S1xE8DPCBn_14loam_spine_api12tarpc_serverNtB6_20LoamSpineTarpcServerNtNtB8_3rpc12LoamSpineRpc12health_check0B8_
FNDA:1,_RNCNvXs_NtCs4S1xE8DPCBn_14loam_spine_api12tarpc_serverNtB6_20LoamSpineTarpcServerNtNtB8_3rpc12LoamSpineRpc14commit_session0B8_
FNDA:1,_RNCNvXs_NtCs4S1xE8DPCBn_14loam_spine_api12tarpc_serverNtB6_20LoamSpineTarpcServerNtNtB8_3rpc12LoamSpineRpc16mint_certificate0B8_
FNDA:1,_RNCNvXs_NtCs4S1xE8DPCBn_14loam_spine_api12tarpc_serverNtB6_20LoamSpineTarpcServerNtNtB8_3rpc12LoamSpineRpc9get_spine0B8_
FNF:75
FNH:37
DA:31,11
DA:32,11
DA:33,11
DA:34,11
DA:35,11
DA:39,10
DA:40,10
DA:41,10
DA:46,6
DA:47,6
DA:48,6
DA:49,6
DA:50,6
DA:51,6
DA:52,6
DA:54,1
DA:55,1
DA:56,1
DA:57,1
DA:58,1
DA:59,1
DA:60,1
DA:62,1
DA:63,1
DA:64,1
DA:65,1
DA:66,1
DA:67,1
DA:68,1
DA:70,1
DA:71,1
DA:72,1
DA:73,1
DA:74,1
DA:75,1
DA:76,1
DA:78,0
DA:79,0
DA:80,0
DA:81,0
DA:82,0
DA:83,0
DA:84,0
DA:86,0
DA:87,0
DA:88,0
DA:89,0
DA:90,0
DA:91,0
DA:92,0
DA:94,1
DA:95,1
DA:96,1
DA:97,1
DA:98,1
DA:99,1
DA:100,1
DA:102,0
DA:103,0
DA:104,0
DA:105,0
DA:106,0
DA:107,0
DA:108,0
DA:110,0
DA:111,0
DA:112,0
DA:113,0
DA:114,0
DA:115,0
DA:116,0
DA:118,0
DA:119,0
DA:120,0
DA:121,0
DA:122,0
DA:123,0
DA:124,0
DA:126,0
DA:127,0
DA:128,0
DA:129,0
DA:130,0
DA:131,0
DA:132,0
DA:134,0
DA:135,0
DA:136,0
DA:137,0
DA:138,0
DA:139,0
DA:140,0
DA:142,0
DA:143,0
DA:144,0
DA:145,0
DA:146,0
DA:147,0
DA:148,0
DA:150,0
DA:151,0
DA:152,0
DA:153,0
DA:154,0
DA:155,0
DA:156,0
DA:158,0
DA:159,0
DA:160,0
DA:161,0
DA:162,0
DA:163,0
DA:164,0
DA:166,1
DA:167,1
DA:168,1
DA:169,1
DA:170,1
DA:171,1
DA:172,1
DA:174,1
DA:175,1
DA:176,1
DA:177,1
DA:178,1
DA:179,1
DA:180,1
DA:182,1
DA:183,1
DA:184,1
DA:185,1
DA:186,1
DA:187,1
DA:188,1
DA:196,0
DA:197,0
DA:198,0
DA:199,0
DA:200,0
DA:201,0
DA:202,0
DA:203,0
DA:205,0
DA:206,0
DA:207,0
DA:208,0
DA:209,0
DA:210,0
DA:211,0
DA:214,0
DA:215,0
DA:216,0
DA:217,0
DA:218,0
DA:219,0
DA:220,0
DA:221,0
DA:222,0
DA:223,0
DA:224,0
DA:225,0
DA:226,0
DA:227,0
DA:228,0
DA:229,0
DA:230,0
DA:231,0
DA:232,0
DA:234,0
DA:235,0
DA:243,1
DA:244,1
DA:245,1
DA:248,1
DA:249,1
DA:250,1
DA:251,1
DA:252,1
DA:253,1
DA:257,1
DA:258,1
DA:259,1
DA:260,1
DA:261,1
DA:262,1
DA:263,1
DA:266,1
DA:267,1
DA:268,1
DA:269,1
DA:270,1
DA:271,1
DA:272,1
DA:273,1
DA:274,1
DA:275,1
DA:276,1
DA:277,1
DA:278,1
DA:281,1
DA:282,1
DA:283,1
DA:284,1
DA:285,1
DA:286,1
DA:287,1
DA:288,1
DA:289,1
DA:290,1
DA:291,1
DA:292,1
DA:293,1
DA:294,1
DA:295,1
DA:298,1
DA:299,1
DA:300,1
DA:301,1
DA:302,1
DA:303,1
DA:304,1
DA:305,1
DA:306,1
DA:307,1
DA:308,1
DA:309,1
DA:310,1
DA:313,1
DA:314,1
DA:315,1
DA:316,1
DA:317,1
DA:318,1
DA:319,1
DA:320,1
DA:321,1
DA:322,1
DA:323,1
DA:324,1
DA:325,1
DA:326,1
DA:327,1
DA:328,1
DA:329,1
DA:330,1
DA:331,1
DA:332,1
DA:333,1
DA:334,1
DA:335,1
DA:336,1
DA:339,1
DA:340,1
DA:341,1
DA:342,1
DA:343,1
DA:344,1
DA:345,1
DA:346,1
DA:347,1
DA:348,1
DA:349,1
DA:350,1
DA:351,1
DA:352,1
DA:353,1
DA:354,1
DA:355,1
DA:356,1
DA:357,1
DA:358,1
DA:359,1
DA:360,1
DA:361,1
DA:362,1
DA:363,1
DA:364,1
DA:365,1
DA:366,1
DA:367,1
DA:368,1
DA:371,1
DA:372,1
DA:373,1
DA:374,1
DA:375,1
DA:376,1
DA:377,1
DA:378,1
DA:379,1
DA:380,1
DA:381,1
DA:382,1
DA:383,1
DA:384,1
DA:385,1
DA:386,1
DA:387,1
DA:388,1
DA:389,1
DA:390,1
DA:391,1
DA:392,1
DA:393,1
DA:394,1
DA:395,1
DA:396,1
DA:397,1
DA:398,1
DA:399,1
DA:400,1
DA:403,1
DA:404,1
DA:405,1
DA:406,1
DA:407,1
DA:408,1
DA:409,1
DA:410,1
DA:411,1
DA:412,1
DA:413,1
DA:414,1
DA:415,1
DA:416,1
DA:417,1
DA:418,1
DA:419,1
DA:420,1
DA:421,1
DA:422,1
DA:423,1
DA:424,1
DA:425,1
DA:426,1
DA:427,1
DA:428,1
DA:429,1
DA:432,1
DA:433,1
DA:434,1
DA:435,1
DA:436,1
DA:437,1
DA:438,1
DA:439,1
DA:440,1
DA:441,1
DA:442,1
DA:443,1
DA:444,1
DA:445,1
DA:446,1
DA:447,1
DA:448,1
DA:449,1
DA:450,1
DA:451,1
DA:452,1
DA:453,1
DA:454,1
DA:455,1
DA:456,1
DA:457,1
DA:458,1
BRF:0
BRH:0
LF:563
LH:427
end_of_record
SF:/path/to/ecoPrimals/phase2/loamSpine/crates/loam-spine-api/src/types.rs
FN:406,_RNvNtNtCs4S1xE8DPCBn_14loam_spine_api5types5testss_26test_request_serialization
FN:420,_RNvNtNtCs4S1xE8DPCBn_14loam_spine_api5types5testss_27test_response_serialization
FNDA:1,_RNvNtNtCs4S1xE8DPCBn_14loam_spine_api5types5testss_26test_request_serialization
FNDA:1,_RNvNtNtCs4S1xE8DPCBn_14loam_spine_api5types5testss_27test_response_serialization
FNF:2
FNH:2
DA:406,1
DA:407,1
DA:408,1
DA:409,1
DA:410,1
DA:411,1
DA:412,1
DA:413,1
DA:414,1
DA:415,1
DA:416,1
DA:417,1
DA:420,1
DA:421,1
DA:422,1
DA:423,1
DA:424,1
DA:425,1
DA:426,1
DA:427,1
DA:428,1
DA:429,1
BRF:0
BRH:0
LF:22
LH:22
end_of_record
SF:/path/to/ecoPrimals/phase2/loamSpine/crates/loam-spine-core/src/backup.rs
FN:207,_RNCNvMNtCskrSqHInbZEk_15loam_spine_core6backupNtB4_11SpineBackup7to_json0B6_
FN:217,_RNCNvMNtCskrSqHInbZEk_15loam_spine_core6backupNtB4_11SpineBackup9from_json0B6_
FN:46,_RNvMNtCskrSqHInbZEk_15loam_spine_core6backupNtB2_11SpineBackup3new
FN:71,_RNvMNtCskrSqHInbZEk_15loam_spine_core6backupNtB2_11SpineBackup6verify
FN:205,_RNvMNtCskrSqHInbZEk_15loam_spine_core6backupNtB2_11SpineBackup7to_json
FN:215,_RNvMNtCskrSqHInbZEk_15loam_spine_core6backupNtB2_11SpineBackup9from_json
FN:291,_RNvMs0_NtCskrSqHInbZEk_15loam_spine_core6backupNtB5_18BackupVerification5valid
FN:301,_RNvMs0_NtCskrSqHInbZEk_15loam_spine_core6backupNtB5_18BackupVerification7invalid
FN:240,_RNvMs_NtCskrSqHInbZEk_15loam_spine_core6backupNtB4_16MultiSpineBackup3new
FN:251,_RNvMs_NtCskrSqHInbZEk_15loam_spine_core6backupNtB4_16MultiSpineBackup6verify
FN:59,_RINvMNtCskrSqHInbZEk_15loam_spine_core6backupNtB3_11SpineBackup16with_descriptionpEB5_
FN:136,_RINvMNtCskrSqHInbZEk_15loam_spine_core6backupNtB3_11SpineBackup6exportpEB5_
FN:165,_RINvMNtCskrSqHInbZEk_15loam_spine_core6backupNtB3_11SpineBackup6importpEB5_
FN:140,_RNCINvMNtCskrSqHInbZEk_15loam_spine_core6backupNtB5_11SpineBackup6exportpE0B7_
FN:150,_RNCINvMNtCskrSqHInbZEk_15loam_spine_core6backupNtB5_11SpineBackup6exportpEs0_0B7_
FN:155,_RNCINvMNtCskrSqHInbZEk_15loam_spine_core6backupNtB5_11SpineBackup6exportpEs1_0B7_
FN:144,_RNCINvMNtCskrSqHInbZEk_15loam_spine_core6backupNtB5_11SpineBackup6exportpEs_0B7_
FN:170,_RNCINvMNtCskrSqHInbZEk_15loam_spine_core6backupNtB5_11SpineBackup6importpE0B7_
FN:191,_RNCINvMNtCskrSqHInbZEk_15loam_spine_core6backupNtB5_11SpineBackup6importpEs0_0B7_
FN:195,_RNCINvMNtCskrSqHInbZEk_15loam_spine_core6backupNtB5_11SpineBackup6importpEs1_0B7_
FN:182,_RNCINvMNtCskrSqHInbZEk_15loam_spine_core6backupNtB5_11SpineBackup6importpEs_0B7_
FN:560,_RNCNvNtNtCsiWUamAnYf7P_15loam_spine_core6backup5testss_27backup_verify_version_error0B7_
FN:590,_RNCNvNtNtCsiWUamAnYf7P_15loam_spine_core6backup5testss_33backup_verify_invalid_entry_index0B7_
FN:575,_RNCNvNtNtCsiWUamAnYf7P_15loam_spine_core6backup5testss_34backup_verify_entry_count_mismatch0B7_
FN:623,_RNCNvNtNtCsiWUamAnYf7P_15loam_spine_core6backup5testss_35backup_verify_genesis_with_previouss_0B7_
FN:642,_RNCNvNtNtCsiWUamAnYf7P_15loam_spine_core6backup5testss_37multi_spine_backup_with_invalid_spine0B7_
FN:372,_RNvNtNtCsiWUamAnYf7P_15loam_spine_core6backup5tests17create_test_spine
FN:657,_RNvNtNtCsiWUamAnYf7P_15loam_spine_core6backup5testss_18backup_error_clone
FN:449,_RNvNtNtCsiWUamAnYf7P_15loam_spine_core6backup5testss_18multi_spine_backup
FN:787,_RNvNtNtCsiWUamAnYf7P_15loam_spine_core6backup5testss_20backup_with_metadata
FN:472,_RNvNtNtCsiWUamAnYf7P_15loam_spine_core6backup5testss_21backup_error_variants
FN:388,_RNvNtNtCsiWUamAnYf7P_15loam_spine_core6backup5testss_21spine_backup_creation
FN:856,_RNvNtNtCsiWUamAnYf7P_15loam_spine_core6backup5testss_24backup_empty_description
FN:845,_RNvNtNtCsiWUamAnYf7P_15loam_spine_core6backup5testss_24backup_import_from_empty
FN:807,_RNvNtNtCsiWUamAnYf7P_15loam_spine_core6backup5testss_24multi_spine_backup_empty
FN:816,_RNvNtNtCsiWUamAnYf7P_15loam_spine_core6backup5testss_24multi_spine_backup_large
FN:665,_RNvNtNtCsiWUamAnYf7P_15loam_spine_core6backup5testss_24spine_backup_debug_clone
FN:499,_RNvNtNtCsiWUamAnYf7P_15loam_spine_core6backup5testss_25backup_error_all_variants
FN:771,_RNvNtNtCsiWUamAnYf7P_15loam_spine_core6backup5testss_25backup_json_serialization
FN:484,_RNvNtNtCsiWUamAnYf7P_15loam_spine_core6backup5testss_25backup_verification_valid
FN:692,_RNvNtNtCsiWUamAnYf7P_15loam_spine_core6backup5testss_25backup_with_large_dataset
FN:406,_RNvNtNtCsiWUamAnYf7P_15loam_spine_core6backup5testss_25spine_backup_verify_valid
FN:465,_RNvNtNtCsiWUamAnYf7P_15loam_spine_core6backup5testss_27backup_import_invalid_magic
FN:491,_RNvNtNtCsiWUamAnYf7P_15loam_spine_core6backup5testss_27backup_verification_invalid
FN:550,_RNvNtNtCsiWUamAnYf7P_15loam_spine_core6backup5testss_27backup_verify_version_error
FN:438,_RNvNtNtCsiWUamAnYf7P_15loam_spine_core6backup5testss_27spine_backup_json_roundtrip
FN:398,_RNvNtNtCsiWUamAnYf7P_15loam_spine_core6backup5testss_29spine_backup_with_description
FN:738,_RNvNtNtCsiWUamAnYf7P_15loam_spine_core6backup5testss_30backup_with_empty_certificates
FN:678,_RNvNtNtCsiWUamAnYf7P_15loam_spine_core6backup5testss_30multi_spine_backup_debug_clone
FN:646,_RNvNtNtCsiWUamAnYf7P_15loam_spine_core6backup5testss_31backup_verification_debug_clone
FN:579,_RNvNtNtCsiWUamAnYf7P_15loam_spine_core6backup5testss_33backup_verify_invalid_entry_index
FN:564,_RNvNtNtCsiWUamAnYf7P_15loam_spine_core6backup5testss_34backup_verify_entry_count_mismatch
FN:594,_RNvNtNtCsiWUamAnYf7P_15loam_spine_core6backup5testss_35backup_verify_genesis_with_previous
FN:416,_RNvNtNtCsiWUamAnYf7P_15loam_spine_core6backup5testss_36spine_backup_export_import_roundtrip
FN:627,_RNvNtNtCsiWUamAnYf7P_15loam_spine_core6backup5testss_37multi_spine_backup_with_invalid_spine
FN:59,_RINvMNtCsiWUamAnYf7P_15loam_spine_core6backupNtB3_11SpineBackup16with_descriptionReEB5_
FN:136,_RINvMNtCsiWUamAnYf7P_15loam_spine_core6backupNtB3_11SpineBackup6exportINtNtCs6bBekJvxEMJ_5alloc3vec3VechEEB5_
FN:165,_RINvMNtCsiWUamAnYf7P_15loam_spine_core6backupNtB3_11SpineBackup6importINtNtNtCseJswNlh1fGO_3std2io6cursor6CursorINtNtCs6bBekJvxEMJ_5alloc3vec3VechEEEB5_
FN:140,_RNCINvMNtCsiWUamAnYf7P_15loam_spine_core6backupNtB5_11SpineBackup6exportINtNtCs6bBekJvxEMJ_5alloc3vec3VechEE0B7_
FN:150,_RNCINvMNtCsiWUamAnYf7P_15loam_spine_core6backupNtB5_11SpineBackup6exportINtNtCs6bBekJvxEMJ_5alloc3vec3VechEEs0_0B7_
FN:155,_RNCINvMNtCsiWUamAnYf7P_15loam_spine_core6backupNtB5_11SpineBackup6exportINtNtCs6bBekJvxEMJ_5alloc3vec3VechEEs1_0B7_
FN:144,_RNCINvMNtCsiWUamAnYf7P_15loam_spine_core6backupNtB5_11SpineBackup6exportINtNtCs6bBekJvxEMJ_5alloc3vec3VechEEs_0B7_
FN:170,_RNCINvMNtCsiWUamAnYf7P_15loam_spine_core6backupNtB5_11SpineBackup6importINtNtNtCseJswNlh1fGO_3std2io6cursor6CursorINtNtCs6bBekJvxEMJ_5alloc3vec3VechEEE0B7_
FN:191,_RNCINvMNtCsiWUamAnYf7P_15loam_spine_core6backupNtB5_11SpineBackup6importINtNtNtCseJswNlh1fGO_3std2io6cursor6CursorINtNtCs6bBekJvxEMJ_5alloc3vec3VechEEEs0_0B7_
FN:195,_RNCINvMNtCsiWUamAnYf7P_15loam_spine_core6backupNtB5_11SpineBackup6importINtNtNtCseJswNlh1fGO_3std2io6cursor6CursorINtNtCs6bBekJvxEMJ_5alloc3vec3VechEEEs1_0B7_
FN:182,_RNCINvMNtCsiWUamAnYf7P_15loam_spine_core6backupNtB5_11SpineBackup6importINtNtNtCseJswNlh1fGO_3std2io6cursor6CursorINtNtCs6bBekJvxEMJ_5alloc3vec3VechEEEs_0B7_
FN:207,_RNCNvMNtCsiWUamAnYf7P_15loam_spine_core6backupNtB4_11SpineBackup7to_json0B6_
FN:217,_RNCNvMNtCsiWUamAnYf7P_15loam_spine_core6backupNtB4_11SpineBackup9from_json0B6_
FN:46,_RNvMNtCsiWUamAnYf7P_15loam_spine_core6backupNtB2_11SpineBackup3new
FN:71,_RNvMNtCsiWUamAnYf7P_15loam_spine_core6backupNtB2_11SpineBackup6verify
FN:205,_RNvMNtCsiWUamAnYf7P_15loam_spine_core6backupNtB2_11SpineBackup7to_json
FN:215,_RNvMNtCsiWUamAnYf7P_15loam_spine_core6backupNtB2_11SpineBackup9from_json
FN:291,_RNvMs0_NtCsiWUamAnYf7P_15loam_spine_core6backupNtB5_18BackupVerification5valid
FN:301,_RNvMs0_NtCsiWUamAnYf7P_15loam_spine_core6backupNtB5_18BackupVerification7invalid
FN:240,_RNvMs_NtCsiWUamAnYf7P_15loam_spine_core6backupNtB4_16MultiSpineBackup3new
FN:251,_RNvMs_NtCsiWUamAnYf7P_15loam_spine_core6backupNtB4_16MultiSpineBackup6verify
FNDA:0,_RNCNvMNtCskrSqHInbZEk_15loam_spine_core6backupNtB4_11SpineBackup7to_json0B6_
FNDA:0,_RNCNvMNtCskrSqHInbZEk_15loam_spine_core6backupNtB4_11SpineBackup9from_json0B6_
FNDA:0,_RNvMNtCskrSqHInbZEk_15loam_spine_core6backupNtB2_11SpineBackup3new
FNDA:0,_RNvMNtCskrSqHInbZEk_15loam_spine_core6backupNtB2_11SpineBackup6verify
FNDA:0,_RNvMNtCskrSqHInbZEk_15loam_spine_core6backupNtB2_11SpineBackup7to_json
FNDA:0,_RNvMNtCskrSqHInbZEk_15loam_spine_core6backupNtB2_11SpineBackup9from_json
FNDA:0,_RNvMs0_NtCskrSqHInbZEk_15loam_spine_core6backupNtB5_18BackupVerification5valid
FNDA:0,_RNvMs0_NtCskrSqHInbZEk_15loam_spine_core6backupNtB5_18BackupVerification7invalid
FNDA:0,_RNvMs_NtCskrSqHInbZEk_15loam_spine_core6backupNtB4_16MultiSpineBackup3new
FNDA:0,_RNvMs_NtCskrSqHInbZEk_15loam_spine_core6backupNtB4_16MultiSpineBackup6verify
FNDA:0,_RINvMNtCskrSqHInbZEk_15loam_spine_core6backupNtB3_11SpineBackup16with_descriptionpEB5_
FNDA:0,_RINvMNtCskrSqHInbZEk_15loam_spine_core6backupNtB3_11SpineBackup6exportpEB5_
FNDA:0,_RINvMNtCskrSqHInbZEk_15loam_spine_core6backupNtB3_11SpineBackup6importpEB5_
FNDA:0,_RNCINvMNtCskrSqHInbZEk_15loam_spine_core6backupNtB5_11SpineBackup6exportpE0B7_
FNDA:0,_RNCINvMNtCskrSqHInbZEk_15loam_spine_core6backupNtB5_11SpineBackup6exportpEs0_0B7_
FNDA:0,_RNCINvMNtCskrSqHInbZEk_15loam_spine_core6backupNtB5_11SpineBackup6exportpEs1_0B7_
FNDA:0,_RNCINvMNtCskrSqHInbZEk_15loam_spine_core6backupNtB5_11SpineBackup6exportpEs_0B7_
FNDA:0,_RNCINvMNtCskrSqHInbZEk_15loam_spine_core6backupNtB5_11SpineBackup6importpE0B7_
FNDA:0,_RNCINvMNtCskrSqHInbZEk_15loam_spine_core6backupNtB5_11SpineBackup6importpEs0_0B7_
FNDA:0,_RNCINvMNtCskrSqHInbZEk_15loam_spine_core6backupNtB5_11SpineBackup6importpEs1_0B7_
FNDA:0,_RNCINvMNtCskrSqHInbZEk_15loam_spine_core6backupNtB5_11SpineBackup6importpEs_0B7_
FNDA:1,_RNCNvNtNtCsiWUamAnYf7P_15loam_spine_core6backup5testss_27backup_verify_version_error0B7_
FNDA:1,_RNCNvNtNtCsiWUamAnYf7P_15loam_spine_core6backup5testss_33backup_verify_invalid_entry_index0B7_
FNDA:1,_RNCNvNtNtCsiWUamAnYf7P_15loam_spine_core6backup5testss_34backup_verify_entry_count_mismatch0B7_
FNDA:1,_RNCNvNtNtCsiWUamAnYf7P_15loam_spine_core6backup5testss_35backup_verify_genesis_with_previouss_0B7_
FNDA:1,_RNCNvNtNtCsiWUamAnYf7P_15loam_spine_core6backup5testss_37multi_spine_backup_with_invalid_spine0B7_
FNDA:17,_RNvNtNtCsiWUamAnYf7P_15loam_spine_core6backup5tests17create_test_spine
FNDA:1,_RNvNtNtCsiWUamAnYf7P_15loam_spine_core6backup5testss_18backup_error_clone
FNDA:1,_RNvNtNtCsiWUamAnYf7P_15loam_spine_core6backup5testss_18multi_spine_backup
FNDA:1,_RNvNtNtCsiWUamAnYf7P_15loam_spine_core6backup5testss_20backup_with_metadata
FNDA:1,_RNvNtNtCsiWUamAnYf7P_15loam_spine_core6backup5testss_21backup_error_variants
FNDA:1,_RNvNtNtCsiWUamAnYf7P_15loam_spine_core6backup5testss_21spine_backup_creation
FNDA:1,_RNvNtNtCsiWUamAnYf7P_15loam_spine_core6backup5testss_24backup_empty_description
FNDA:1,_RNvNtNtCsiWUamAnYf7P_15loam_spine_core6backup5testss_24backup_import_from_empty
FNDA:1,_RNvNtNtCsiWUamAnYf7P_15loam_spine_core6backup5testss_24multi_spine_backup_empty
FNDA:1,_RNvNtNtCsiWUamAnYf7P_15loam_spine_core6backup5testss_24multi_spine_backup_large
FNDA:1,_RNvNtNtCsiWUamAnYf7P_15loam_spine_core6backup5testss_24spine_backup_debug_clone
FNDA:1,_RNvNtNtCsiWUamAnYf7P_15loam_spine_core6backup5testss_25backup_error_all_variants
FNDA:1,_RNvNtNtCsiWUamAnYf7P_15loam_spine_core6backup5testss_25backup_json_serialization
FNDA:1,_RNvNtNtCsiWUamAnYf7P_15loam_spine_core6backup5testss_25backup_verification_valid
FNDA:1,_RNvNtNtCsiWUamAnYf7P_15loam_spine_core6backup5testss_25backup_with_large_dataset
FNDA:1,_RNvNtNtCsiWUamAnYf7P_15loam_spine_core6backup5testss_25spine_backup_verify_valid
FNDA:1,_RNvNtNtCsiWUamAnYf7P_15loam_spine_core6backup5testss_27backup_import_invalid_magic
FNDA:1,_RNvNtNtCsiWUamAnYf7P_15loam_spine_core6backup5testss_27backup_verification_invalid
FNDA:1,_RNvNtNtCsiWUamAnYf7P_15loam_spine_core6backup5testss_27backup_verify_version_error
FNDA:1,_RNvNtNtCsiWUamAnYf7P_15loam_spine_core6backup5testss_27spine_backup_json_roundtrip
FNDA:1,_RNvNtNtCsiWUamAnYf7P_15loam_spine_core6backup5testss_29spine_backup_with_description
FNDA:1,_RNvNtNtCsiWUamAnYf7P_15loam_spine_core6backup5testss_30backup_with_empty_certificates
FNDA:1,_RNvNtNtCsiWUamAnYf7P_15loam_spine_core6backup5testss_30multi_spine_backup_debug_clone
FNDA:1,_RNvNtNtCsiWUamAnYf7P_15loam_spine_core6backup5testss_31backup_verification_debug_clone
FNDA:1,_RNvNtNtCsiWUamAnYf7P_15loam_spine_core6backup5testss_33backup_verify_invalid_entry_index
FNDA:1,_RNvNtNtCsiWUamAnYf7P_15loam_spine_core6backup5testss_34backup_verify_entry_count_mismatch
FNDA:1,_RNvNtNtCsiWUamAnYf7P_15loam_spine_core6backup5testss_35backup_verify_genesis_with_previous
FNDA:1,_RNvNtNtCsiWUamAnYf7P_15loam_spine_core6backup5testss_36spine_backup_export_import_roundtrip
FNDA:1,_RNvNtNtCsiWUamAnYf7P_15loam_spine_core6backup5testss_37multi_spine_backup_with_invalid_spine
FNDA:4,_RINvMNtCsiWUamAnYf7P_15loam_spine_core6backupNtB3_11SpineBackup16with_descriptionReEB5_
FNDA:4,_RINvMNtCsiWUamAnYf7P_15loam_spine_core6backupNtB3_11SpineBackup6exportINtNtCs6bBekJvxEMJ_5alloc3vec3VechEEB5_
FNDA:6,_RINvMNtCsiWUamAnYf7P_15loam_spine_core6backupNtB3_11SpineBackup6importINtNtNtCseJswNlh1fGO_3std2io6cursor6CursorINtNtCs6bBekJvxEMJ_5alloc3vec3VechEEEB5_
FNDA:0,_RNCINvMNtCsiWUamAnYf7P_15loam_spine_core6backupNtB5_11SpineBackup6exportINtNtCs6bBekJvxEMJ_5alloc3vec3VechEE0B7_
FNDA:0,_RNCINvMNtCsiWUamAnYf7P_15loam_spine_core6backupNtB5_11SpineBackup6exportINtNtCs6bBekJvxEMJ_5alloc3vec3VechEEs0_0B7_
FNDA:0,_RNCINvMNtCsiWUamAnYf7P_15loam_spine_core6backupNtB5_11SpineBackup6exportINtNtCs6bBekJvxEMJ_5alloc3vec3VechEEs1_0B7_
FNDA:0,_RNCINvMNtCsiWUamAnYf7P_15loam_spine_core6backupNtB5_11SpineBackup6exportINtNtCs6bBekJvxEMJ_5alloc3vec3VechEEs_0B7_
FNDA:1,_RNCINvMNtCsiWUamAnYf7P_15loam_spine_core6backupNtB5_11SpineBackup6importINtNtNtCseJswNlh1fGO_3std2io6cursor6CursorINtNtCs6bBekJvxEMJ_5alloc3vec3VechEEE0B7_
FNDA:0,_RNCINvMNtCsiWUamAnYf7P_15loam_spine_core6backupNtB5_11SpineBackup6importINtNtNtCseJswNlh1fGO_3std2io6cursor6CursorINtNtCs6bBekJvxEMJ_5alloc3vec3VechEEEs0_0B7_
FNDA:0,_RNCINvMNtCsiWUamAnYf7P_15loam_spine_core6backupNtB5_11SpineBackup6importINtNtNtCseJswNlh1fGO_3std2io6cursor6CursorINtNtCs6bBekJvxEMJ_5alloc3vec3VechEEEs1_0B7_
FNDA:0,_RNCINvMNtCsiWUamAnYf7P_15loam_spine_core6backupNtB5_11SpineBackup6importINtNtNtCseJswNlh1fGO_3std2io6cursor6CursorINtNtCs6bBekJvxEMJ_5alloc3vec3VechEEEs_0B7_
FNDA:0,_RNCNvMNtCsiWUamAnYf7P_15loam_spine_core6backupNtB4_11SpineBackup7to_json0B6_
FNDA:0,_RNCNvMNtCsiWUamAnYf7P_15loam_spine_core6backupNtB4_11SpineBackup9from_json0B6_
FNDA:30,_RNvMNtCsiWUamAnYf7P_15loam_spine_core6backupNtB2_11SpineBackup3new
FNDA:31,_RNvMNtCsiWUamAnYf7P_15loam_spine_core6backupNtB2_11SpineBackup6verify
FNDA:1,_RNvMNtCsiWUamAnYf7P_15loam_spine_core6backupNtB2_11SpineBackup7to_json
FNDA:1,_RNvMNtCsiWUamAnYf7P_15loam_spine_core6backupNtB2_11SpineBackup9from_json
FNDA:31,_RNvMs0_NtCsiWUamAnYf7P_15loam_spine_core6backupNtB5_18BackupVerification5valid
FNDA:7,_RNvMs0_NtCsiWUamAnYf7P_15loam_spine_core6backupNtB5_18BackupVerification7invalid
FNDA:5,_RNvMs_NtCsiWUamAnYf7P_15loam_spine_core6backupNtB4_16MultiSpineBackup3new
FNDA:4,_RNvMs_NtCsiWUamAnYf7P_15loam_spine_core6backupNtB4_16MultiSpineBackup6verify
FNF:55
FNH:46
DA:46,30
DA:47,30
DA:48,30
DA:49,30
DA:50,30
DA:51,30
DA:52,30
DA:53,30
DA:54,30
DA:55,30
DA:59,4
DA:60,4
DA:61,4
DA:62,4
DA:71,31
DA:72,31
DA:73,31
DA:74,31
DA:75,31
DA:76,1
DA:77,1
DA:78,1
DA:79,1
DA:80,30
DA:85,31
DA:86,31
DA:87,2
DA:88,2
DA:89,2
DA:90,2
DA:91,29
DA:94,31
DA:95,130
DA:97,130
DA:98,1
DA:99,1
DA:100,1
DA:101,1
DA:102,129
DA:105,130
DA:106,130
DA:107,130
DA:108,130
DA:109,99
DA:110,99
DA:111,0
DA:112,99
DA:113,0
DA:116,31
DA:117,1
DA:118,30
DA:121,130
DA:124,31
DA:125,26
DA:127,5
DA:129,31
DA:136,4
DA:137,4
DA:138,4
DA:139,4
DA:140,4
DA:143,4
DA:144,4
DA:147,4
DA:148,4
DA:149,4
DA:150,4
DA:153,4
DA:154,4
DA:155,4
DA:157,4
DA:158,4
DA:165,6
DA:166,6
DA:167,6
DA:168,6
DA:169,6
DA:170,6
DA:172,5
DA:173,1
DA:174,1
DA:175,1
DA:176,4
DA:177,4
DA:178,4
DA:179,4
DA:180,4
DA:181,4
DA:182,4
DA:185,4
DA:186,4
DA:187,4
DA:188,4
DA:189,4
DA:190,4
DA:191,4
DA:194,4
DA:195,4
DA:197,4
DA:198,6
DA:205,1
DA:206,1
DA:207,1
DA:208,1
DA:215,1
DA:216,1
DA:217,1
DA:218,1
DA:240,5
DA:241,5
DA:242,5
DA:243,5
DA:244,5
DA:245,5
DA:246,5
DA:247,5
DA:251,4
DA:252,4
DA:254,14
DA:255,14
DA:256,14
DA:257,2
DA:258,1
DA:259,1
DA:260,1
DA:261,1
DA:262,1
DA:263,1
DA:264,13
DA:267,4
DA:268,3
DA:270,1
DA:272,4
DA:291,31
DA:292,31
DA:293,31
DA:294,31
DA:295,31
DA:296,31
DA:297,31
DA:301,7
DA:302,7
DA:303,7
DA:304,7
DA:305,7
DA:306,7
DA:307,7
DA:372,17
DA:373,17
DA:374,17
DA:375,17
DA:376,17
DA:377,17
DA:378,17
DA:379,17
DA:380,17
DA:381,17
DA:382,17
DA:383,17
DA:384,17
DA:385,17
DA:388,1
DA:389,1
DA:390,1
DA:391,1
DA:392,1
DA:393,1
DA:394,1
DA:395,1
DA:398,1
DA:399,1
DA:400,1
DA:401,1
DA:402,1
DA:403,1
DA:406,1
DA:407,1
DA:408,1
DA:409,1
DA:410,1
DA:411,1
DA:412,1
DA:413,1
DA:416,1
DA:417,1
DA:418,1
DA:419,1
DA:420,1
DA:421,1
DA:422,1
DA:423,1
DA:424,1
DA:425,1
DA:426,1
DA:427,1
DA:428,1
DA:429,1
DA:430,1
DA:431,1
DA:432,1
DA:433,1
DA:434,1
DA:435,1
DA:438,1
DA:439,1
DA:440,1
DA:441,1
DA:442,1
DA:443,1
DA:444,1
DA:445,1
DA:446,1
DA:449,1
DA:450,1
DA:451,1
DA:452,1
DA:453,1
DA:454,1
DA:455,1
DA:456,1
DA:457,1
DA:458,1
DA:460,1
DA:461,1
DA:462,1
DA:465,1
DA:466,1
DA:467,1
DA:468,1
DA:469,1
DA:472,1
DA:473,1
DA:474,1
DA:475,1
DA:476,1
DA:477,1
DA:479,1
DA:480,1
DA:481,1
DA:484,1
DA:485,1
DA:486,1
DA:487,1
DA:488,1
DA:491,1
DA:492,1
DA:493,1
DA:494,1
DA:495,1
DA:496,1
DA:499,1
DA:500,1
DA:501,1
DA:502,1
DA:503,1
DA:504,1
DA:505,1
DA:506,1
DA:509,1
DA:510,1
DA:511,1
DA:512,1
DA:513,1
DA:514,1
DA:517,1
DA:518,1
DA:519,1
DA:520,1
DA:521,1
DA:522,1
DA:525,1
DA:526,1
DA:527,1
DA:528,1
DA:529,1
DA:530,1
DA:531,1
DA:534,1
DA:535,1
DA:536,1
DA:539,1
DA:540,1
DA:541,1
DA:542,1
DA:543,1
DA:544,1
DA:545,1
DA:546,1
DA:547,1
DA:550,1
DA:551,1
DA:552,1
DA:553,1
DA:554,1
DA:555,1
DA:556,1
DA:557,1
DA:558,1
DA:559,1
DA:560,1
DA:561,1
DA:564,1
DA:565,1
DA:566,1
DA:567,1
DA:568,1
DA:569,1
DA:570,1
DA:571,1
DA:572,1
DA:573,1
DA:574,1
DA:575,1
DA:576,1
DA:579,1
DA:580,1
DA:581,1
DA:582,1
DA:583,1
DA:584,1
DA:585,1
DA:586,1
DA:587,1
DA:588,1
DA:589,1
DA:590,1
DA:591,1
DA:594,1
DA:597,1
DA:598,1
DA:599,1
DA:600,1
DA:601,1
DA:602,1
DA:603,1
DA:604,1
DA:605,1
DA:606,1
DA:607,1
DA:608,1
DA:609,1
DA:610,1
DA:611,1
DA:612,1
DA:613,1
DA:614,1
DA:615,1
DA:616,1
DA:617,1
DA:618,1
DA:619,1
DA:620,1
DA:621,1
DA:622,1
DA:623,1
DA:624,1
DA:627,1
DA:628,1
DA:629,1
DA:630,1
DA:631,1
DA:632,1
DA:633,1
DA:634,1
DA:635,1
DA:636,1
DA:637,1
DA:638,1
DA:639,1
DA:640,1
DA:641,1
DA:642,1
DA:643,1
DA:646,1
DA:647,1
DA:648,1
DA:649,1
DA:652,1
DA:653,1
DA:654,1
DA:657,1
DA:658,1
DA:659,1
DA:660,1
DA:661,1
DA:662,1
DA:665,1
DA:666,1
DA:667,1
DA:668,1
DA:669,1
DA:670,1
DA:673,1
DA:674,1
DA:675,1
DA:678,1
DA:679,1
DA:680,1
DA:681,1
DA:682,1
DA:683,1
DA:684,1
DA:687,1
DA:688,1
DA:689,1
DA:692,1
DA:693,1
DA:694,1
DA:695,1
DA:696,1
DA:697,1
DA:698,1
DA:699,1
DA:700,1
DA:701,1
DA:702,1
DA:703,1
DA:704,1
DA:705,1
DA:707,100
DA:708,99
DA:709,99
DA:710,99
DA:711,99
DA:712,99
DA:713,99
DA:714,99
DA:715,99
DA:716,99
DA:717,99
DA:719,1
DA:720,1
DA:721,1
DA:722,1
DA:723,1
DA:726,1
DA:727,1
DA:728,1
DA:729,1
DA:730,1
DA:732,1
DA:733,1
DA:734,1
DA:735,1
DA:738,1
DA:739,1
DA:740,1
DA:741,1
DA:742,1
DA:743,1
DA:744,1
DA:745,1
DA:746,1
DA:747,1
DA:748,1
DA:749,1
DA:750,1
DA:751,1
DA:752,1
DA:753,1
DA:755,1
DA:756,1
DA:759,1
DA:760,1
DA:761,1
DA:762,1
DA:763,1
DA:764,1
DA:765,1
DA:766,1
DA:767,1
DA:768,1
DA:771,1
DA:772,1
DA:773,1
DA:774,1
DA:775,1
DA:776,1
DA:777,1
DA:778,1
DA:781,1
DA:782,1
DA:783,1
DA:784,1
DA:787,1
DA:788,1
DA:789,1
DA:790,1
DA:791,1
DA:792,1
DA:793,1
DA:796,1
DA:797,1
DA:798,1
DA:799,1
DA:800,1
DA:801,1
DA:802,1
DA:803,1
DA:804,1
DA:807,1
DA:808,1
DA:809,1
DA:811,1
DA:812,1
DA:813,1
DA:816,1
DA:817,1
DA:818,11
DA:819,10
DA:820,10
DA:821,10
DA:822,10
DA:823,10
DA:824,10
DA:825,10
DA:826,10
DA:827,10
DA:828,10
DA:829,10
DA:831,1
DA:832,1
DA:834,1
DA:835,1
DA:838,11
DA:839,10
DA:840,10
DA:842,1
DA:845,1
DA:846,1
DA:847,1
DA:848,1
DA:849,1
DA:850,1
DA:851,1
DA:852,1
DA:853,1
DA:856,1
DA:857,1
DA:858,1
DA:859,1
DA:860,1
DA:861,1
DA:862,1
BRF:0
BRH:0
LF:559
LH:548
end_of_record
SF:/path/to/ecoPrimals/phase2/loamSpine/crates/loam-spine-core/src/certificate.rs
FN:122,_RNvMNtCskrSqHInbZEk_15loam_spine_core11certificateNtB2_11Certificate10is_revoked
FN:134,_RNvMNtCskrSqHInbZEk_15loam_spine_core11certificateNtB2_11Certificate13with_metadata
FN:128,_RNvMNtCskrSqHInbZEk_15loam_spine_core11certificateNtB2_11Certificate16effective_holder
FN:80,_RNvMNtCskrSqHInbZEk_15loam_spine_core11certificateNtB2_11Certificate3new
FN:110,_RNvMNtCskrSqHInbZEk_15loam_spine_core11certificateNtB2_11Certificate9is_active
FN:116,_RNvMNtCskrSqHInbZEk_15loam_spine_core11certificateNtB2_11Certificate9is_loaned
FN:343,_RNvMs0_NtCskrSqHInbZEk_15loam_spine_core11certificateNtB5_8MintInfo3new
FN:491,_RNvMs1_NtCskrSqHInbZEk_15loam_spine_core11certificateNtB5_9LoanTerms12with_sublend
FN:477,_RNvMs1_NtCskrSqHInbZEk_15loam_spine_core11certificateNtB5_9LoanTerms13with_duration
FN:484,_RNvMs1_NtCskrSqHInbZEk_15loam_spine_core11certificateNtB5_9LoanTerms16with_auto_return
FN:471,_RNvMs1_NtCskrSqHInbZEk_15loam_spine_core11certificateNtB5_9LoanTerms3new
FN:516,_RNvMs2_NtCskrSqHInbZEk_15loam_spine_core11certificateNtB5_19CertificateMetadata3new
FN:279,_RNvMs_NtCskrSqHInbZEk_15loam_spine_core11certificateNtB4_15CertificateType10can_expire
FN:264,_RNvMs_NtCskrSqHInbZEk_15loam_spine_core11certificateNtB4_15CertificateType8category
FN:536,_RINvMs2_NtCskrSqHInbZEk_15loam_spine_core11certificateNtB6_19CertificateMetadata14with_attributeppEB8_
FN:529,_RINvMs2_NtCskrSqHInbZEk_15loam_spine_core11certificateNtB6_19CertificateMetadata16with_descriptionpEB8_
FN:522,_RINvMs2_NtCskrSqHInbZEk_15loam_spine_core11certificateNtB6_19CertificateMetadata9with_namepEB8_
FN:122,_RNvMNtCsiWUamAnYf7P_15loam_spine_core11certificateNtB2_11Certificate10is_revoked
FN:536,_RINvMs2_NtCsiWUamAnYf7P_15loam_spine_core11certificateNtB6_19CertificateMetadata14with_attributeReB1w_EB8_
FN:529,_RINvMs2_NtCsiWUamAnYf7P_15loam_spine_core11certificateNtB6_19CertificateMetadata16with_descriptionReEB8_
FN:522,_RINvMs2_NtCsiWUamAnYf7P_15loam_spine_core11certificateNtB6_19CertificateMetadata9with_nameReEB8_
FN:718,_RNvNtNtCsiWUamAnYf7P_15loam_spine_core11certificate5testss_16effective_holder
FN:653,_RNvNtNtCsiWUamAnYf7P_15loam_spine_core11certificate5testss_18loan_terms_builder
FN:616,_RNvNtNtCsiWUamAnYf7P_15loam_spine_core11certificate5testss_20certificate_creation
FN:639,_RNvNtNtCsiWUamAnYf7P_15loam_spine_core11certificate5testss_20certificate_metadata
FN:689,_RNvNtNtCsiWUamAnYf7P_15loam_spine_core11certificate5testss_22certificate_can_expire
FN:707,_RNvNtNtCsiWUamAnYf7P_15loam_spine_core11certificate5testss_24certificate_state_checks
FN:665,_RNvNtNtCsiWUamAnYf7P_15loam_spine_core11certificate5testss_25certificate_type_category
FN:134,_RNvMNtCsiWUamAnYf7P_15loam_spine_core11certificateNtB2_11Certificate13with_metadata
FN:128,_RNvMNtCsiWUamAnYf7P_15loam_spine_core11certificateNtB2_11Certificate16effective_holder
FN:80,_RNvMNtCsiWUamAnYf7P_15loam_spine_core11certificateNtB2_11Certificate3new
FN:110,_RNvMNtCsiWUamAnYf7P_15loam_spine_core11certificateNtB2_11Certificate9is_active
FN:116,_RNvMNtCsiWUamAnYf7P_15loam_spine_core11certificateNtB2_11Certificate9is_loaned
FN:343,_RNvMs0_NtCsiWUamAnYf7P_15loam_spine_core11certificateNtB5_8MintInfo3new
FN:491,_RNvMs1_NtCsiWUamAnYf7P_15loam_spine_core11certificateNtB5_9LoanTerms12with_sublend
FN:477,_RNvMs1_NtCsiWUamAnYf7P_15loam_spine_core11certificateNtB5_9LoanTerms13with_duration
FN:484,_RNvMs1_NtCsiWUamAnYf7P_15loam_spine_core11certificateNtB5_9LoanTerms16with_auto_return
FN:471,_RNvMs1_NtCsiWUamAnYf7P_15loam_spine_core11certificateNtB5_9LoanTerms3new
FN:516,_RNvMs2_NtCsiWUamAnYf7P_15loam_spine_core11certificateNtB5_19CertificateMetadata3new
FN:279,_RNvMs_NtCsiWUamAnYf7P_15loam_spine_core11certificateNtB4_15CertificateType10can_expire
FN:264,_RNvMs_NtCsiWUamAnYf7P_15loam_spine_core11certificateNtB4_15CertificateType8category
FNDA:0,_RNvMNtCskrSqHInbZEk_15loam_spine_core11certificateNtB2_11Certificate10is_revoked
FNDA:0,_RNvMNtCskrSqHInbZEk_15loam_spine_core11certificateNtB2_11Certificate13with_metadata
FNDA:0,_RNvMNtCskrSqHInbZEk_15loam_spine_core11certificateNtB2_11Certificate16effective_holder
FNDA:181,_RNvMNtCskrSqHInbZEk_15loam_spine_core11certificateNtB2_11Certificate3new
FNDA:0,_RNvMNtCskrSqHInbZEk_15loam_spine_core11certificateNtB2_11Certificate9is_active
FNDA:63,_RNvMNtCskrSqHInbZEk_15loam_spine_core11certificateNtB2_11Certificate9is_loaned
FNDA:0,_RNvMs0_NtCskrSqHInbZEk_15loam_spine_core11certificateNtB5_8MintInfo3new
FNDA:0,_RNvMs1_NtCskrSqHInbZEk_15loam_spine_core11certificateNtB5_9LoanTerms12with_sublend
FNDA:53,_RNvMs1_NtCskrSqHInbZEk_15loam_spine_core11certificateNtB5_9LoanTerms13with_duration
FNDA:0,_RNvMs1_NtCskrSqHInbZEk_15loam_spine_core11certificateNtB5_9LoanTerms16with_auto_return
FNDA:54,_RNvMs1_NtCskrSqHInbZEk_15loam_spine_core11certificateNtB5_9LoanTerms3new
FNDA:0,_RNvMs2_NtCskrSqHInbZEk_15loam_spine_core11certificateNtB5_19CertificateMetadata3new
FNDA:0,_RNvMs_NtCskrSqHInbZEk_15loam_spine_core11certificateNtB4_15CertificateType10can_expire
FNDA:0,_RNvMs_NtCskrSqHInbZEk_15loam_spine_core11certificateNtB4_15CertificateType8category
FNDA:0,_RINvMs2_NtCskrSqHInbZEk_15loam_spine_core11certificateNtB6_19CertificateMetadata14with_attributeppEB8_
FNDA:0,_RINvMs2_NtCskrSqHInbZEk_15loam_spine_core11certificateNtB6_19CertificateMetadata16with_descriptionpEB8_
FNDA:0,_RINvMs2_NtCskrSqHInbZEk_15loam_spine_core11certificateNtB6_19CertificateMetadata9with_namepEB8_
FNDA:0,_RNvMNtCsiWUamAnYf7P_15loam_spine_core11certificateNtB2_11Certificate10is_revoked
FNDA:1,_RINvMs2_NtCsiWUamAnYf7P_15loam_spine_core11certificateNtB6_19CertificateMetadata14with_attributeReB1w_EB8_
FNDA:1,_RINvMs2_NtCsiWUamAnYf7P_15loam_spine_core11certificateNtB6_19CertificateMetadata16with_descriptionReEB8_
FNDA:2,_RINvMs2_NtCsiWUamAnYf7P_15loam_spine_core11certificateNtB6_19CertificateMetadata9with_nameReEB8_
FNDA:1,_RNvNtNtCsiWUamAnYf7P_15loam_spine_core11certificate5testss_16effective_holder
FNDA:1,_RNvNtNtCsiWUamAnYf7P_15loam_spine_core11certificate5testss_18loan_terms_builder
FNDA:1,_RNvNtNtCsiWUamAnYf7P_15loam_spine_core11certificate5testss_20certificate_creation
FNDA:1,_RNvNtNtCsiWUamAnYf7P_15loam_spine_core11certificate5testss_20certificate_metadata
FNDA:1,_RNvNtNtCsiWUamAnYf7P_15loam_spine_core11certificate5testss_22certificate_can_expire
FNDA:1,_RNvNtNtCsiWUamAnYf7P_15loam_spine_core11certificate5testss_24certificate_state_checks
FNDA:1,_RNvNtNtCsiWUamAnYf7P_15loam_spine_core11certificate5testss_25certificate_type_category
FNDA:15,_RNvMNtCsiWUamAnYf7P_15loam_spine_core11certificateNtB2_11Certificate13with_metadata
FNDA:2,_RNvMNtCsiWUamAnYf7P_15loam_spine_core11certificateNtB2_11Certificate16effective_holder
FNDA:20,_RNvMNtCsiWUamAnYf7P_15loam_spine_core11certificateNtB2_11Certificate3new
FNDA:3,_RNvMNtCsiWUamAnYf7P_15loam_spine_core11certificateNtB2_11Certificate9is_active
FNDA:16,_RNvMNtCsiWUamAnYf7P_15loam_spine_core11certificateNtB2_11Certificate9is_loaned
FNDA:17,_RNvMs0_NtCsiWUamAnYf7P_15loam_spine_core11certificateNtB5_8MintInfo3new
FNDA:1,_RNvMs1_NtCsiWUamAnYf7P_15loam_spine_core11certificateNtB5_9LoanTerms12with_sublend
FNDA:5,_RNvMs1_NtCsiWUamAnYf7P_15loam_spine_core11certificateNtB5_9LoanTerms13with_duration
FNDA:6,_RNvMs1_NtCsiWUamAnYf7P_15loam_spine_core11certificateNtB5_9LoanTerms16with_auto_return
FNDA:11,_RNvMs1_NtCsiWUamAnYf7P_15loam_spine_core11certificateNtB5_9LoanTerms3new
FNDA:16,_RNvMs2_NtCsiWUamAnYf7P_15loam_spine_core11certificateNtB5_19CertificateMetadata3new
FNDA:2,_RNvMs_NtCsiWUamAnYf7P_15loam_spine_core11certificateNtB4_15CertificateType10can_expire
FNDA:17,_RNvMs_NtCsiWUamAnYf7P_15loam_spine_core11certificateNtB4_15CertificateType8category
FNF:24
FNH:23
DA:80,201
DA:81,201
DA:82,201
DA:83,201
DA:84,201
DA:85,201
DA:86,201
DA:87,201
DA:88,201
DA:89,201
DA:90,201
DA:91,201
DA:92,201
DA:93,201
DA:94,201
DA:95,201
DA:96,201
DA:97,201
DA:98,201
DA:99,201
DA:100,201
DA:101,201
DA:102,201
DA:103,201
DA:104,201
DA:105,201
DA:106,201
DA:110,3
DA:111,3
DA:112,3
DA:116,79
DA:117,79
DA:118,79
DA:122,0
DA:123,0
DA:124,0
DA:128,2
DA:129,2
DA:130,2
DA:134,15
DA:135,15
DA:136,15
DA:137,15
DA:264,17
DA:265,17
DA:270,16
DA:271,1
DA:272,0
DA:273,0
DA:275,17
DA:279,2
DA:280,1
DA:281,1
DA:290,2
DA:343,17
DA:344,17
DA:345,17
DA:346,17
DA:347,17
DA:348,17
DA:349,17
DA:350,17
DA:351,17
DA:471,65
DA:472,65
DA:473,65
DA:477,58
DA:478,58
DA:479,58
DA:480,58
DA:484,6
DA:485,6
DA:486,6
DA:487,6
DA:491,1
DA:492,1
DA:493,1
DA:494,1
DA:495,1
DA:516,16
DA:517,16
DA:518,16
DA:522,2
DA:523,2
DA:524,2
DA:525,2
DA:529,1
DA:530,1
DA:531,1
DA:532,1
DA:536,1
DA:537,1
DA:538,1
DA:539,1
DA:616,1
DA:617,1
DA:618,1
DA:619,1
DA:620,1
DA:621,1
DA:622,1
DA:623,1
DA:624,1
DA:625,1
DA:626,1
DA:627,1
DA:628,1
DA:629,1
DA:630,1
DA:631,1
DA:632,1
DA:633,1
DA:634,1
DA:635,1
DA:636,1
DA:639,1
DA:640,1
DA:641,1
DA:642,1
DA:643,1
DA:644,1
DA:645,1
DA:646,1
DA:647,1
DA:648,1
DA:649,1
DA:650,1
DA:653,1
DA:654,1
DA:655,1
DA:656,1
DA:657,1
DA:658,1
DA:659,1
DA:660,1
DA:661,1
DA:662,1
DA:665,1
DA:666,1
DA:667,1
DA:668,1
DA:669,1
DA:670,1
DA:671,1
DA:672,1
DA:673,1
DA:674,1
DA:676,1
DA:677,1
DA:678,1
DA:679,1
DA:680,1
DA:681,1
DA:682,1
DA:683,1
DA:684,1
DA:685,1
DA:686,1
DA:689,1
DA:690,1
DA:691,1
DA:692,1
DA:693,1
DA:694,1
DA:695,1
DA:697,1
DA:698,1
DA:699,1
DA:700,1
DA:701,1
DA:702,1
DA:703,1
DA:704,1
DA:707,1
DA:708,1
DA:709,1
DA:711,1
DA:712,1
DA:713,1
DA:714,1
DA:715,1
DA:718,1
DA:719,1
DA:720,1
DA:721,1
DA:722,1
DA:723,1
DA:724,1
DA:725,1
DA:726,1
DA:727,1
DA:728,1
DA:729,1
DA:730,1
DA:731,1
DA:732,1
DA:733,1
DA:734,1
DA:735,1
DA:736,1
DA:739,1
DA:740,1
DA:741,1
DA:742,1
BRF:0
BRH:0
LF:204
LH:199
end_of_record
SF:/path/to/ecoPrimals/phase2/loamSpine/crates/loam-spine-core/src/config.rs
FN:152,_RNCNvXs_NtCskrSqHInbZEk_15loam_spine_core6configNtB6_15DiscoveryConfigNtNtCs9sjCchOt1K7_4core7default7Default7default0B8_
FN:154,_RNCNvXs_NtCskrSqHInbZEk_15loam_spine_core6configNtB6_15DiscoveryConfigNtNtCs9sjCchOt1K7_4core7default7Default7defaults_0B8_
FN:242,_RINvMs1_NtCskrSqHInbZEk_15loam_spine_core6configNtB6_15LoamSpineConfig13with_songbirdpEB8_
FN:194,_RINvMs1_NtCskrSqHInbZEk_15loam_spine_core6configNtB6_15LoamSpineConfig17with_storage_pathpEB8_
FN:231,_RINvMs1_NtCskrSqHInbZEk_15loam_spine_core6configNtB6_15LoamSpineConfig22with_discovery_servicepEB8_
FN:185,_RINvMs1_NtCskrSqHInbZEk_15loam_spine_core6configNtB6_15LoamSpineConfig3newpEB8_
FN:215,_RNvMs1_NtCskrSqHInbZEk_15loam_spine_core6configNtB5_15LoamSpineConfig14with_discovery
FN:201,_RNvMs1_NtCskrSqHInbZEk_15loam_spine_core6configNtB5_15LoamSpineConfig16with_auto_rollup
FN:208,_RNvMs1_NtCskrSqHInbZEk_15loam_spine_core6configNtB5_15LoamSpineConfig16with_replication
FN:109,_RNvXNtCskrSqHInbZEk_15loam_spine_core6configNtB2_20HeartbeatRetryConfigNtNtCs9sjCchOt1K7_4core7default7Default7default
FN:170,_RNvXs0_NtCskrSqHInbZEk_15loam_spine_core6configNtB5_15LoamSpineConfigNtNtCs9sjCchOt1K7_4core7default7Default7default
FN:137,_RNvXs_NtCskrSqHInbZEk_15loam_spine_core6configNtB4_15DiscoveryConfigNtNtCs9sjCchOt1K7_4core7default7Default7default
FN:201,_RNvMs1_NtCsiWUamAnYf7P_15loam_spine_core6configNtB5_15LoamSpineConfig16with_auto_rollup
FN:208,_RNvMs1_NtCsiWUamAnYf7P_15loam_spine_core6configNtB5_15LoamSpineConfig16with_replication
FN:109,_RNvXNtCsiWUamAnYf7P_15loam_spine_core6configNtB2_20HeartbeatRetryConfigNtNtCs9sjCchOt1K7_4core7default7Default7default
FN:170,_RNvXs0_NtCsiWUamAnYf7P_15loam_spine_core6configNtB5_15LoamSpineConfigNtNtCs9sjCchOt1K7_4core7default7Default7default
FN:137,_RNvXs_NtCsiWUamAnYf7P_15loam_spine_core6configNtB4_15DiscoveryConfigNtNtCs9sjCchOt1K7_4core7default7Default7default
FN:242,_RINvMs1_NtCsiWUamAnYf7P_15loam_spine_core6configNtB6_15LoamSpineConfig13with_songbirdpEB8_
FN:231,_RINvMs1_NtCsiWUamAnYf7P_15loam_spine_core6configNtB6_15LoamSpineConfig22with_discovery_servicepEB8_
FN:215,_RNvMs1_NtCsiWUamAnYf7P_15loam_spine_core6configNtB5_15LoamSpineConfig14with_discovery
FN:194,_RINvMs1_NtCsiWUamAnYf7P_15loam_spine_core6configNtB6_15LoamSpineConfig17with_storage_pathReEB8_
FN:185,_RINvMs1_NtCsiWUamAnYf7P_15loam_spine_core6configNtB6_15LoamSpineConfig3newReEB8_
FN:152,_RNCNvXs_NtCsiWUamAnYf7P_15loam_spine_core6configNtB6_15DiscoveryConfigNtNtCs9sjCchOt1K7_4core7default7Default7default0B8_
FN:154,_RNCNvXs_NtCsiWUamAnYf7P_15loam_spine_core6configNtB6_15DiscoveryConfigNtNtCs9sjCchOt1K7_4core7default7Default7defaults_0B8_
FN:260,_RNvNtNtCsiWUamAnYf7P_15loam_spine_core6config5testss_14config_builder
FN:252,_RNvNtNtCsiWUamAnYf7P_15loam_spine_core6config5testss_14default_config
FNDA:0,_RNCNvXs_NtCskrSqHInbZEk_15loam_spine_core6configNtB6_15DiscoveryConfigNtNtCs9sjCchOt1K7_4core7default7Default7default0B8_
FNDA:0,_RNCNvXs_NtCskrSqHInbZEk_15loam_spine_core6configNtB6_15DiscoveryConfigNtNtCs9sjCchOt1K7_4core7default7Default7defaults_0B8_
FNDA:0,_RINvMs1_NtCskrSqHInbZEk_15loam_spine_core6configNtB6_15LoamSpineConfig13with_songbirdpEB8_
FNDA:0,_RINvMs1_NtCskrSqHInbZEk_15loam_spine_core6configNtB6_15LoamSpineConfig17with_storage_pathpEB8_
FNDA:0,_RINvMs1_NtCskrSqHInbZEk_15loam_spine_core6configNtB6_15LoamSpineConfig22with_discovery_servicepEB8_
FNDA:0,_RINvMs1_NtCskrSqHInbZEk_15loam_spine_core6configNtB6_15LoamSpineConfig3newpEB8_
FNDA:0,_RNvMs1_NtCskrSqHInbZEk_15loam_spine_core6configNtB5_15LoamSpineConfig14with_discovery
FNDA:0,_RNvMs1_NtCskrSqHInbZEk_15loam_spine_core6configNtB5_15LoamSpineConfig16with_auto_rollup
FNDA:0,_RNvMs1_NtCskrSqHInbZEk_15loam_spine_core6configNtB5_15LoamSpineConfig16with_replication
FNDA:0,_RNvXNtCskrSqHInbZEk_15loam_spine_core6configNtB2_20HeartbeatRetryConfigNtNtCs9sjCchOt1K7_4core7default7Default7default
FNDA:0,_RNvXs0_NtCskrSqHInbZEk_15loam_spine_core6configNtB5_15LoamSpineConfigNtNtCs9sjCchOt1K7_4core7default7Default7default
FNDA:0,_RNvXs_NtCskrSqHInbZEk_15loam_spine_core6configNtB4_15DiscoveryConfigNtNtCs9sjCchOt1K7_4core7default7Default7default
FNDA:1,_RNvMs1_NtCsiWUamAnYf7P_15loam_spine_core6configNtB5_15LoamSpineConfig16with_auto_rollup
FNDA:1,_RNvMs1_NtCsiWUamAnYf7P_15loam_spine_core6configNtB5_15LoamSpineConfig16with_replication
FNDA:26,_RNvXNtCsiWUamAnYf7P_15loam_spine_core6configNtB2_20HeartbeatRetryConfigNtNtCs9sjCchOt1K7_4core7default7Default7default
FNDA:26,_RNvXs0_NtCsiWUamAnYf7P_15loam_spine_core6configNtB5_15LoamSpineConfigNtNtCs9sjCchOt1K7_4core7default7Default7default
FNDA:26,_RNvXs_NtCsiWUamAnYf7P_15loam_spine_core6configNtB4_15DiscoveryConfigNtNtCs9sjCchOt1K7_4core7default7Default7default
FNDA:0,_RINvMs1_NtCsiWUamAnYf7P_15loam_spine_core6configNtB6_15LoamSpineConfig13with_songbirdpEB8_
FNDA:0,_RINvMs1_NtCsiWUamAnYf7P_15loam_spine_core6configNtB6_15LoamSpineConfig22with_discovery_servicepEB8_
FNDA:0,_RNvMs1_NtCsiWUamAnYf7P_15loam_spine_core6configNtB5_15LoamSpineConfig14with_discovery
FNDA:7,_RINvMs1_NtCsiWUamAnYf7P_15loam_spine_core6configNtB6_15LoamSpineConfig17with_storage_pathReEB8_
FNDA:2,_RINvMs1_NtCsiWUamAnYf7P_15loam_spine_core6configNtB6_15LoamSpineConfig3newReEB8_
FNDA:26,_RNCNvXs_NtCsiWUamAnYf7P_15loam_spine_core6configNtB6_15DiscoveryConfigNtNtCs9sjCchOt1K7_4core7default7Default7default0B8_
FNDA:26,_RNCNvXs_NtCsiWUamAnYf7P_15loam_spine_core6configNtB6_15DiscoveryConfigNtNtCs9sjCchOt1K7_4core7default7Default7defaults_0B8_
FNDA:1,_RNvNtNtCsiWUamAnYf7P_15loam_spine_core6config5testss_14config_builder
FNDA:1,_RNvNtNtCsiWUamAnYf7P_15loam_spine_core6config5testss_14default_config
FNF:14
FNH:11
DA:109,26
DA:110,26
DA:111,26
DA:112,26
DA:113,26
DA:114,26
DA:115,26
DA:137,26
DA:138,26
DA:139,26
DA:140,26
DA:141,26
DA:142,26
DA:143,26
DA:144,26
DA:145,26
DA:146,26
DA:147,26
DA:148,26
DA:149,26
DA:150,26
DA:151,26
DA:152,26
DA:153,26
DA:154,26
DA:155,26
DA:156,26
DA:157,26
DA:158,26
DA:159,26
DA:160,26
DA:161,26
DA:162,26
DA:163,26
DA:164,26
DA:165,26
DA:166,26
DA:170,26
DA:171,26
DA:172,26
DA:173,26
DA:174,26
DA:175,26
DA:176,26
DA:177,26
DA:178,26
DA:179,26
DA:185,2
DA:186,2
DA:187,2
DA:188,2
DA:189,2
DA:190,2
DA:194,7
DA:195,7
DA:196,7
DA:197,7
DA:201,1
DA:202,1
DA:203,1
DA:204,1
DA:208,1
DA:209,1
DA:210,1
DA:211,1
DA:215,0
DA:216,0
DA:217,0
DA:218,0
DA:231,0
DA:232,0
DA:233,0
DA:234,0
DA:235,0
DA:242,0
DA:243,0
DA:244,0
DA:252,1
DA:253,1
DA:254,1
DA:255,1
DA:256,1
DA:257,1
DA:260,1
DA:261,1
DA:262,1
DA:263,1
DA:264,1
DA:265,1
DA:266,1
DA:267,1
DA:268,1
DA:269,1
DA:270,1
BRF:0
BRH:0
LF:96
LH:84
end_of_record
SF:/path/to/ecoPrimals/phase2/loamSpine/crates/loam-spine-core/src/discovery.rs
FN:298,_RNvMs0_NtCskrSqHInbZEk_15loam_spine_core9discoveryNtB5_18CapabilityRegistry10get_signer
FN:372,_RNvMs0_NtCskrSqHInbZEk_15loam_spine_core9discoveryNtB5_18CapabilityRegistry12all_statuses
FN:341,_RNvMs0_NtCskrSqHInbZEk_15loam_spine_core9discoveryNtB5_18CapabilityRegistry12get_verifier
FN:304,_RNvMs0_NtCskrSqHInbZEk_15loam_spine_core9discoveryNtB5_18CapabilityRegistry13signer_status
FN:183,_RNvMs0_NtCskrSqHInbZEk_15loam_spine_core9discoveryNtB5_18CapabilityRegistry13with_songbird
FN:318,_RNvMs0_NtCskrSqHInbZEk_15loam_spine_core9discoveryNtB5_18CapabilityRegistry14require_signer
FN:284,_RNvMs0_NtCskrSqHInbZEk_15loam_spine_core9discoveryNtB5_18CapabilityRegistry15register_signer
FN:347,_RNvMs0_NtCskrSqHInbZEk_15loam_spine_core9discoveryNtB5_18CapabilityRegistry15verifier_status
FN:361,_RNvMs0_NtCskrSqHInbZEk_15loam_spine_core9discoveryNtB5_18CapabilityRegistry16require_verifier
FN:329,_RNvMs0_NtCskrSqHInbZEk_15loam_spine_core9discoveryNtB5_18CapabilityRegistry17register_verifier
FN:292,_RNvMs0_NtCskrSqHInbZEk_15loam_spine_core9discoveryNtB5_18CapabilityRegistry17unregister_signer
FN:265,_RNvMs0_NtCskrSqHInbZEk_15loam_spine_core9discoveryNtB5_18CapabilityRegistry18heartbeat_songbird
FN:335,_RNvMs0_NtCskrSqHInbZEk_15loam_spine_core9discoveryNtB5_18CapabilityRegistry19unregister_verifier
FN:240,_RNvMs0_NtCskrSqHInbZEk_15loam_spine_core9discoveryNtB5_18CapabilityRegistry21advertise_to_songbird
FN:380,_RNvMs0_NtCskrSqHInbZEk_15loam_spine_core9discoveryNtB5_18CapabilityRegistry22all_required_available
FN:200,_RNvMs0_NtCskrSqHInbZEk_15loam_spine_core9discoveryNtB5_18CapabilityRegistry22discover_from_songbird
FN:174,_RNvMs0_NtCskrSqHInbZEk_15loam_spine_core9discoveryNtB5_18CapabilityRegistry3new
FN:390,_RNvXs1_NtCskrSqHInbZEk_15loam_spine_core9discoveryNtB5_18CapabilityRegistryNtNtCs9sjCchOt1K7_4core3fmt5Debug3fmt
FN:321,_RNCNCNvMs0_NtCskrSqHInbZEk_15loam_spine_core9discoveryNtB9_18CapabilityRegistry14require_signer00Bb_
FN:364,_RNCNCNvMs0_NtCskrSqHInbZEk_15loam_spine_core9discoveryNtB9_18CapabilityRegistry16require_verifier00Bb_
FN:268,_RNCNCNvMs0_NtCskrSqHInbZEk_15loam_spine_core9discoveryNtB9_18CapabilityRegistry18heartbeat_songbird00Bb_
FN:247,_RNCNCNvMs0_NtCskrSqHInbZEk_15loam_spine_core9discoveryNtB9_18CapabilityRegistry21advertise_to_songbird00Bb_
FN:203,_RNCNCNvMs0_NtCskrSqHInbZEk_15loam_spine_core9discoveryNtB9_18CapabilityRegistry22discover_from_songbird00Bb_
FN:298,_RNCNvMs0_NtCskrSqHInbZEk_15loam_spine_core9discoveryNtB7_18CapabilityRegistry10get_signer0B9_
FN:372,_RNCNvMs0_NtCskrSqHInbZEk_15loam_spine_core9discoveryNtB7_18CapabilityRegistry12all_statuses0B9_
FN:341,_RNCNvMs0_NtCskrSqHInbZEk_15loam_spine_core9discoveryNtB7_18CapabilityRegistry12get_verifier0B9_
FN:304,_RNCNvMs0_NtCskrSqHInbZEk_15loam_spine_core9discoveryNtB7_18CapabilityRegistry13signer_status0B9_
FN:183,_RNCNvMs0_NtCskrSqHInbZEk_15loam_spine_core9discoveryNtB7_18CapabilityRegistry13with_songbird0B9_
FN:318,_RNCNvMs0_NtCskrSqHInbZEk_15loam_spine_core9discoveryNtB7_18CapabilityRegistry14require_signer0B9_
FN:284,_RNCNvMs0_NtCskrSqHInbZEk_15loam_spine_core9discoveryNtB7_18CapabilityRegistry15register_signer0B9_
FN:347,_RNCNvMs0_NtCskrSqHInbZEk_15loam_spine_core9discoveryNtB7_18CapabilityRegistry15verifier_status0B9_
FN:361,_RNCNvMs0_NtCskrSqHInbZEk_15loam_spine_core9discoveryNtB7_18CapabilityRegistry16require_verifier0B9_
FN:329,_RNCNvMs0_NtCskrSqHInbZEk_15loam_spine_core9discoveryNtB7_18CapabilityRegistry17register_verifier0B9_
FN:292,_RNCNvMs0_NtCskrSqHInbZEk_15loam_spine_core9discoveryNtB7_18CapabilityRegistry17unregister_signer0B9_
FN:265,_RNCNvMs0_NtCskrSqHInbZEk_15loam_spine_core9discoveryNtB7_18CapabilityRegistry18heartbeat_songbird0B9_
FN:335,_RNCNvMs0_NtCskrSqHInbZEk_15loam_spine_core9discoveryNtB7_18CapabilityRegistry19unregister_verifier0B9_
FN:244,_RNCNvMs0_NtCskrSqHInbZEk_15loam_spine_core9discoveryNtB7_18CapabilityRegistry21advertise_to_songbird0B9_
FN:380,_RNCNvMs0_NtCskrSqHInbZEk_15loam_spine_core9discoveryNtB7_18CapabilityRegistry22all_required_available0B9_
FN:200,_RNCNvMs0_NtCskrSqHInbZEk_15loam_spine_core9discoveryNtB7_18CapabilityRegistry22discover_from_songbird0B9_
FN:84,_RNCNvXININtCskrSqHInbZEk_15loam_spine_core9discovery0pEpNtB7_9DynSigner10sign_boxed0B9_
FN:138,_RNCNvXININtCskrSqHInbZEk_15loam_spine_core9discoverys_0pEpNtB7_11DynVerifier12verify_boxed0B9_
FN:151,_RNCNvXININtCskrSqHInbZEk_15loam_spine_core9discoverys_0pEpNtB7_11DynVerifier18verify_entry_boxed0B9_
FN:78,_RNvXININtCskrSqHInbZEk_15loam_spine_core9discovery0pEpNtB5_9DynSigner10sign_boxedB7_
FN:87,_RNvXININtCskrSqHInbZEk_15loam_spine_core9discovery0pEpNtB5_9DynSigner3didB7_
FN:126,_RNvXININtCskrSqHInbZEk_15loam_spine_core9discoverys_0pEpNtB5_11DynVerifier12verify_boxedB7_
FN:141,_RNvXININtCskrSqHInbZEk_15loam_spine_core9discoverys_0pEpNtB5_11DynVerifier18verify_entry_boxedB7_
FN:304,_RNCNvMs0_NtCskrSqHInbZEk_15loam_spine_core9discoveryNtB7_18CapabilityRegistry13signer_status0Cslk0Lj0FVdsD_3e2e
FN:347,_RNCNvMs0_NtCskrSqHInbZEk_15loam_spine_core9discoveryNtB7_18CapabilityRegistry15verifier_status0Cslk0Lj0FVdsD_3e2e
FN:527,_RNCNCNvNtNtCsiWUamAnYf7P_15loam_spine_core9discovery5testss_12all_statuses00B9_
FN:529,_RNCNCNvNtNtCsiWUamAnYf7P_15loam_spine_core9discovery5testss_12all_statuses0s_0B9_
FN:514,_RNCNvNtNtCsiWUamAnYf7P_15loam_spine_core9discovery5testss_12all_statuses0B7_
FN:403,_RNCNvNtNtCsiWUamAnYf7P_15loam_spine_core9discovery5testss_14empty_registry0B7_
FN:652,_RNCNvNtNtCsiWUamAnYf7P_15loam_spine_core9discovery5testss_14registry_clone0B7_
FN:419,_RNCNvNtNtCsiWUamAnYf7P_15loam_spine_core9discovery5testss_15register_signer0B7_
FN:433,_RNCNvNtNtCsiWUamAnYf7P_15loam_spine_core9discovery5testss_17register_verifier0B7_
FN:467,_RNCNvNtNtCsiWUamAnYf7P_15loam_spine_core9discovery5testss_19unregister_verifier0B7_
FN:565,_RNCNvNtNtCsiWUamAnYf7P_15loam_spine_core9discovery5testss_21dyn_signer_sign_boxed0B7_
FN:535,_RNCNvNtNtCsiWUamAnYf7P_15loam_spine_core9discovery5testss_22all_required_available0B7_
FN:449,_RNCNvNtNtCsiWUamAnYf7P_15loam_spine_core9discovery5testss_23register_and_unregister0B7_
FN:622,_RNCNvNtNtCsiWUamAnYf7P_15loam_spine_core9discovery5testss_25dyn_verifier_strict_fails0B7_
FN:584,_RNCNvNtNtCsiWUamAnYf7P_15loam_spine_core9discovery5testss_25dyn_verifier_verify_boxed0B7_
FN:487,_RNCNvNtNtCsiWUamAnYf7P_15loam_spine_core9discovery5testss_26require_missing_capability0B7_
FN:498,_RNCNvNtNtCsiWUamAnYf7P_15loam_spine_core9discovery5testss_29require_registered_capability0B7_
FN:601,_RNCNvNtNtCsiWUamAnYf7P_15loam_spine_core9discovery5testss_31dyn_verifier_verify_entry_boxed0B7_
FN:268,_RNCNCNvMs0_NtCsiWUamAnYf7P_15loam_spine_core9discoveryNtB9_18CapabilityRegistry18heartbeat_songbird00Bb_
FN:247,_RNCNCNvMs0_NtCsiWUamAnYf7P_15loam_spine_core9discoveryNtB9_18CapabilityRegistry21advertise_to_songbird00Bb_
FN:203,_RNCNCNvMs0_NtCsiWUamAnYf7P_15loam_spine_core9discoveryNtB9_18CapabilityRegistry22discover_from_songbird00Bb_
FN:183,_RNCNvMs0_NtCsiWUamAnYf7P_15loam_spine_core9discoveryNtB7_18CapabilityRegistry13with_songbird0B9_
FN:265,_RNCNvMs0_NtCsiWUamAnYf7P_15loam_spine_core9discoveryNtB7_18CapabilityRegistry18heartbeat_songbird0B9_
FN:244,_RNCNvMs0_NtCsiWUamAnYf7P_15loam_spine_core9discoveryNtB7_18CapabilityRegistry21advertise_to_songbird0B9_
FN:200,_RNCNvMs0_NtCsiWUamAnYf7P_15loam_spine_core9discoveryNtB7_18CapabilityRegistry22discover_from_songbird0B9_
FN:183,_RNvMs0_NtCsiWUamAnYf7P_15loam_spine_core9discoveryNtB5_18CapabilityRegistry13with_songbird
FN:265,_RNvMs0_NtCsiWUamAnYf7P_15loam_spine_core9discoveryNtB5_18CapabilityRegistry18heartbeat_songbird
FN:240,_RNvMs0_NtCsiWUamAnYf7P_15loam_spine_core9discoveryNtB5_18CapabilityRegistry21advertise_to_songbird
FN:200,_RNvMs0_NtCsiWUamAnYf7P_15loam_spine_core9discoveryNtB5_18CapabilityRegistry22discover_from_songbird
FN:514,_RNvNtNtCsiWUamAnYf7P_15loam_spine_core9discovery5testss_12all_statuses
FN:403,_RNvNtNtCsiWUamAnYf7P_15loam_spine_core9discovery5testss_14empty_registry
FN:652,_RNvNtNtCsiWUamAnYf7P_15loam_spine_core9discovery5testss_14registry_clone
FN:543,_RNvNtNtCsiWUamAnYf7P_15loam_spine_core9discovery5testss_14registry_debug
FN:419,_RNvNtNtCsiWUamAnYf7P_15loam_spine_core9discovery5testss_15register_signer
FN:433,_RNvNtNtCsiWUamAnYf7P_15loam_spine_core9discovery5testss_17register_verifier
FN:467,_RNvNtNtCsiWUamAnYf7P_15loam_spine_core9discovery5testss_19unregister_verifier
FN:565,_RNvNtNtCsiWUamAnYf7P_15loam_spine_core9discovery5testss_21dyn_signer_sign_boxed
FN:535,_RNvNtNtCsiWUamAnYf7P_15loam_spine_core9discovery5testss_22all_required_available
FN:449,_RNvNtNtCsiWUamAnYf7P_15loam_spine_core9discovery5testss_23register_and_unregister
FN:622,_RNvNtNtCsiWUamAnYf7P_15loam_spine_core9discovery5testss_25dyn_verifier_strict_fails
FN:584,_RNvNtNtCsiWUamAnYf7P_15loam_spine_core9discovery5testss_25dyn_verifier_verify_boxed
FN:550,_RNvNtNtCsiWUamAnYf7P_15loam_spine_core9discovery5testss_26capability_status_equality
FN:487,_RNvNtNtCsiWUamAnYf7P_15loam_spine_core9discovery5testss_26require_missing_capability
FN:639,_RNvNtNtCsiWUamAnYf7P_15loam_spine_core9discovery5testss_29capability_status_debug_clone
FN:498,_RNvNtNtCsiWUamAnYf7P_15loam_spine_core9discovery5testss_29require_registered_capability
FN:601,_RNvNtNtCsiWUamAnYf7P_15loam_spine_core9discovery5testss_31dyn_verifier_verify_entry_boxed
FN:298,_RNvMs0_NtCsiWUamAnYf7P_15loam_spine_core9discoveryNtB5_18CapabilityRegistry10get_signer
FN:372,_RNvMs0_NtCsiWUamAnYf7P_15loam_spine_core9discoveryNtB5_18CapabilityRegistry12all_statuses
FN:341,_RNvMs0_NtCsiWUamAnYf7P_15loam_spine_core9discoveryNtB5_18CapabilityRegistry12get_verifier
FN:304,_RNvMs0_NtCsiWUamAnYf7P_15loam_spine_core9discoveryNtB5_18CapabilityRegistry13signer_status
FN:318,_RNvMs0_NtCsiWUamAnYf7P_15loam_spine_core9discoveryNtB5_18CapabilityRegistry14require_signer
FN:284,_RNvMs0_NtCsiWUamAnYf7P_15loam_spine_core9discoveryNtB5_18CapabilityRegistry15register_signer
FN:347,_RNvMs0_NtCsiWUamAnYf7P_15loam_spine_core9discoveryNtB5_18CapabilityRegistry15verifier_status
FN:361,_RNvMs0_NtCsiWUamAnYf7P_15loam_spine_core9discoveryNtB5_18CapabilityRegistry16require_verifier
FN:329,_RNvMs0_NtCsiWUamAnYf7P_15loam_spine_core9discoveryNtB5_18CapabilityRegistry17register_verifier
FN:292,_RNvMs0_NtCsiWUamAnYf7P_15loam_spine_core9discoveryNtB5_18CapabilityRegistry17unregister_signer
FN:335,_RNvMs0_NtCsiWUamAnYf7P_15loam_spine_core9discoveryNtB5_18CapabilityRegistry19unregister_verifier
FN:380,_RNvMs0_NtCsiWUamAnYf7P_15loam_spine_core9discoveryNtB5_18CapabilityRegistry22all_required_available
FN:174,_RNvMs0_NtCsiWUamAnYf7P_15loam_spine_core9discoveryNtB5_18CapabilityRegistry3new
FN:390,_RNvXs1_NtCsiWUamAnYf7P_15loam_spine_core9discoveryNtB5_18CapabilityRegistryNtNtCs9sjCchOt1K7_4core3fmt5Debug3fmt
FN:321,_RNCNCNvMs0_NtCsiWUamAnYf7P_15loam_spine_core9discoveryNtB9_18CapabilityRegistry14require_signer00Bb_
FN:364,_RNCNCNvMs0_NtCsiWUamAnYf7P_15loam_spine_core9discoveryNtB9_18CapabilityRegistry16require_verifier00Bb_
FN:298,_RNCNvMs0_NtCsiWUamAnYf7P_15loam_spine_core9discoveryNtB7_18CapabilityRegistry10get_signer0B9_
FN:372,_RNCNvMs0_NtCsiWUamAnYf7P_15loam_spine_core9discoveryNtB7_18CapabilityRegistry12all_statuses0B9_
FN:341,_RNCNvMs0_NtCsiWUamAnYf7P_15loam_spine_core9discoveryNtB7_18CapabilityRegistry12get_verifier0B9_
FN:304,_RNCNvMs0_NtCsiWUamAnYf7P_15loam_spine_core9discoveryNtB7_18CapabilityRegistry13signer_status0B9_
FN:318,_RNCNvMs0_NtCsiWUamAnYf7P_15loam_spine_core9discoveryNtB7_18CapabilityRegistry14require_signer0B9_
FN:284,_RNCNvMs0_NtCsiWUamAnYf7P_15loam_spine_core9discoveryNtB7_18CapabilityRegistry15register_signer0B9_
FN:347,_RNCNvMs0_NtCsiWUamAnYf7P_15loam_spine_core9discoveryNtB7_18CapabilityRegistry15verifier_status0B9_
FN:361,_RNCNvMs0_NtCsiWUamAnYf7P_15loam_spine_core9discoveryNtB7_18CapabilityRegistry16require_verifier0B9_
FN:329,_RNCNvMs0_NtCsiWUamAnYf7P_15loam_spine_core9discoveryNtB7_18CapabilityRegistry17register_verifier0B9_
FN:292,_RNCNvMs0_NtCsiWUamAnYf7P_15loam_spine_core9discoveryNtB7_18CapabilityRegistry17unregister_signer0B9_
FN:335,_RNCNvMs0_NtCsiWUamAnYf7P_15loam_spine_core9discoveryNtB7_18CapabilityRegistry19unregister_verifier0B9_
FN:380,_RNCNvMs0_NtCsiWUamAnYf7P_15loam_spine_core9discoveryNtB7_18CapabilityRegistry22all_required_available0B9_
FN:84,_RNCNvXNtCsiWUamAnYf7P_15loam_spine_core9discoveryNtNtNtNtB6_6traits7signing7testing10MockSignerNtB4_9DynSigner10sign_boxed0B6_
FN:138,_RNCNvXs_NtCsiWUamAnYf7P_15loam_spine_core9discoveryNtNtNtNtB8_6traits7signing7testing12MockVerifierNtB6_11DynVerifier12verify_boxed0B8_
FN:151,_RNCNvXs_NtCsiWUamAnYf7P_15loam_spine_core9discoveryNtNtNtNtB8_6traits7signing7testing12MockVerifierNtB6_11DynVerifier18verify_entry_boxed0B8_
FN:78,_RNvXNtCsiWUamAnYf7P_15loam_spine_core9discoveryNtNtNtNtB4_6traits7signing7testing10MockSignerNtB2_9DynSigner10sign_boxedB4_
FN:87,_RNvXNtCsiWUamAnYf7P_15loam_spine_core9discoveryNtNtNtNtB4_6traits7signing7testing10MockSignerNtB2_9DynSigner3didB4_
FN:126,_RNvXs_NtCsiWUamAnYf7P_15loam_spine_core9discoveryNtNtNtNtB6_6traits7signing7testing12MockVerifierNtB4_11DynVerifier12verify_boxedB6_
FN:141,_RNvXs_NtCsiWUamAnYf7P_15loam_spine_core9discoveryNtNtNtNtB6_6traits7signing7testing12MockVerifierNtB4_11DynVerifier18verify_entry_boxedB6_
FNDA:0,_RNvMs0_NtCskrSqHInbZEk_15loam_spine_core9discoveryNtB5_18CapabilityRegistry10get_signer
FNDA:0,_RNvMs0_NtCskrSqHInbZEk_15loam_spine_core9discoveryNtB5_18CapabilityRegistry12all_statuses
FNDA:0,_RNvMs0_NtCskrSqHInbZEk_15loam_spine_core9discoveryNtB5_18CapabilityRegistry12get_verifier
FNDA:1,_RNvMs0_NtCskrSqHInbZEk_15loam_spine_core9discoveryNtB5_18CapabilityRegistry13signer_status
FNDA:0,_RNvMs0_NtCskrSqHInbZEk_15loam_spine_core9discoveryNtB5_18CapabilityRegistry13with_songbird
FNDA:0,_RNvMs0_NtCskrSqHInbZEk_15loam_spine_core9discoveryNtB5_18CapabilityRegistry14require_signer
FNDA:0,_RNvMs0_NtCskrSqHInbZEk_15loam_spine_core9discoveryNtB5_18CapabilityRegistry15register_signer
FNDA:1,_RNvMs0_NtCskrSqHInbZEk_15loam_spine_core9discoveryNtB5_18CapabilityRegistry15verifier_status
FNDA:0,_RNvMs0_NtCskrSqHInbZEk_15loam_spine_core9discoveryNtB5_18CapabilityRegistry16require_verifier
FNDA:0,_RNvMs0_NtCskrSqHInbZEk_15loam_spine_core9discoveryNtB5_18CapabilityRegistry17register_verifier
FNDA:0,_RNvMs0_NtCskrSqHInbZEk_15loam_spine_core9discoveryNtB5_18CapabilityRegistry17unregister_signer
FNDA:0,_RNvMs0_NtCskrSqHInbZEk_15loam_spine_core9discoveryNtB5_18CapabilityRegistry18heartbeat_songbird
FNDA:0,_RNvMs0_NtCskrSqHInbZEk_15loam_spine_core9discoveryNtB5_18CapabilityRegistry19unregister_verifier
FNDA:0,_RNvMs0_NtCskrSqHInbZEk_15loam_spine_core9discoveryNtB5_18CapabilityRegistry21advertise_to_songbird
FNDA:0,_RNvMs0_NtCskrSqHInbZEk_15loam_spine_core9discoveryNtB5_18CapabilityRegistry22all_required_available
FNDA:0,_RNvMs0_NtCskrSqHInbZEk_15loam_spine_core9discoveryNtB5_18CapabilityRegistry22discover_from_songbird
FNDA:73,_RNvMs0_NtCskrSqHInbZEk_15loam_spine_core9discoveryNtB5_18CapabilityRegistry3new
FNDA:0,_RNvXs1_NtCskrSqHInbZEk_15loam_spine_core9discoveryNtB5_18CapabilityRegistryNtNtCs9sjCchOt1K7_4core3fmt5Debug3fmt
FNDA:0,_RNCNCNvMs0_NtCskrSqHInbZEk_15loam_spine_core9discoveryNtB9_18CapabilityRegistry14require_signer00Bb_
FNDA:0,_RNCNCNvMs0_NtCskrSqHInbZEk_15loam_spine_core9discoveryNtB9_18CapabilityRegistry16require_verifier00Bb_
FNDA:0,_RNCNCNvMs0_NtCskrSqHInbZEk_15loam_spine_core9discoveryNtB9_18CapabilityRegistry18heartbeat_songbird00Bb_
FNDA:0,_RNCNCNvMs0_NtCskrSqHInbZEk_15loam_spine_core9discoveryNtB9_18CapabilityRegistry21advertise_to_songbird00Bb_
FNDA:0,_RNCNCNvMs0_NtCskrSqHInbZEk_15loam_spine_core9discoveryNtB9_18CapabilityRegistry22discover_from_songbird00Bb_
FNDA:0,_RNCNvMs0_NtCskrSqHInbZEk_15loam_spine_core9discoveryNtB7_18CapabilityRegistry10get_signer0B9_
FNDA:0,_RNCNvMs0_NtCskrSqHInbZEk_15loam_spine_core9discoveryNtB7_18CapabilityRegistry12all_statuses0B9_
FNDA:0,_RNCNvMs0_NtCskrSqHInbZEk_15loam_spine_core9discoveryNtB7_18CapabilityRegistry12get_verifier0B9_
FNDA:0,_RNCNvMs0_NtCskrSqHInbZEk_15loam_spine_core9discoveryNtB7_18CapabilityRegistry13signer_status0B9_
FNDA:0,_RNCNvMs0_NtCskrSqHInbZEk_15loam_spine_core9discoveryNtB7_18CapabilityRegistry13with_songbird0B9_
FNDA:0,_RNCNvMs0_NtCskrSqHInbZEk_15loam_spine_core9discoveryNtB7_18CapabilityRegistry14require_signer0B9_
FNDA:0,_RNCNvMs0_NtCskrSqHInbZEk_15loam_spine_core9discoveryNtB7_18CapabilityRegistry15register_signer0B9_
FNDA:0,_RNCNvMs0_NtCskrSqHInbZEk_15loam_spine_core9discoveryNtB7_18CapabilityRegistry15verifier_status0B9_
FNDA:0,_RNCNvMs0_NtCskrSqHInbZEk_15loam_spine_core9discoveryNtB7_18CapabilityRegistry16require_verifier0B9_
FNDA:0,_RNCNvMs0_NtCskrSqHInbZEk_15loam_spine_core9discoveryNtB7_18CapabilityRegistry17register_verifier0B9_
FNDA:0,_RNCNvMs0_NtCskrSqHInbZEk_15loam_spine_core9discoveryNtB7_18CapabilityRegistry17unregister_signer0B9_
FNDA:0,_RNCNvMs0_NtCskrSqHInbZEk_15loam_spine_core9discoveryNtB7_18CapabilityRegistry18heartbeat_songbird0B9_
FNDA:0,_RNCNvMs0_NtCskrSqHInbZEk_15loam_spine_core9discoveryNtB7_18CapabilityRegistry19unregister_verifier0B9_
FNDA:0,_RNCNvMs0_NtCskrSqHInbZEk_15loam_spine_core9discoveryNtB7_18CapabilityRegistry21advertise_to_songbird0B9_
FNDA:0,_RNCNvMs0_NtCskrSqHInbZEk_15loam_spine_core9discoveryNtB7_18CapabilityRegistry22all_required_available0B9_
FNDA:0,_RNCNvMs0_NtCskrSqHInbZEk_15loam_spine_core9discoveryNtB7_18CapabilityRegistry22discover_from_songbird0B9_
FNDA:0,_RNCNvXININtCskrSqHInbZEk_15loam_spine_core9discovery0pEpNtB7_9DynSigner10sign_boxed0B9_
FNDA:0,_RNCNvXININtCskrSqHInbZEk_15loam_spine_core9discoverys_0pEpNtB7_11DynVerifier12verify_boxed0B9_
FNDA:0,_RNCNvXININtCskrSqHInbZEk_15loam_spine_core9discoverys_0pEpNtB7_11DynVerifier18verify_entry_boxed0B9_
FNDA:0,_RNvXININtCskrSqHInbZEk_15loam_spine_core9discovery0pEpNtB5_9DynSigner10sign_boxedB7_
FNDA:0,_RNvXININtCskrSqHInbZEk_15loam_spine_core9discovery0pEpNtB5_9DynSigner3didB7_
FNDA:0,_RNvXININtCskrSqHInbZEk_15loam_spine_core9discoverys_0pEpNtB5_11DynVerifier12verify_boxedB7_
FNDA:0,_RNvXININtCskrSqHInbZEk_15loam_spine_core9discoverys_0pEpNtB5_11DynVerifier18verify_entry_boxedB7_
FNDA:1,_RNCNvMs0_NtCskrSqHInbZEk_15loam_spine_core9discoveryNtB7_18CapabilityRegistry13signer_status0Cslk0Lj0FVdsD_3e2e
FNDA:1,_RNCNvMs0_NtCskrSqHInbZEk_15loam_spine_core9discoveryNtB7_18CapabilityRegistry15verifier_status0Cslk0Lj0FVdsD_3e2e
FNDA:1,_RNCNCNvNtNtCsiWUamAnYf7P_15loam_spine_core9discovery5testss_12all_statuses00B9_
FNDA:1,_RNCNCNvNtNtCsiWUamAnYf7P_15loam_spine_core9discovery5testss_12all_statuses0s_0B9_
FNDA:1,_RNCNvNtNtCsiWUamAnYf7P_15loam_spine_core9discovery5testss_12all_statuses0B7_
FNDA:1,_RNCNvNtNtCsiWUamAnYf7P_15loam_spine_core9discovery5testss_14empty_registry0B7_
FNDA:1,_RNCNvNtNtCsiWUamAnYf7P_15loam_spine_core9discovery5testss_14registry_clone0B7_
FNDA:1,_RNCNvNtNtCsiWUamAnYf7P_15loam_spine_core9discovery5testss_15register_signer0B7_
FNDA:1,_RNCNvNtNtCsiWUamAnYf7P_15loam_spine_core9discovery5testss_17register_verifier0B7_
FNDA:1,_RNCNvNtNtCsiWUamAnYf7P_15loam_spine_core9discovery5testss_19unregister_verifier0B7_
FNDA:1,_RNCNvNtNtCsiWUamAnYf7P_15loam_spine_core9discovery5testss_21dyn_signer_sign_boxed0B7_
FNDA:1,_RNCNvNtNtCsiWUamAnYf7P_15loam_spine_core9discovery5testss_22all_required_available0B7_
FNDA:1,_RNCNvNtNtCsiWUamAnYf7P_15loam_spine_core9discovery5testss_23register_and_unregister0B7_
FNDA:1,_RNCNvNtNtCsiWUamAnYf7P_15loam_spine_core9discovery5testss_25dyn_verifier_strict_fails0B7_
FNDA:1,_RNCNvNtNtCsiWUamAnYf7P_15loam_spine_core9discovery5testss_25dyn_verifier_verify_boxed0B7_
FNDA:1,_RNCNvNtNtCsiWUamAnYf7P_15loam_spine_core9discovery5testss_26require_missing_capability0B7_
FNDA:1,_RNCNvNtNtCsiWUamAnYf7P_15loam_spine_core9discovery5testss_29require_registered_capability0B7_
FNDA:1,_RNCNvNtNtCsiWUamAnYf7P_15loam_spine_core9discovery5testss_31dyn_verifier_verify_entry_boxed0B7_
FNDA:0,_RNCNCNvMs0_NtCsiWUamAnYf7P_15loam_spine_core9discoveryNtB9_18CapabilityRegistry18heartbeat_songbird00Bb_
FNDA:0,_RNCNCNvMs0_NtCsiWUamAnYf7P_15loam_spine_core9discoveryNtB9_18CapabilityRegistry21advertise_to_songbird00Bb_
FNDA:0,_RNCNCNvMs0_NtCsiWUamAnYf7P_15loam_spine_core9discoveryNtB9_18CapabilityRegistry22discover_from_songbird00Bb_
FNDA:0,_RNCNvMs0_NtCsiWUamAnYf7P_15loam_spine_core9discoveryNtB7_18CapabilityRegistry13with_songbird0B9_
FNDA:0,_RNCNvMs0_NtCsiWUamAnYf7P_15loam_spine_core9discoveryNtB7_18CapabilityRegistry18heartbeat_songbird0B9_
FNDA:0,_RNCNvMs0_NtCsiWUamAnYf7P_15loam_spine_core9discoveryNtB7_18CapabilityRegistry21advertise_to_songbird0B9_
FNDA:0,_RNCNvMs0_NtCsiWUamAnYf7P_15loam_spine_core9discoveryNtB7_18CapabilityRegistry22discover_from_songbird0B9_
FNDA:0,_RNvMs0_NtCsiWUamAnYf7P_15loam_spine_core9discoveryNtB5_18CapabilityRegistry13with_songbird
FNDA:0,_RNvMs0_NtCsiWUamAnYf7P_15loam_spine_core9discoveryNtB5_18CapabilityRegistry18heartbeat_songbird
FNDA:0,_RNvMs0_NtCsiWUamAnYf7P_15loam_spine_core9discoveryNtB5_18CapabilityRegistry21advertise_to_songbird
FNDA:0,_RNvMs0_NtCsiWUamAnYf7P_15loam_spine_core9discoveryNtB5_18CapabilityRegistry22discover_from_songbird
FNDA:1,_RNvNtNtCsiWUamAnYf7P_15loam_spine_core9discovery5testss_12all_statuses
FNDA:1,_RNvNtNtCsiWUamAnYf7P_15loam_spine_core9discovery5testss_14empty_registry
FNDA:1,_RNvNtNtCsiWUamAnYf7P_15loam_spine_core9discovery5testss_14registry_clone
FNDA:1,_RNvNtNtCsiWUamAnYf7P_15loam_spine_core9discovery5testss_14registry_debug
FNDA:1,_RNvNtNtCsiWUamAnYf7P_15loam_spine_core9discovery5testss_15register_signer
FNDA:1,_RNvNtNtCsiWUamAnYf7P_15loam_spine_core9discovery5testss_17register_verifier
FNDA:1,_RNvNtNtCsiWUamAnYf7P_15loam_spine_core9discovery5testss_19unregister_verifier
FNDA:1,_RNvNtNtCsiWUamAnYf7P_15loam_spine_core9discovery5testss_21dyn_signer_sign_boxed
FNDA:1,_RNvNtNtCsiWUamAnYf7P_15loam_spine_core9discovery5testss_22all_required_available
FNDA:1,_RNvNtNtCsiWUamAnYf7P_15loam_spine_core9discovery5testss_23register_and_unregister
FNDA:1,_RNvNtNtCsiWUamAnYf7P_15loam_spine_core9discovery5testss_25dyn_verifier_strict_fails
FNDA:1,_RNvNtNtCsiWUamAnYf7P_15loam_spine_core9discovery5testss_25dyn_verifier_verify_boxed
FNDA:1,_RNvNtNtCsiWUamAnYf7P_15loam_spine_core9discovery5testss_26capability_status_equality
FNDA:1,_RNvNtNtCsiWUamAnYf7P_15loam_spine_core9discovery5testss_26require_missing_capability
FNDA:1,_RNvNtNtCsiWUamAnYf7P_15loam_spine_core9discovery5testss_29capability_status_debug_clone
FNDA:1,_RNvNtNtCsiWUamAnYf7P_15loam_spine_core9discovery5testss_29require_registered_capability
FNDA:1,_RNvNtNtCsiWUamAnYf7P_15loam_spine_core9discovery5testss_31dyn_verifier_verify_entry_boxed
FNDA:6,_RNvMs0_NtCsiWUamAnYf7P_15loam_spine_core9discoveryNtB5_18CapabilityRegistry10get_signer
FNDA:5,_RNvMs0_NtCsiWUamAnYf7P_15loam_spine_core9discoveryNtB5_18CapabilityRegistry12all_statuses
FNDA:4,_RNvMs0_NtCsiWUamAnYf7P_15loam_spine_core9discoveryNtB5_18CapabilityRegistry12get_verifier
FNDA:11,_RNvMs0_NtCsiWUamAnYf7P_15loam_spine_core9discoveryNtB5_18CapabilityRegistry13signer_status
FNDA:2,_RNvMs0_NtCsiWUamAnYf7P_15loam_spine_core9discoveryNtB5_18CapabilityRegistry14require_signer
FNDA:7,_RNvMs0_NtCsiWUamAnYf7P_15loam_spine_core9discoveryNtB5_18CapabilityRegistry15register_signer
FNDA:9,_RNvMs0_NtCsiWUamAnYf7P_15loam_spine_core9discoveryNtB5_18CapabilityRegistry15verifier_status
FNDA:2,_RNvMs0_NtCsiWUamAnYf7P_15loam_spine_core9discoveryNtB5_18CapabilityRegistry16require_verifier
FNDA:3,_RNvMs0_NtCsiWUamAnYf7P_15loam_spine_core9discoveryNtB5_18CapabilityRegistry17register_verifier
FNDA:1,_RNvMs0_NtCsiWUamAnYf7P_15loam_spine_core9discoveryNtB5_18CapabilityRegistry17unregister_signer
FNDA:1,_RNvMs0_NtCsiWUamAnYf7P_15loam_spine_core9discoveryNtB5_18CapabilityRegistry19unregister_verifier
FNDA:1,_RNvMs0_NtCsiWUamAnYf7P_15loam_spine_core9discoveryNtB5_18CapabilityRegistry22all_required_available
FNDA:55,_RNvMs0_NtCsiWUamAnYf7P_15loam_spine_core9discoveryNtB5_18CapabilityRegistry3new
FNDA:1,_RNvXs1_NtCsiWUamAnYf7P_15loam_spine_core9discoveryNtB5_18CapabilityRegistryNtNtCs9sjCchOt1K7_4core3fmt5Debug3fmt
FNDA:1,_RNCNCNvMs0_NtCsiWUamAnYf7P_15loam_spine_core9discoveryNtB9_18CapabilityRegistry14require_signer00Bb_
FNDA:1,_RNCNCNvMs0_NtCsiWUamAnYf7P_15loam_spine_core9discoveryNtB9_18CapabilityRegistry16require_verifier00Bb_
FNDA:6,_RNCNvMs0_NtCsiWUamAnYf7P_15loam_spine_core9discoveryNtB7_18CapabilityRegistry10get_signer0B9_
FNDA:5,_RNCNvMs0_NtCsiWUamAnYf7P_15loam_spine_core9discoveryNtB7_18CapabilityRegistry12all_statuses0B9_
FNDA:4,_RNCNvMs0_NtCsiWUamAnYf7P_15loam_spine_core9discoveryNtB7_18CapabilityRegistry12get_verifier0B9_
FNDA:11,_RNCNvMs0_NtCsiWUamAnYf7P_15loam_spine_core9discoveryNtB7_18CapabilityRegistry13signer_status0B9_
FNDA:2,_RNCNvMs0_NtCsiWUamAnYf7P_15loam_spine_core9discoveryNtB7_18CapabilityRegistry14require_signer0B9_
FNDA:7,_RNCNvMs0_NtCsiWUamAnYf7P_15loam_spine_core9discoveryNtB7_18CapabilityRegistry15register_signer0B9_
FNDA:9,_RNCNvMs0_NtCsiWUamAnYf7P_15loam_spine_core9discoveryNtB7_18CapabilityRegistry15verifier_status0B9_
FNDA:2,_RNCNvMs0_NtCsiWUamAnYf7P_15loam_spine_core9discoveryNtB7_18CapabilityRegistry16require_verifier0B9_
FNDA:3,_RNCNvMs0_NtCsiWUamAnYf7P_15loam_spine_core9discoveryNtB7_18CapabilityRegistry17register_verifier0B9_
FNDA:1,_RNCNvMs0_NtCsiWUamAnYf7P_15loam_spine_core9discoveryNtB7_18CapabilityRegistry17unregister_signer0B9_
FNDA:1,_RNCNvMs0_NtCsiWUamAnYf7P_15loam_spine_core9discoveryNtB7_18CapabilityRegistry19unregister_verifier0B9_
FNDA:1,_RNCNvMs0_NtCsiWUamAnYf7P_15loam_spine_core9discoveryNtB7_18CapabilityRegistry22all_required_available0B9_
FNDA:1,_RNCNvXNtCsiWUamAnYf7P_15loam_spine_core9discoveryNtNtNtNtB6_6traits7signing7testing10MockSignerNtB4_9DynSigner10sign_boxed0B6_
FNDA:2,_RNCNvXs_NtCsiWUamAnYf7P_15loam_spine_core9discoveryNtNtNtNtB8_6traits7signing7testing12MockVerifierNtB6_11DynVerifier12verify_boxed0B8_
FNDA:1,_RNCNvXs_NtCsiWUamAnYf7P_15loam_spine_core9discoveryNtNtNtNtB8_6traits7signing7testing12MockVerifierNtB6_11DynVerifier18verify_entry_boxed0B8_
FNDA:1,_RNvXNtCsiWUamAnYf7P_15loam_spine_core9discoveryNtNtNtNtB4_6traits7signing7testing10MockSignerNtB2_9DynSigner10sign_boxedB4_
FNDA:1,_RNvXNtCsiWUamAnYf7P_15loam_spine_core9discoveryNtNtNtNtB4_6traits7signing7testing10MockSignerNtB2_9DynSigner3didB4_
FNDA:2,_RNvXs_NtCsiWUamAnYf7P_15loam_spine_core9discoveryNtNtNtNtB6_6traits7signing7testing12MockVerifierNtB4_11DynVerifier12verify_boxedB6_
FNDA:1,_RNvXs_NtCsiWUamAnYf7P_15loam_spine_core9discoveryNtNtNtNtB6_6traits7signing7testing12MockVerifierNtB4_11DynVerifier18verify_entry_boxedB6_
FNF:79
FNH:68
DA:78,1
DA:79,1
DA:80,1
DA:81,1
DA:82,1
DA:83,1
DA:84,1
DA:85,1
DA:87,1
DA:88,1
DA:89,1
DA:126,2
DA:127,2
DA:128,2
DA:129,2
DA:130,2
DA:131,2
DA:132,2
DA:133,2
DA:134,2
DA:135,2
DA:136,2
DA:137,2
DA:138,2
DA:139,2
DA:141,1
DA:142,1
DA:143,1
DA:144,1
DA:145,1
DA:146,1
DA:147,1
DA:148,1
DA:149,1
DA:150,1
DA:151,1
DA:152,1
DA:174,128
DA:175,128
DA:176,128
DA:183,0
DA:184,0
DA:185,0
DA:187,0
DA:188,0
DA:189,0
DA:190,0
DA:191,0
DA:200,0
DA:201,0
DA:202,0
DA:203,0
DA:204,0
DA:205,0
DA:209,0
DA:210,0
DA:211,0
DA:212,0
DA:218,0
DA:219,0
DA:222,0
DA:223,0
DA:224,0
DA:225,0
DA:229,0
DA:230,0
DA:232,0
DA:233,0
DA:240,0
DA:241,0
DA:242,0
DA:243,0
DA:244,0
DA:245,0
DA:246,0
DA:247,0
DA:248,0
DA:249,0
DA:252,0
DA:253,0
DA:254,0
DA:256,0
DA:257,0
DA:258,0
DA:265,0
DA:266,0
DA:267,0
DA:268,0
DA:269,0
DA:270,0
DA:273,0
DA:274,0
DA:275,0
DA:284,7
DA:285,7
DA:286,7
DA:287,7
DA:292,1
DA:293,1
DA:294,1
DA:295,1
DA:298,6
DA:299,6
DA:300,6
DA:301,6
DA:304,12
DA:305,12
DA:306,12
DA:307,5
DA:309,7
DA:311,12
DA:318,2
DA:319,2
DA:320,2
DA:321,2
DA:322,2
DA:329,3
DA:330,3
DA:331,3
DA:332,3
DA:335,1
DA:336,1
DA:337,1
DA:338,1
DA:341,4
DA:342,4
DA:343,4
DA:344,4
DA:347,10
DA:348,10
DA:349,10
DA:350,2
DA:352,8
DA:354,10
DA:361,2
DA:362,2
DA:363,2
DA:364,2
DA:365,2
DA:372,5
DA:373,5
DA:374,5
DA:375,5
DA:377,5
DA:380,1
DA:381,1
DA:384,1
DA:385,1
DA:386,1
DA:390,1
DA:391,1
DA:392,1
DA:393,1
DA:394,1
DA:395,1
DA:403,1
DA:404,1
DA:405,1
DA:406,1
DA:407,1
DA:408,1
DA:409,1
DA:410,1
DA:411,1
DA:412,1
DA:413,1
DA:414,1
DA:415,1
DA:416,1
DA:419,1
DA:420,1
DA:421,1
DA:422,1
DA:423,1
DA:424,1
DA:425,1
DA:426,1
DA:427,1
DA:428,1
DA:429,1
DA:430,1
DA:433,1
DA:434,1
DA:435,1
DA:436,1
DA:437,1
DA:438,1
DA:439,1
DA:440,1
DA:441,1
DA:442,1
DA:443,1
DA:444,1
DA:445,1
DA:446,1
DA:449,1
DA:450,1
DA:451,1
DA:452,1
DA:453,1
DA:454,1
DA:455,1
DA:456,1
DA:457,1
DA:458,1
DA:459,1
DA:460,1
DA:461,1
DA:462,1
DA:463,1
DA:464,1
DA:467,1
DA:468,1
DA:469,1
DA:470,1
DA:471,1
DA:472,1
DA:473,1
DA:474,1
DA:475,1
DA:476,1
DA:477,1
DA:478,1
DA:479,1
DA:480,1
DA:481,1
DA:482,1
DA:483,1
DA:484,1
DA:487,1
DA:488,1
DA:489,1
DA:490,1
DA:491,1
DA:492,1
DA:493,1
DA:494,1
DA:495,1
DA:498,1
DA:499,1
DA:500,1
DA:501,1
DA:502,1
DA:503,1
DA:504,1
DA:505,1
DA:506,1
DA:507,1
DA:508,1
DA:509,1
DA:510,1
DA:511,1
DA:514,1
DA:515,1
DA:516,1
DA:517,1
DA:518,1
DA:519,1
DA:520,1
DA:521,1
DA:522,1
DA:523,1
DA:524,1
DA:525,1
DA:526,1
DA:527,1
DA:528,1
DA:529,1
DA:530,1
DA:531,1
DA:532,1
DA:535,1
DA:536,1
DA:537,1
DA:538,1
DA:539,1
DA:540,1
DA:543,1
DA:544,1
DA:545,1
DA:546,1
DA:547,1
DA:550,1
DA:551,1
DA:552,1
DA:553,1
DA:554,1
DA:555,1
DA:556,1
DA:557,1
DA:558,1
DA:559,1
DA:560,1
DA:561,1
DA:562,1
DA:565,1
DA:566,1
DA:567,1
DA:568,1
DA:569,1
DA:570,1
DA:571,1
DA:572,1
DA:573,1
DA:574,1
DA:575,1
DA:576,1
DA:577,1
DA:578,1
DA:579,1
DA:580,1
DA:581,1
DA:584,1
DA:585,1
DA:586,1
DA:587,1
DA:588,1
DA:589,1
DA:590,1
DA:591,1
DA:592,1
DA:593,1
DA:594,1
DA:595,1
DA:596,1
DA:597,1
DA:598,1
DA:601,1
DA:602,1
DA:603,1
DA:604,1
DA:605,1
DA:606,1
DA:607,1
DA:608,1
DA:609,1
DA:610,1
DA:611,1
DA:612,1
DA:613,1
DA:614,1
DA:615,1
DA:616,1
DA:617,1
DA:618,1
DA:619,1
DA:622,1
DA:623,1
DA:624,1
DA:625,1
DA:626,1
DA:627,1
DA:628,1
DA:629,1
DA:630,1
DA:631,1
DA:632,1
DA:633,1
DA:634,1
DA:635,1
DA:636,1
DA:639,1
DA:640,1
DA:641,1
DA:642,1
DA:643,1
DA:644,1
DA:647,1
DA:648,1
DA:649,1
DA:652,1
DA:653,1
DA:654,1
DA:655,1
DA:656,1
DA:657,1
DA:658,1
DA:659,1
DA:660,1
DA:661,1
DA:662,1
DA:663,1
DA:664,1
DA:665,1
DA:666,1
DA:667,1
BRF:0
BRH:0
LF:542
LH:479
end_of_record
SF:/path/to/ecoPrimals/phase2/loamSpine/crates/loam-spine-core/src/entry.rs
FN:105,_RNvMNtCskrSqHInbZEk_15loam_spine_core5entryNtB2_5Entry10is_genesis
FN:135,_RNvMNtCskrSqHInbZEk_15loam_spine_core5entryNtB2_5Entry12compute_hash
FN:111,_RNvMNtCskrSqHInbZEk_15loam_spine_core5entryNtB2_5Entry12with_payload
FN:76,_RNvMNtCskrSqHInbZEk_15loam_spine_core5entryNtB2_5Entry13with_spine_id
FN:127,_RNvMNtCskrSqHInbZEk_15loam_spine_core5entryNtB2_5Entry14with_signature
FN:153,_RNvMNtCskrSqHInbZEk_15loam_spine_core5entryNtB2_5Entry18to_canonical_bytes
FN:54,_RNvMNtCskrSqHInbZEk_15loam_spine_core5entryNtB2_5Entry3new
FN:141,_RNvMNtCskrSqHInbZEk_15loam_spine_core5entryNtB2_5Entry4hash
FN:161,_RNvMNtCskrSqHInbZEk_15loam_spine_core5entryNtB2_5Entry6domain
FN:84,_RNvMNtCskrSqHInbZEk_15loam_spine_core5entryNtB2_5Entry7genesis
FN:359,_RNvMs_NtCskrSqHInbZEk_15loam_spine_core5entryNtB4_9EntryType19allowed_in_waypoint
FN:336,_RNvMs_NtCskrSqHInbZEk_15loam_spine_core5entryNtB4_9EntryType6domain
FN:119,_RINvMNtCskrSqHInbZEk_15loam_spine_core5entryNtB3_5Entry13with_metadatappEB5_
FN:119,_RINvMNtCsiWUamAnYf7P_15loam_spine_core5entryNtB3_5Entry13with_metadataReB16_EB5_
FN:111,_RNvMNtCsiWUamAnYf7P_15loam_spine_core5entryNtB2_5Entry12with_payload
FN:449,_RNvNtNtCsiWUamAnYf7P_15loam_spine_core5entry5testss_13entry_builder
FN:429,_RNvNtNtCsiWUamAnYf7P_15loam_spine_core5entry5testss_13genesis_entry
FN:414,_RNvNtNtCsiWUamAnYf7P_15loam_spine_core5entry5testss_14entry_creation
FN:465,_RNvNtNtCsiWUamAnYf7P_15loam_spine_core5entry5testss_17entry_type_domain
FN:490,_RNvNtNtCsiWUamAnYf7P_15loam_spine_core5entry5testss_22waypoint_allowed_types
FN:439,_RNvNtNtCsiWUamAnYf7P_15loam_spine_core5entry5testss_24entry_hash_deterministic
FN:105,_RNvMNtCsiWUamAnYf7P_15loam_spine_core5entryNtB2_5Entry10is_genesis
FN:135,_RNvMNtCsiWUamAnYf7P_15loam_spine_core5entryNtB2_5Entry12compute_hash
FN:76,_RNvMNtCsiWUamAnYf7P_15loam_spine_core5entryNtB2_5Entry13with_spine_id
FN:127,_RNvMNtCsiWUamAnYf7P_15loam_spine_core5entryNtB2_5Entry14with_signature
FN:153,_RNvMNtCsiWUamAnYf7P_15loam_spine_core5entryNtB2_5Entry18to_canonical_bytes
FN:54,_RNvMNtCsiWUamAnYf7P_15loam_spine_core5entryNtB2_5Entry3new
FN:141,_RNvMNtCsiWUamAnYf7P_15loam_spine_core5entryNtB2_5Entry4hash
FN:161,_RNvMNtCsiWUamAnYf7P_15loam_spine_core5entryNtB2_5Entry6domain
FN:84,_RNvMNtCsiWUamAnYf7P_15loam_spine_core5entryNtB2_5Entry7genesis
FN:359,_RNvMs_NtCsiWUamAnYf7P_15loam_spine_core5entryNtB4_9EntryType19allowed_in_waypoint
FN:336,_RNvMs_NtCsiWUamAnYf7P_15loam_spine_core5entryNtB4_9EntryType6domain
FNDA:0,_RNvMNtCskrSqHInbZEk_15loam_spine_core5entryNtB2_5Entry10is_genesis
FNDA:10403,_RNvMNtCskrSqHInbZEk_15loam_spine_core5entryNtB2_5Entry12compute_hash
FNDA:0,_RNvMNtCskrSqHInbZEk_15loam_spine_core5entryNtB2_5Entry12with_payload
FNDA:3746,_RNvMNtCskrSqHInbZEk_15loam_spine_core5entryNtB2_5Entry13with_spine_id
FNDA:0,_RNvMNtCskrSqHInbZEk_15loam_spine_core5entryNtB2_5Entry14with_signature
FNDA:10403,_RNvMNtCskrSqHInbZEk_15loam_spine_core5entryNtB2_5Entry18to_canonical_bytes
FNDA:3746,_RNvMNtCskrSqHInbZEk_15loam_spine_core5entryNtB2_5Entry3new
FNDA:5200,_RNvMNtCskrSqHInbZEk_15loam_spine_core5entryNtB2_5Entry4hash
FNDA:0,_RNvMNtCskrSqHInbZEk_15loam_spine_core5entryNtB2_5Entry6domain
FNDA:1453,_RNvMNtCskrSqHInbZEk_15loam_spine_core5entryNtB2_5Entry7genesis
FNDA:0,_RNvMs_NtCskrSqHInbZEk_15loam_spine_core5entryNtB4_9EntryType19allowed_in_waypoint
FNDA:0,_RNvMs_NtCskrSqHInbZEk_15loam_spine_core5entryNtB4_9EntryType6domain
FNDA:0,_RINvMNtCskrSqHInbZEk_15loam_spine_core5entryNtB3_5Entry13with_metadatappEB5_
FNDA:1,_RINvMNtCsiWUamAnYf7P_15loam_spine_core5entryNtB3_5Entry13with_metadataReB16_EB5_
FNDA:0,_RNvMNtCsiWUamAnYf7P_15loam_spine_core5entryNtB2_5Entry12with_payload
FNDA:1,_RNvNtNtCsiWUamAnYf7P_15loam_spine_core5entry5testss_13entry_builder
FNDA:1,_RNvNtNtCsiWUamAnYf7P_15loam_spine_core5entry5testss_13genesis_entry
FNDA:1,_RNvNtNtCsiWUamAnYf7P_15loam_spine_core5entry5testss_14entry_creation
FNDA:1,_RNvNtNtCsiWUamAnYf7P_15loam_spine_core5entry5testss_17entry_type_domain
FNDA:1,_RNvNtNtCsiWUamAnYf7P_15loam_spine_core5entry5testss_22waypoint_allowed_types
FNDA:1,_RNvNtNtCsiWUamAnYf7P_15loam_spine_core5entry5testss_24entry_hash_deterministic
FNDA:1,_RNvMNtCsiWUamAnYf7P_15loam_spine_core5entryNtB2_5Entry10is_genesis
FNDA:1542,_RNvMNtCsiWUamAnYf7P_15loam_spine_core5entryNtB2_5Entry12compute_hash
FNDA:1089,_RNvMNtCsiWUamAnYf7P_15loam_spine_core5entryNtB2_5Entry13with_spine_id
FNDA:1,_RNvMNtCsiWUamAnYf7P_15loam_spine_core5entryNtB2_5Entry14with_signature
FNDA:1542,_RNvMNtCsiWUamAnYf7P_15loam_spine_core5entryNtB2_5Entry18to_canonical_bytes
FNDA:1195,_RNvMNtCsiWUamAnYf7P_15loam_spine_core5entryNtB2_5Entry3new
FNDA:157,_RNvMNtCsiWUamAnYf7P_15loam_spine_core5entryNtB2_5Entry4hash
FNDA:1,_RNvMNtCsiWUamAnYf7P_15loam_spine_core5entryNtB2_5Entry6domain
FNDA:129,_RNvMNtCsiWUamAnYf7P_15loam_spine_core5entryNtB2_5Entry7genesis
FNDA:2,_RNvMs_NtCsiWUamAnYf7P_15loam_spine_core5entryNtB4_9EntryType19allowed_in_waypoint
FNDA:3,_RNvMs_NtCsiWUamAnYf7P_15loam_spine_core5entryNtB4_9EntryType6domain
FNF:19
FNH:18
DA:54,4941
DA:55,4941
DA:56,4941
DA:57,4941
DA:58,4941
DA:59,4941
DA:60,4941
DA:61,4941
DA:62,4941
DA:63,4941
DA:64,4941
DA:65,4941
DA:66,4941
DA:67,4941
DA:68,4941
DA:69,4941
DA:70,4941
DA:71,4941
DA:72,4941
DA:76,4835
DA:77,4835
DA:78,4835
DA:79,4835
DA:80,4835
DA:84,1582
DA:85,1582
DA:86,1582
DA:87,1582
DA:88,1582
DA:89,1582
DA:90,1582
DA:91,1582
DA:92,1582
DA:93,1582
DA:94,1582
DA:95,1582
DA:96,1582
DA:97,1582
DA:98,1582
DA:99,1582
DA:100,1582
DA:101,1582
DA:105,1
DA:106,1
DA:107,1
DA:111,0
DA:112,0
DA:113,0
DA:114,0
DA:115,0
DA:119,1
DA:120,1
DA:121,1
DA:122,1
DA:123,1
DA:127,1
DA:128,1
DA:129,1
DA:130,1
DA:131,1
DA:135,11945
DA:136,11945
DA:137,11945
DA:138,11945
DA:141,5357
DA:142,5357
DA:143,1
DA:145,5356
DA:146,5356
DA:147,5356
DA:149,5357
DA:153,11945
DA:154,11945
DA:155,11945
DA:156,11945
DA:157,11945
DA:161,1
DA:162,1
DA:163,1
DA:336,3
DA:337,3
DA:339,1
DA:343,1
DA:345,0
DA:349,1
DA:352,0
DA:353,0
DA:355,3
DA:359,2
DA:360,1
DA:361,2
DA:367,2
DA:414,1
DA:415,1
DA:416,1
DA:417,1
DA:418,1
DA:419,1
DA:420,1
DA:421,1
DA:422,1
DA:423,1
DA:424,1
DA:425,1
DA:426,1
DA:429,1
DA:430,1
DA:431,1
DA:432,1
DA:433,1
DA:434,1
DA:435,1
DA:436,1
DA:439,1
DA:440,1
DA:441,1
DA:442,1
DA:443,1
DA:444,1
DA:445,1
DA:446,1
DA:449,1
DA:450,1
DA:451,1
DA:452,1
DA:453,1
DA:454,1
DA:455,1
DA:456,1
DA:457,1
DA:458,1
DA:459,1
DA:460,1
DA:461,1
DA:462,1
DA:465,1
DA:466,1
DA:467,1
DA:468,1
DA:469,1
DA:470,1
DA:471,1
DA:472,1
DA:473,1
DA:474,1
DA:475,1
DA:476,1
DA:478,1
DA:479,1
DA:480,1
DA:481,1
DA:482,1
DA:483,1
DA:484,1
DA:485,1
DA:486,1
DA:487,1
DA:490,1
DA:491,1
DA:492,1
DA:493,1
DA:494,1
DA:495,1
DA:496,1
DA:498,1
DA:499,1
DA:500,1
DA:501,1
DA:502,1
DA:503,1
DA:504,1
DA:505,1
DA:506,1
BRF:0
BRH:0
LF:173
LH:165
end_of_record
SF:/path/to/ecoPrimals/phase2/loamSpine/crates/loam-spine-core/src/error.rs
FN:92,_RNvNtNtCsiWUamAnYf7P_15loam_spine_core5error5testss_13error_display
FN:99,_RNvNtNtCsiWUamAnYf7P_15loam_spine_core5error5testss_22chain_validation_error
FNDA:1,_RNvNtNtCsiWUamAnYf7P_15loam_spine_core5error5testss_13error_display
FNDA:1,_RNvNtNtCsiWUamAnYf7P_15loam_spine_core5error5testss_22chain_validation_error
FNF:2
FNH:2
DA:92,1
DA:93,1
DA:94,1
DA:95,1
DA:96,1
DA:99,1
DA:100,1
DA:101,1
DA:102,1
DA:103,1
DA:104,1
DA:105,1
DA:106,1
BRF:0
BRH:0
LF:13
LH:13
end_of_record
SF:/path/to/ecoPrimals/phase2/loamSpine/crates/loam-spine-core/src/lib.rs
FN:229,_RNCNvMCskrSqHInbZEk_15loam_spine_coreNtB4_9LoamSpine11uptime_secs0B4_
FN:289,_RNCNvXs0_CskrSqHInbZEk_15loam_spine_coreNtB7_9LoamSpineNtNtB7_6primal12PrimalHealth12health_check0B7_
FN:260,_RNCNvXs_CskrSqHInbZEk_15loam_spine_coreNtB6_9LoamSpineNtNtB6_6primal15PrimalLifecycle4stop0B6_
FN:238,_RNCNvXs_CskrSqHInbZEk_15loam_spine_coreNtB6_9LoamSpineNtNtB6_6primal15PrimalLifecycle5start0B6_
FN:229,_RNCNvMCsiWUamAnYf7P_15loam_spine_coreNtB4_9LoamSpine11uptime_secs0B4_
FN:289,_RNCNvXs0_CsiWUamAnYf7P_15loam_spine_coreNtB7_9LoamSpineNtNtB7_6primal12PrimalHealth12health_check0B7_
FN:260,_RNCNvXs_CsiWUamAnYf7P_15loam_spine_coreNtB6_9LoamSpineNtNtB6_6primal15PrimalLifecycle4stop0B6_
FN:238,_RNCNvXs_CsiWUamAnYf7P_15loam_spine_coreNtB6_9LoamSpineNtNtB6_6primal15PrimalLifecycle5start0B6_
FN:364,_RNvNtCsiWUamAnYf7P_15loam_spine_core5testss_15config_accessor
FN:326,_RNvNtCsiWUamAnYf7P_15loam_spine_core5testss_20lifecycle_start_stop
FN:414,_RNvNtCsiWUamAnYf7P_15loam_spine_core5testss_20stop_already_stopped
FN:372,_RNvNtCsiWUamAnYf7P_15loam_spine_core5testss_21capabilities_accessor
FN:400,_RNvNtCsiWUamAnYf7P_15loam_spine_core5testss_21start_already_running
FN:429,_RNvNtCsiWUamAnYf7P_15loam_spine_core5testss_23uptime_when_not_started
FN:341,_RNvNtCsiWUamAnYf7P_15loam_spine_core5testss_25health_check_when_running
FN:438,_RNvNtCsiWUamAnYf7P_15loam_spine_core5testss_27health_check_storage_exists
FN:384,_RNvNtCsiWUamAnYf7P_15loam_spine_core5testss_29with_capabilities_constructor
FN:456,_RNvNtCsiWUamAnYf7P_15loam_spine_core5testss_30health_check_with_capabilities
FN:356,_RNvNtCsiWUamAnYf7P_15loam_spine_core5testss_30health_status_when_not_running
FN:451,_RNCNCNvNtCsiWUamAnYf7P_15loam_spine_core5testss_27health_check_storage_exists0s_0B7_
FN:474,_RNCNCNvNtCsiWUamAnYf7P_15loam_spine_core5testss_30health_check_with_capabilities0s_0B7_
FN:326,_RNCNvNtCsiWUamAnYf7P_15loam_spine_core5testss_20lifecycle_start_stop0B5_
FN:414,_RNCNvNtCsiWUamAnYf7P_15loam_spine_core5testss_20stop_already_stopped0B5_
FN:372,_RNCNvNtCsiWUamAnYf7P_15loam_spine_core5testss_21capabilities_accessor0B5_
FN:400,_RNCNvNtCsiWUamAnYf7P_15loam_spine_core5testss_21start_already_running0B5_
FN:429,_RNCNvNtCsiWUamAnYf7P_15loam_spine_core5testss_23uptime_when_not_started0B5_
FN:341,_RNCNvNtCsiWUamAnYf7P_15loam_spine_core5testss_25health_check_when_running0B5_
FN:438,_RNCNvNtCsiWUamAnYf7P_15loam_spine_core5testss_27health_check_storage_exists0B5_
FN:384,_RNCNvNtCsiWUamAnYf7P_15loam_spine_core5testss_29with_capabilities_constructor0B5_
FN:456,_RNCNvNtCsiWUamAnYf7P_15loam_spine_core5testss_30health_check_with_capabilities0B5_
FN:228,_RNvMCsiWUamAnYf7P_15loam_spine_coreNtB2_9LoamSpine11uptime_secs
FN:222,_RNvMCsiWUamAnYf7P_15loam_spine_coreNtB2_9LoamSpine12capabilities
FN:202,_RNvMCsiWUamAnYf7P_15loam_spine_coreNtB2_9LoamSpine17with_capabilities
FN:191,_RNvMCsiWUamAnYf7P_15loam_spine_coreNtB2_9LoamSpine3new
FN:216,_RNvMCsiWUamAnYf7P_15loam_spine_coreNtB2_9LoamSpine6config
FN:289,_RNvXs0_CsiWUamAnYf7P_15loam_spine_coreNtB5_9LoamSpineNtNtB5_6primal12PrimalHealth12health_check
FN:279,_RNvXs0_CsiWUamAnYf7P_15loam_spine_coreNtB5_9LoamSpineNtNtB5_6primal12PrimalHealth13health_status
FN:260,_RNvXs_CsiWUamAnYf7P_15loam_spine_coreNtB4_9LoamSpineNtNtB4_6primal15PrimalLifecycle4stop
FN:238,_RNvXs_CsiWUamAnYf7P_15loam_spine_coreNtB4_9LoamSpineNtNtB4_6primal15PrimalLifecycle5start
FN:234,_RNvXs_CsiWUamAnYf7P_15loam_spine_coreNtB4_9LoamSpineNtNtB4_6primal15PrimalLifecycle5state
FNDA:0,_RNCNvMCskrSqHInbZEk_15loam_spine_coreNtB4_9LoamSpine11uptime_secs0B4_
FNDA:0,_RNCNvXs0_CskrSqHInbZEk_15loam_spine_coreNtB7_9LoamSpineNtNtB7_6primal12PrimalHealth12health_check0B7_
FNDA:0,_RNCNvXs_CskrSqHInbZEk_15loam_spine_coreNtB6_9LoamSpineNtNtB6_6primal15PrimalLifecycle4stop0B6_
FNDA:0,_RNCNvXs_CskrSqHInbZEk_15loam_spine_coreNtB6_9LoamSpineNtNtB6_6primal15PrimalLifecycle5start0B6_
FNDA:4,_RNCNvMCsiWUamAnYf7P_15loam_spine_coreNtB4_9LoamSpine11uptime_secs0B4_
FNDA:3,_RNCNvXs0_CsiWUamAnYf7P_15loam_spine_coreNtB7_9LoamSpineNtNtB7_6primal12PrimalHealth12health_check0B7_
FNDA:3,_RNCNvXs_CsiWUamAnYf7P_15loam_spine_coreNtB6_9LoamSpineNtNtB6_6primal15PrimalLifecycle4stop0B6_
FNDA:7,_RNCNvXs_CsiWUamAnYf7P_15loam_spine_coreNtB6_9LoamSpineNtNtB6_6primal15PrimalLifecycle5start0B6_
FNDA:1,_RNvNtCsiWUamAnYf7P_15loam_spine_core5testss_15config_accessor
FNDA:1,_RNvNtCsiWUamAnYf7P_15loam_spine_core5testss_20lifecycle_start_stop
FNDA:1,_RNvNtCsiWUamAnYf7P_15loam_spine_core5testss_20stop_already_stopped
FNDA:1,_RNvNtCsiWUamAnYf7P_15loam_spine_core5testss_21capabilities_accessor
FNDA:1,_RNvNtCsiWUamAnYf7P_15loam_spine_core5testss_21start_already_running
FNDA:1,_RNvNtCsiWUamAnYf7P_15loam_spine_core5testss_23uptime_when_not_started
FNDA:1,_RNvNtCsiWUamAnYf7P_15loam_spine_core5testss_25health_check_when_running
FNDA:1,_RNvNtCsiWUamAnYf7P_15loam_spine_core5testss_27health_check_storage_exists
FNDA:1,_RNvNtCsiWUamAnYf7P_15loam_spine_core5testss_29with_capabilities_constructor
FNDA:1,_RNvNtCsiWUamAnYf7P_15loam_spine_core5testss_30health_check_with_capabilities
FNDA:1,_RNvNtCsiWUamAnYf7P_15loam_spine_core5testss_30health_status_when_not_running
FNDA:1,_RNCNCNvNtCsiWUamAnYf7P_15loam_spine_core5testss_27health_check_storage_exists0s_0B7_
FNDA:2,_RNCNCNvNtCsiWUamAnYf7P_15loam_spine_core5testss_30health_check_with_capabilities0s_0B7_
FNDA:1,_RNCNvNtCsiWUamAnYf7P_15loam_spine_core5testss_20lifecycle_start_stop0B5_
FNDA:1,_RNCNvNtCsiWUamAnYf7P_15loam_spine_core5testss_20stop_already_stopped0B5_
FNDA:1,_RNCNvNtCsiWUamAnYf7P_15loam_spine_core5testss_21capabilities_accessor0B5_
FNDA:1,_RNCNvNtCsiWUamAnYf7P_15loam_spine_core5testss_21start_already_running0B5_
FNDA:1,_RNCNvNtCsiWUamAnYf7P_15loam_spine_core5testss_23uptime_when_not_started0B5_
FNDA:1,_RNCNvNtCsiWUamAnYf7P_15loam_spine_core5testss_25health_check_when_running0B5_
FNDA:1,_RNCNvNtCsiWUamAnYf7P_15loam_spine_core5testss_27health_check_storage_exists0B5_
FNDA:1,_RNCNvNtCsiWUamAnYf7P_15loam_spine_core5testss_29with_capabilities_constructor0B5_
FNDA:1,_RNCNvNtCsiWUamAnYf7P_15loam_spine_core5testss_30health_check_with_capabilities0B5_
FNDA:5,_RNvMCsiWUamAnYf7P_15loam_spine_coreNtB2_9LoamSpine11uptime_secs
FNDA:2,_RNvMCsiWUamAnYf7P_15loam_spine_coreNtB2_9LoamSpine12capabilities
FNDA:2,_RNvMCsiWUamAnYf7P_15loam_spine_coreNtB2_9LoamSpine17with_capabilities
FNDA:9,_RNvMCsiWUamAnYf7P_15loam_spine_coreNtB2_9LoamSpine3new
FNDA:1,_RNvMCsiWUamAnYf7P_15loam_spine_coreNtB2_9LoamSpine6config
FNDA:3,_RNvXs0_CsiWUamAnYf7P_15loam_spine_coreNtB5_9LoamSpineNtNtB5_6primal12PrimalHealth12health_check
FNDA:4,_RNvXs0_CsiWUamAnYf7P_15loam_spine_coreNtB5_9LoamSpineNtNtB5_6primal12PrimalHealth13health_status
FNDA:3,_RNvXs_CsiWUamAnYf7P_15loam_spine_coreNtB4_9LoamSpineNtNtB4_6primal15PrimalLifecycle4stop
FNDA:7,_RNvXs_CsiWUamAnYf7P_15loam_spine_coreNtB4_9LoamSpineNtNtB4_6primal15PrimalLifecycle5start
FNDA:7,_RNvXs_CsiWUamAnYf7P_15loam_spine_coreNtB4_9LoamSpineNtNtB4_6primal15PrimalLifecycle5state
FNF:36
FNH:36
DA:191,9
DA:192,9
DA:193,9
DA:194,9
DA:195,9
DA:196,9
DA:197,9
DA:198,9
DA:202,2
DA:203,2
DA:204,2
DA:205,2
DA:206,2
DA:207,2
DA:208,2
DA:209,2
DA:210,2
DA:211,2
DA:212,2
DA:216,1
DA:217,1
DA:218,1
DA:222,2
DA:223,2
DA:224,2
DA:228,5
DA:229,5
DA:230,5
DA:234,7
DA:235,7
DA:236,7
DA:238,7
DA:239,7
DA:240,1
DA:241,6
DA:242,6
DA:243,6
DA:244,6
DA:247,6
DA:248,0
DA:249,0
DA:250,0
DA:251,0
DA:252,6
DA:253,6
DA:254,6
DA:255,6
DA:256,6
DA:257,6
DA:258,7
DA:260,3
DA:261,3
DA:262,1
DA:263,2
DA:264,2
DA:265,2
DA:266,2
DA:271,2
DA:272,2
DA:273,2
DA:274,2
DA:275,3
DA:279,4
DA:280,4
DA:281,3
DA:283,1
DA:284,1
DA:285,1
DA:287,4
DA:289,3
DA:290,3
DA:291,3
DA:293,3
DA:294,3
DA:295,3
DA:298,3
DA:299,3
DA:301,0
DA:303,3
DA:306,6
DA:307,6
DA:308,1
DA:309,0
DA:311,5
DA:314,6
DA:317,3
DA:318,3
DA:326,1
DA:327,1
DA:328,1
DA:329,1
DA:330,1
DA:331,1
DA:332,1
DA:333,1
DA:334,1
DA:335,1
DA:336,1
DA:337,1
DA:338,1
DA:341,1
DA:342,1
DA:343,1
DA:344,1
DA:345,1
DA:346,1
DA:347,1
DA:348,1
DA:349,1
DA:350,1
DA:351,1
DA:352,1
DA:353,1
DA:356,1
DA:357,1
DA:358,1
DA:359,1
DA:360,1
DA:361,1
DA:364,1
DA:365,1
DA:366,1
DA:367,1
DA:368,1
DA:369,1
DA:372,1
DA:373,1
DA:374,1
DA:375,1
DA:376,1
DA:377,1
DA:378,1
DA:379,1
DA:380,1
DA:381,1
DA:384,1
DA:385,1
DA:386,1
DA:387,1
DA:388,1
DA:389,1
DA:390,1
DA:391,1
DA:392,1
DA:393,1
DA:394,1
DA:395,1
DA:396,1
DA:397,1
DA:400,1
DA:401,1
DA:402,1
DA:403,1
DA:404,1
DA:405,1
DA:406,1
DA:407,1
DA:408,1
DA:409,1
DA:410,1
DA:411,1
DA:414,1
DA:415,1
DA:416,1
DA:417,1
DA:418,1
DA:419,1
DA:420,1
DA:421,1
DA:422,1
DA:423,1
DA:424,1
DA:425,1
DA:426,1
DA:429,1
DA:430,1
DA:431,1
DA:432,1
DA:433,1
DA:434,1
DA:435,1
DA:438,1
DA:439,1
DA:440,1
DA:441,1
DA:442,1
DA:443,1
DA:444,1
DA:445,1
DA:446,1
DA:447,1
DA:448,1
DA:449,1
DA:450,1
DA:451,1
DA:452,1
DA:453,1
DA:456,1
DA:457,1
DA:458,1
DA:459,1
DA:460,1
DA:461,1
DA:462,1
DA:463,1
DA:464,1
DA:465,1
DA:466,1
DA:467,1
DA:468,1
DA:469,1
DA:470,1
DA:471,1
DA:472,1
DA:473,1
DA:474,2
DA:475,1
DA:476,1
BRF:0
BRH:0
LF:316
LH:310
end_of_record
SF:/path/to/ecoPrimals/phase2/loamSpine/crates/loam-spine-core/src/manager.rs
FN:200,_RNCNvMNtCskrSqHInbZEk_15loam_spine_core7managerNtB4_18CertificateManager4loan0B6_
FN:200,_RNCNvMNtCsiWUamAnYf7P_15loam_spine_core7managerNtB4_18CertificateManager4loan0B6_
FN:329,_RNvNtNtCsiWUamAnYf7P_15loam_spine_core7manager5tests19create_test_manager
FN:590,_RNvNtNtCsiWUamAnYf7P_15loam_spine_core7manager5testss_14loan_not_owner
FN:416,_RNvNtNtCsiWUamAnYf7P_15loam_spine_core7manager5testss_15loan_and_return
FN:515,_RNvNtNtCsiWUamAnYf7P_15loam_spine_core7manager5testss_15spine_accessors
FN:337,_RNvNtNtCsiWUamAnYf7P_15loam_spine_core7manager5testss_16mint_certificate
FN:492,_RNvNtNtCsiWUamAnYf7P_15loam_spine_core7manager5testss_17list_certificates
FN:391,_RNvNtNtCsiWUamAnYf7P_15loam_spine_core7manager5testss_18transfer_not_owner
FN:616,_RNvNtNtCsiWUamAnYf7P_15loam_spine_core7manager5testss_19loan_already_loaned
FN:360,_RNvNtNtCsiWUamAnYf7P_15loam_spine_core7manager5testss_20transfer_certificate
FN:461,_RNvNtNtCsiWUamAnYf7P_15loam_spine_core7manager5testss_22cannot_transfer_loaned
FN:536,_RNvNtNtCsiWUamAnYf7P_15loam_spine_core7manager5testss_22return_by_non_borrower
FN:689,_RNvNtNtCsiWUamAnYf7P_15loam_spine_core7manager5testss_26process_expired_loans_none
FN:528,_RNvNtNtCsiWUamAnYf7P_15loam_spine_core7manager5testss_27get_nonexistent_certificate
FN:661,_RNvNtNtCsiWUamAnYf7P_15loam_spine_core7manager5testss_28loan_nonexistent_certificate
FN:567,_RNvNtNtCsiWUamAnYf7P_15loam_spine_core7manager5testss_29return_non_loaned_certificate
FN:676,_RNvNtNtCsiWUamAnYf7P_15loam_spine_core7manager5testss_30return_nonexistent_certificate
FN:647,_RNvNtNtCsiWUamAnYf7P_15loam_spine_core7manager5testss_32transfer_nonexistent_certificate
FN:753,_RNvNtNtCsiWUamAnYf7P_15loam_spine_core7manager5testss_33process_expired_loans_no_duration
FN:721,_RNvNtNtCsiWUamAnYf7P_15loam_spine_core7manager5testss_36process_expired_loans_no_auto_return
FN:239,_RNvMNtCsiWUamAnYf7P_15loam_spine_core7managerNtB2_18CertificateManager11return_loan
FN:49,_RNvMNtCsiWUamAnYf7P_15loam_spine_core7managerNtB2_18CertificateManager15get_certificate
FN:55,_RNvMNtCsiWUamAnYf7P_15loam_spine_core7managerNtB2_18CertificateManager17list_certificates
FN:295,_RNvMNtCsiWUamAnYf7P_15loam_spine_core7managerNtB2_18CertificateManager21process_expired_loans
FN:29,_RNvMNtCsiWUamAnYf7P_15loam_spine_core7managerNtB2_18CertificateManager3new
FN:164,_RNvMNtCsiWUamAnYf7P_15loam_spine_core7managerNtB2_18CertificateManager4loan
FN:64,_RNvMNtCsiWUamAnYf7P_15loam_spine_core7managerNtB2_18CertificateManager4mint
FN:38,_RNvMNtCsiWUamAnYf7P_15loam_spine_core7managerNtB2_18CertificateManager5spine
FN:109,_RNvMNtCsiWUamAnYf7P_15loam_spine_core7managerNtB2_18CertificateManager8transfer
FN:43,_RNvMNtCsiWUamAnYf7P_15loam_spine_core7managerNtB2_18CertificateManager9spine_mut
FNDA:0,_RNCNvMNtCskrSqHInbZEk_15loam_spine_core7managerNtB4_18CertificateManager4loan0B6_
FNDA:3,_RNCNvMNtCsiWUamAnYf7P_15loam_spine_core7managerNtB4_18CertificateManager4loan0B6_
FNDA:18,_RNvNtNtCsiWUamAnYf7P_15loam_spine_core7manager5tests19create_test_manager
FNDA:1,_RNvNtNtCsiWUamAnYf7P_15loam_spine_core7manager5testss_14loan_not_owner
FNDA:1,_RNvNtNtCsiWUamAnYf7P_15loam_spine_core7manager5testss_15loan_and_return
FNDA:1,_RNvNtNtCsiWUamAnYf7P_15loam_spine_core7manager5testss_15spine_accessors
FNDA:1,_RNvNtNtCsiWUamAnYf7P_15loam_spine_core7manager5testss_16mint_certificate
FNDA:1,_RNvNtNtCsiWUamAnYf7P_15loam_spine_core7manager5testss_17list_certificates
FNDA:1,_RNvNtNtCsiWUamAnYf7P_15loam_spine_core7manager5testss_18transfer_not_owner
FNDA:1,_RNvNtNtCsiWUamAnYf7P_15loam_spine_core7manager5testss_19loan_already_loaned
FNDA:1,_RNvNtNtCsiWUamAnYf7P_15loam_spine_core7manager5testss_20transfer_certificate
FNDA:1,_RNvNtNtCsiWUamAnYf7P_15loam_spine_core7manager5testss_22cannot_transfer_loaned
FNDA:1,_RNvNtNtCsiWUamAnYf7P_15loam_spine_core7manager5testss_22return_by_non_borrower
FNDA:1,_RNvNtNtCsiWUamAnYf7P_15loam_spine_core7manager5testss_26process_expired_loans_none
FNDA:1,_RNvNtNtCsiWUamAnYf7P_15loam_spine_core7manager5testss_27get_nonexistent_certificate
FNDA:1,_RNvNtNtCsiWUamAnYf7P_15loam_spine_core7manager5testss_28loan_nonexistent_certificate
FNDA:1,_RNvNtNtCsiWUamAnYf7P_15loam_spine_core7manager5testss_29return_non_loaned_certificate
FNDA:1,_RNvNtNtCsiWUamAnYf7P_15loam_spine_core7manager5testss_30return_nonexistent_certificate
FNDA:1,_RNvNtNtCsiWUamAnYf7P_15loam_spine_core7manager5testss_32transfer_nonexistent_certificate
FNDA:1,_RNvNtNtCsiWUamAnYf7P_15loam_spine_core7manager5testss_33process_expired_loans_no_duration
FNDA:1,_RNvNtNtCsiWUamAnYf7P_15loam_spine_core7manager5testss_36process_expired_loans_no_auto_return
FNDA:4,_RNvMNtCsiWUamAnYf7P_15loam_spine_core7managerNtB2_18CertificateManager11return_loan
FNDA:5,_RNvMNtCsiWUamAnYf7P_15loam_spine_core7managerNtB2_18CertificateManager15get_certificate
FNDA:1,_RNvMNtCsiWUamAnYf7P_15loam_spine_core7managerNtB2_18CertificateManager17list_certificates
FNDA:3,_RNvMNtCsiWUamAnYf7P_15loam_spine_core7managerNtB2_18CertificateManager21process_expired_loans
FNDA:18,_RNvMNtCsiWUamAnYf7P_15loam_spine_core7managerNtB2_18CertificateManager3new
FNDA:10,_RNvMNtCsiWUamAnYf7P_15loam_spine_core7managerNtB2_18CertificateManager4loan
FNDA:15,_RNvMNtCsiWUamAnYf7P_15loam_spine_core7managerNtB2_18CertificateManager4mint
FNDA:2,_RNvMNtCsiWUamAnYf7P_15loam_spine_core7managerNtB2_18CertificateManager5spine
FNDA:4,_RNvMNtCsiWUamAnYf7P_15loam_spine_core7managerNtB2_18CertificateManager8transfer
FNDA:1,_RNvMNtCsiWUamAnYf7P_15loam_spine_core7managerNtB2_18CertificateManager9spine_mut
FNF:30
FNH:30
DA:29,18
DA:30,18
DA:31,18
DA:32,18
DA:33,18
DA:34,18
DA:38,2
DA:39,2
DA:40,2
DA:43,1
DA:44,1
DA:45,1
DA:49,5
DA:50,5
DA:51,5
DA:55,1
DA:56,1
DA:57,1
DA:64,15
DA:65,15
DA:66,15
DA:67,15
DA:68,15
DA:69,15
DA:70,15
DA:71,15
DA:72,15
DA:73,15
DA:74,15
DA:75,0
DA:76,15
DA:77,15
DA:78,15
DA:79,15
DA:80,15
DA:81,15
DA:82,15
DA:83,15
DA:86,15
DA:89,15
DA:90,15
DA:91,15
DA:92,15
DA:93,15
DA:94,15
DA:95,15
DA:96,15
DA:97,15
DA:98,15
DA:99,15
DA:109,4
DA:110,4
DA:111,4
DA:112,4
DA:113,4
DA:114,4
DA:116,4
DA:117,4
DA:118,4
DA:119,4
DA:122,3
DA:123,1
DA:124,2
DA:125,2
DA:126,2
DA:127,2
DA:128,1
DA:129,1
DA:130,1
DA:131,1
DA:132,1
DA:133,1
DA:134,1
DA:135,1
DA:136,1
DA:139,1
DA:142,1
DA:143,1
DA:144,1
DA:145,1
DA:146,1
DA:147,1
DA:148,1
DA:149,1
DA:150,1
DA:151,1
DA:153,1
DA:154,4
DA:164,10
DA:165,10
DA:166,10
DA:167,10
DA:168,10
DA:169,10
DA:170,10
DA:172,10
DA:173,10
DA:174,10
DA:175,10
DA:178,9
DA:179,1
DA:180,8
DA:181,8
DA:182,8
DA:183,8
DA:184,1
DA:185,7
DA:186,7
DA:187,7
DA:188,7
DA:189,7
DA:190,7
DA:191,7
DA:192,7
DA:193,7
DA:194,7
DA:197,7
DA:200,7
DA:201,3
DA:202,3
DA:203,7
DA:206,7
DA:207,7
DA:208,7
DA:209,7
DA:210,7
DA:211,7
DA:212,7
DA:213,7
DA:214,7
DA:215,7
DA:216,7
DA:217,7
DA:218,7
DA:219,7
DA:220,7
DA:221,7
DA:222,7
DA:223,7
DA:224,7
DA:225,7
DA:226,7
DA:228,7
DA:229,10
DA:239,4
DA:240,4
DA:241,4
DA:242,4
DA:243,4
DA:245,4
DA:246,4
DA:247,4
DA:248,4
DA:251,3
DA:252,2
DA:254,1
DA:255,1
DA:256,1
DA:261,2
DA:262,1
DA:263,1
DA:264,1
DA:265,1
DA:266,1
DA:267,1
DA:268,1
DA:269,1
DA:270,1
DA:271,1
DA:274,1
DA:277,1
DA:278,1
DA:279,1
DA:280,1
DA:281,1
DA:282,1
DA:283,1
DA:284,1
DA:285,1
DA:286,1
DA:287,1
DA:289,1
DA:290,4
DA:295,3
DA:296,3
DA:297,3
DA:300,3
DA:301,3
DA:302,3
DA:303,2
DA:304,1
DA:305,0
DA:306,1
DA:307,1
DA:308,1
DA:309,0
DA:313,3
DA:314,3
DA:315,0
DA:316,0
DA:317,0
DA:320,3
DA:321,3
DA:329,18
DA:330,18
DA:331,18
DA:332,18
DA:333,18
DA:334,18
DA:337,1
DA:338,1
DA:339,1
DA:340,1
DA:341,1
DA:342,1
DA:343,1
DA:344,1
DA:345,1
DA:346,1
DA:347,1
DA:348,1
DA:349,1
DA:350,1
DA:351,1
DA:352,1
DA:353,1
DA:354,1
DA:355,1
DA:356,1
DA:357,1
DA:360,1
DA:361,1
DA:362,1
DA:363,1
DA:364,1
DA:365,1
DA:366,1
DA:367,1
DA:368,1
DA:369,1
DA:370,1
DA:371,1
DA:372,1
DA:373,1
DA:374,1
DA:375,1
DA:376,1
DA:377,1
DA:378,1
DA:379,1
DA:380,1
DA:383,1
DA:384,1
DA:385,1
DA:386,1
DA:387,1
DA:388,1
DA:391,1
DA:392,1
DA:393,1
DA:394,1
DA:395,1
DA:396,1
DA:397,1
DA:398,1
DA:399,1
DA:400,1
DA:401,1
DA:402,1
DA:403,1
DA:404,1
DA:405,1
DA:406,1
DA:407,1
DA:408,1
DA:409,1
DA:410,1
DA:411,1
DA:412,1
DA:413,1
DA:416,1
DA:417,1
DA:418,1
DA:419,1
DA:420,1
DA:421,1
DA:422,1
DA:423,1
DA:424,1
DA:425,1
DA:426,1
DA:427,1
DA:428,1
DA:429,1
DA:430,1
DA:431,1
DA:432,1
DA:433,1
DA:434,1
DA:435,1
DA:436,1
DA:437,1
DA:438,1
DA:439,1
DA:442,1
DA:443,1
DA:444,1
DA:445,1
DA:446,1
DA:449,1
DA:450,1
DA:453,1
DA:454,1
DA:455,1
DA:456,1
DA:457,1
DA:458,1
DA:461,1
DA:462,1
DA:463,1
DA:464,1
DA:465,1
DA:466,1
DA:467,1
DA:468,1
DA:469,1
DA:470,1
DA:471,1
DA:472,1
DA:473,1
DA:474,1
DA:475,1
DA:476,1
DA:477,1
DA:478,1
DA:479,1
DA:480,1
DA:481,1
DA:482,1
DA:483,1
DA:484,1
DA:485,1
DA:486,1
DA:487,1
DA:488,1
DA:489,1
DA:492,1
DA:493,1
DA:494,1
DA:497,4
DA:498,3
DA:499,3
DA:500,3
DA:501,3
DA:502,3
DA:503,3
DA:504,3
DA:505,3
DA:506,3
DA:507,3
DA:508,3
DA:509,3
DA:511,1
DA:512,1
DA:515,1
DA:516,1
DA:517,1
DA:518,1
DA:519,1
DA:520,1
DA:523,1
DA:524,1
DA:525,1
DA:528,1
DA:529,1
DA:530,1
DA:531,1
DA:532,1
DA:533,1
DA:536,1
DA:537,1
DA:538,1
DA:539,1
DA:540,1
DA:541,1
DA:542,1
DA:543,1
DA:544,1
DA:545,1
DA:546,1
DA:547,1
DA:548,1
DA:549,1
DA:550,1
DA:551,1
DA:552,1
DA:553,1
DA:554,1
DA:555,1
DA:556,1
DA:557,1
DA:558,1
DA:559,1
DA:560,1
DA:561,1
DA:562,1
DA:563,1
DA:564,1
DA:567,1
DA:568,1
DA:569,1
DA:570,1
DA:571,1
DA:572,1
DA:573,1
DA:574,1
DA:575,1
DA:576,1
DA:577,1
DA:578,1
DA:579,1
DA:580,1
DA:581,1
DA:582,1
DA:583,1
DA:584,1
DA:585,1
DA:586,1
DA:587,1
DA:590,1
DA:591,1
DA:592,1
DA:593,1
DA:594,1
DA:595,1
DA:596,1
DA:597,1
DA:598,1
DA:599,1
DA:600,1
DA:601,1
DA:602,1
DA:603,1
DA:604,1
DA:605,1
DA:606,1
DA:607,1
DA:608,1
DA:609,1
DA:610,1
DA:611,1
DA:612,1
DA:613,1
DA:616,1
DA:617,1
DA:618,1
DA:619,1
DA:620,1
DA:621,1
DA:622,1
DA:623,1
DA:624,1
DA:625,1
DA:626,1
DA:627,1
DA:628,1
DA:629,1
DA:630,1
DA:631,1
DA:632,1
DA:633,1
DA:634,1
DA:635,1
DA:636,1
DA:637,1
DA:638,1
DA:639,1
DA:640,1
DA:641,1
DA:642,1
DA:643,1
DA:644,1
DA:647,1
DA:648,1
DA:649,1
DA:650,1
DA:651,1
DA:652,1
DA:653,1
DA:654,1
DA:655,1
DA:658,1
DA:661,1
DA:662,1
DA:663,1
DA:664,1
DA:665,1
DA:666,1
DA:667,1
DA:668,1
DA:669,1
DA:670,1
DA:673,1
DA:676,1
DA:677,1
DA:678,1
DA:679,1
DA:680,1
DA:681,1
DA:682,1
DA:683,1
DA:686,1
DA:689,1
DA:690,1
DA:691,1
DA:692,1
DA:693,1
DA:694,1
DA:695,1
DA:696,1
DA:697,1
DA:698,1
DA:699,1
DA:700,1
DA:701,1
DA:702,1
DA:703,1
DA:704,1
DA:705,1
DA:706,1
DA:707,1
DA:708,1
DA:709,1
DA:710,1
DA:711,1
DA:712,1
DA:713,1
DA:714,1
DA:715,1
DA:716,1
DA:717,1
DA:718,1
DA:721,1
DA:722,1
DA:723,1
DA:724,1
DA:725,1
DA:726,1
DA:727,1
DA:728,1
DA:729,1
DA:730,1
DA:731,1
DA:732,1
DA:733,1
DA:734,1
DA:735,1
DA:736,1
DA:737,1
DA:738,1
DA:739,1
DA:740,1
DA:741,1
DA:742,1
DA:743,1
DA:744,1
DA:745,1
DA:746,1
DA:747,1
DA:748,1
DA:749,1
DA:750,1
DA:753,1
DA:754,1
DA:755,1
DA:756,1
DA:757,1
DA:758,1
DA:759,1
DA:760,1
DA:761,1
DA:762,1
DA:763,1
DA:764,1
DA:765,1
DA:766,1
DA:767,1
DA:768,1
DA:769,1
DA:770,1
DA:771,1
DA:772,1
DA:773,1
DA:774,1
DA:775,1
DA:776,1
DA:777,1
DA:778,1
DA:779,1
DA:780,1
BRF:0
BRH:0
LF:602
LH:596
end_of_record
SF:/path/to/ecoPrimals/phase2/loamSpine/crates/loam-spine-core/src/primal.rs
FN:203,_RINvMs3_NtCskrSqHInbZEk_15loam_spine_core6primalNtB6_15ComponentHealth7healthyNtNtCs6bBekJvxEMJ_5alloc6string6StringECs4SaE2cvVVUV_14loam_spine_api
FN:31,_RNvMNtCskrSqHInbZEk_15loam_spine_core6primalNtB2_11PrimalState10is_running
FN:43,_RNvMNtCskrSqHInbZEk_15loam_spine_core6primalNtB2_11PrimalState11is_terminal
FN:37,_RNvMNtCskrSqHInbZEk_15loam_spine_core6primalNtB2_11PrimalState12is_available
FN:112,_RNvMs0_NtCskrSqHInbZEk_15loam_spine_core6primalNtB5_12HealthStatus10is_healthy
FN:118,_RNvMs0_NtCskrSqHInbZEk_15loam_spine_core6primalNtB5_12HealthStatus11is_degraded
FN:124,_RNvMs0_NtCskrSqHInbZEk_15loam_spine_core6primalNtB5_12HealthStatus12is_unhealthy
FN:169,_RNvMs2_NtCskrSqHInbZEk_15loam_spine_core6primalNtB5_12HealthReport11with_status
FN:176,_RNvMs2_NtCskrSqHInbZEk_15loam_spine_core6primalNtB5_12HealthReport11with_uptime
FN:183,_RNvMs2_NtCskrSqHInbZEk_15loam_spine_core6primalNtB5_12HealthReport14with_component
FN:130,_RNvXs1_NtCskrSqHInbZEk_15loam_spine_core6primalNtB5_12HealthStatusNtNtCs9sjCchOt1K7_4core3fmt7Display3fmt
FN:49,_RNvXs_NtCskrSqHInbZEk_15loam_spine_core6primalNtB4_11PrimalStateNtNtCs9sjCchOt1K7_4core3fmt7Display3fmt
FN:157,_RINvMs2_NtCskrSqHInbZEk_15loam_spine_core6primalNtB6_12HealthReport3newppEB8_
FN:203,_RINvMs3_NtCskrSqHInbZEk_15loam_spine_core6primalNtB6_15ComponentHealth7healthypEB8_
FN:213,_RINvMs3_NtCskrSqHInbZEk_15loam_spine_core6primalNtB6_15ComponentHealth8degradedppEB8_
FN:226,_RINvMs3_NtCskrSqHInbZEk_15loam_spine_core6primalNtB6_15ComponentHealth9unhealthyppEB8_
FN:88,_RNCNvYpNtNtCskrSqHInbZEk_15loam_spine_core6primal15PrimalLifecycle6reload0B9_
FN:87,_RNvYpNtNtCskrSqHInbZEk_15loam_spine_core6primal15PrimalLifecycle6reloadB7_
FN:203,_RINvMs3_NtCskrSqHInbZEk_15loam_spine_core6primalNtB6_15ComponentHealth7healthyNtNtCs6bBekJvxEMJ_5alloc6string6StringECs4S1xE8DPCBn_14loam_spine_api
FN:88,_RNCNvYpNtNtCsiWUamAnYf7P_15loam_spine_core6primal15PrimalLifecycle6reload0B9_
FN:87,_RNvYpNtNtCsiWUamAnYf7P_15loam_spine_core6primal15PrimalLifecycle6reloadB7_
FN:157,_RINvMs2_NtCsiWUamAnYf7P_15loam_spine_core6primalNtB6_12HealthReport3newRNtNtCs6bBekJvxEMJ_5alloc6string6StringReEB8_
FN:157,_RINvMs2_NtCsiWUamAnYf7P_15loam_spine_core6primalNtB6_12HealthReport3newReB17_EB8_
FN:203,_RINvMs3_NtCsiWUamAnYf7P_15loam_spine_core6primalNtB6_15ComponentHealth7healthyReEB8_
FN:213,_RINvMs3_NtCsiWUamAnYf7P_15loam_spine_core6primalNtB6_15ComponentHealth8degradedReB1f_EB8_
FN:213,_RINvMs3_NtCsiWUamAnYf7P_15loam_spine_core6primalNtB6_15ComponentHealth8degradedReNtNtCs6bBekJvxEMJ_5alloc6string6StringEB8_
FN:226,_RINvMs3_NtCsiWUamAnYf7P_15loam_spine_core6primalNtB6_15ComponentHealth9unhealthyReB1g_EB8_
FN:299,_RNvNtNtCsiWUamAnYf7P_15loam_spine_core6primal5testss_19primal_state_checks
FN:332,_RNvNtNtCsiWUamAnYf7P_15loam_spine_core6primal5testss_20health_status_checks
FN:382,_RNvNtNtCsiWUamAnYf7P_15loam_spine_core6primal5testss_20primal_error_display
FN:289,_RNvNtNtCsiWUamAnYf7P_15loam_spine_core6primal5testss_20primal_state_display
FN:353,_RNvNtNtCsiWUamAnYf7P_15loam_spine_core6primal5testss_21health_report_builder
FN:313,_RNvNtNtCsiWUamAnYf7P_15loam_spine_core6primal5testss_21health_status_display
FN:367,_RNvNtNtCsiWUamAnYf7P_15loam_spine_core6primal5testss_25component_health_variants
FN:31,_RNvMNtCsiWUamAnYf7P_15loam_spine_core6primalNtB2_11PrimalState10is_running
FN:43,_RNvMNtCsiWUamAnYf7P_15loam_spine_core6primalNtB2_11PrimalState11is_terminal
FN:37,_RNvMNtCsiWUamAnYf7P_15loam_spine_core6primalNtB2_11PrimalState12is_available
FN:112,_RNvMs0_NtCsiWUamAnYf7P_15loam_spine_core6primalNtB5_12HealthStatus10is_healthy
FN:118,_RNvMs0_NtCsiWUamAnYf7P_15loam_spine_core6primalNtB5_12HealthStatus11is_degraded
FN:124,_RNvMs0_NtCsiWUamAnYf7P_15loam_spine_core6primalNtB5_12HealthStatus12is_unhealthy
FN:169,_RNvMs2_NtCsiWUamAnYf7P_15loam_spine_core6primalNtB5_12HealthReport11with_status
FN:176,_RNvMs2_NtCsiWUamAnYf7P_15loam_spine_core6primalNtB5_12HealthReport11with_uptime
FN:183,_RNvMs2_NtCsiWUamAnYf7P_15loam_spine_core6primalNtB5_12HealthReport14with_component
FN:130,_RNvXs1_NtCsiWUamAnYf7P_15loam_spine_core6primalNtB5_12HealthStatusNtNtCs9sjCchOt1K7_4core3fmt7Display3fmt
FN:49,_RNvXs_NtCsiWUamAnYf7P_15loam_spine_core6primalNtB4_11PrimalStateNtNtCs9sjCchOt1K7_4core3fmt7Display3fmt
FNDA:1,_RINvMs3_NtCskrSqHInbZEk_15loam_spine_core6primalNtB6_15ComponentHealth7healthyNtNtCs6bBekJvxEMJ_5alloc6string6StringECs4SaE2cvVVUV_14loam_spine_api
FNDA:0,_RNvMNtCskrSqHInbZEk_15loam_spine_core6primalNtB2_11PrimalState10is_running
FNDA:0,_RNvMNtCskrSqHInbZEk_15loam_spine_core6primalNtB2_11PrimalState11is_terminal
FNDA:0,_RNvMNtCskrSqHInbZEk_15loam_spine_core6primalNtB2_11PrimalState12is_available
FNDA:2,_RNvMs0_NtCskrSqHInbZEk_15loam_spine_core6primalNtB5_12HealthStatus10is_healthy
FNDA:0,_RNvMs0_NtCskrSqHInbZEk_15loam_spine_core6primalNtB5_12HealthStatus11is_degraded
FNDA:0,_RNvMs0_NtCskrSqHInbZEk_15loam_spine_core6primalNtB5_12HealthStatus12is_unhealthy
FNDA:0,_RNvMs2_NtCskrSqHInbZEk_15loam_spine_core6primalNtB5_12HealthReport11with_status
FNDA:0,_RNvMs2_NtCskrSqHInbZEk_15loam_spine_core6primalNtB5_12HealthReport11with_uptime
FNDA:0,_RNvMs2_NtCskrSqHInbZEk_15loam_spine_core6primalNtB5_12HealthReport14with_component
FNDA:0,_RNvXs1_NtCskrSqHInbZEk_15loam_spine_core6primalNtB5_12HealthStatusNtNtCs9sjCchOt1K7_4core3fmt7Display3fmt
FNDA:0,_RNvXs_NtCskrSqHInbZEk_15loam_spine_core6primalNtB4_11PrimalStateNtNtCs9sjCchOt1K7_4core3fmt7Display3fmt
FNDA:0,_RINvMs2_NtCskrSqHInbZEk_15loam_spine_core6primalNtB6_12HealthReport3newppEB8_
FNDA:0,_RINvMs3_NtCskrSqHInbZEk_15loam_spine_core6primalNtB6_15ComponentHealth7healthypEB8_
FNDA:0,_RINvMs3_NtCskrSqHInbZEk_15loam_spine_core6primalNtB6_15ComponentHealth8degradedppEB8_
FNDA:0,_RINvMs3_NtCskrSqHInbZEk_15loam_spine_core6primalNtB6_15ComponentHealth9unhealthyppEB8_
FNDA:0,_RNCNvYpNtNtCskrSqHInbZEk_15loam_spine_core6primal15PrimalLifecycle6reload0B9_
FNDA:0,_RNvYpNtNtCskrSqHInbZEk_15loam_spine_core6primal15PrimalLifecycle6reloadB7_
FNDA:1,_RINvMs3_NtCskrSqHInbZEk_15loam_spine_core6primalNtB6_15ComponentHealth7healthyNtNtCs6bBekJvxEMJ_5alloc6string6StringECs4S1xE8DPCBn_14loam_spine_api
FNDA:0,_RNCNvYpNtNtCsiWUamAnYf7P_15loam_spine_core6primal15PrimalLifecycle6reload0B9_
FNDA:0,_RNvYpNtNtCsiWUamAnYf7P_15loam_spine_core6primal15PrimalLifecycle6reloadB7_
FNDA:3,_RINvMs2_NtCsiWUamAnYf7P_15loam_spine_core6primalNtB6_12HealthReport3newRNtNtCs6bBekJvxEMJ_5alloc6string6StringReEB8_
FNDA:1,_RINvMs2_NtCsiWUamAnYf7P_15loam_spine_core6primalNtB6_12HealthReport3newReB17_EB8_
FNDA:6,_RINvMs3_NtCsiWUamAnYf7P_15loam_spine_core6primalNtB6_15ComponentHealth7healthyReEB8_
FNDA:6,_RINvMs3_NtCsiWUamAnYf7P_15loam_spine_core6primalNtB6_15ComponentHealth8degradedReB1f_EB8_
FNDA:0,_RINvMs3_NtCsiWUamAnYf7P_15loam_spine_core6primalNtB6_15ComponentHealth8degradedReNtNtCs6bBekJvxEMJ_5alloc6string6StringEB8_
FNDA:1,_RINvMs3_NtCsiWUamAnYf7P_15loam_spine_core6primalNtB6_15ComponentHealth9unhealthyReB1g_EB8_
FNDA:1,_RNvNtNtCsiWUamAnYf7P_15loam_spine_core6primal5testss_19primal_state_checks
FNDA:1,_RNvNtNtCsiWUamAnYf7P_15loam_spine_core6primal5testss_20health_status_checks
FNDA:1,_RNvNtNtCsiWUamAnYf7P_15loam_spine_core6primal5testss_20primal_error_display
FNDA:1,_RNvNtNtCsiWUamAnYf7P_15loam_spine_core6primal5testss_20primal_state_display
FNDA:1,_RNvNtNtCsiWUamAnYf7P_15loam_spine_core6primal5testss_21health_report_builder
FNDA:1,_RNvNtNtCsiWUamAnYf7P_15loam_spine_core6primal5testss_21health_status_display
FNDA:1,_RNvNtNtCsiWUamAnYf7P_15loam_spine_core6primal5testss_25component_health_variants
FNDA:13,_RNvMNtCsiWUamAnYf7P_15loam_spine_core6primalNtB2_11PrimalState10is_running
FNDA:6,_RNvMNtCsiWUamAnYf7P_15loam_spine_core6primalNtB2_11PrimalState11is_terminal
FNDA:3,_RNvMNtCsiWUamAnYf7P_15loam_spine_core6primalNtB2_11PrimalState12is_available
FNDA:6,_RNvMs0_NtCsiWUamAnYf7P_15loam_spine_core6primalNtB5_12HealthStatus10is_healthy
FNDA:4,_RNvMs0_NtCsiWUamAnYf7P_15loam_spine_core6primalNtB5_12HealthStatus11is_degraded
FNDA:5,_RNvMs0_NtCsiWUamAnYf7P_15loam_spine_core6primalNtB5_12HealthStatus12is_unhealthy
FNDA:4,_RNvMs2_NtCsiWUamAnYf7P_15loam_spine_core6primalNtB5_12HealthReport11with_status
FNDA:4,_RNvMs2_NtCsiWUamAnYf7P_15loam_spine_core6primalNtB5_12HealthReport11with_uptime
FNDA:10,_RNvMs2_NtCsiWUamAnYf7P_15loam_spine_core6primalNtB5_12HealthReport14with_component
FNDA:3,_RNvXs1_NtCsiWUamAnYf7P_15loam_spine_core6primalNtB5_12HealthStatusNtNtCs9sjCchOt1K7_4core3fmt7Display3fmt
FNDA:7,_RNvXs_NtCsiWUamAnYf7P_15loam_spine_core6primalNtB4_11PrimalStateNtNtCs9sjCchOt1K7_4core3fmt7Display3fmt
FNF:24
FNH:22
DA:31,13
DA:32,13
DA:33,13
DA:37,3
DA:38,3
DA:39,3
DA:43,6
DA:44,6
DA:45,6
DA:49,7
DA:50,7
DA:51,2
DA:52,1
DA:53,1
DA:54,1
DA:55,1
DA:56,1
DA:58,7
DA:87,0
DA:88,0
DA:89,0
DA:112,8
DA:113,8
DA:114,8
DA:118,4
DA:119,4
DA:120,4
DA:124,5
DA:125,5
DA:126,5
DA:130,3
DA:131,3
DA:132,1
DA:133,1
DA:134,1
DA:136,3
DA:157,4
DA:158,4
DA:159,4
DA:160,4
DA:161,4
DA:162,4
DA:163,4
DA:164,4
DA:165,4
DA:169,4
DA:170,4
DA:171,4
DA:172,4
DA:176,4
DA:177,4
DA:178,4
DA:179,4
DA:183,10
DA:184,10
DA:185,10
DA:186,10
DA:203,8
DA:204,8
DA:205,8
DA:206,8
DA:207,8
DA:208,8
DA:209,8
DA:213,6
DA:214,6
DA:215,6
DA:216,6
DA:217,6
DA:218,6
DA:219,6
DA:220,6
DA:221,6
DA:222,6
DA:226,1
DA:227,1
DA:228,1
DA:229,1
DA:230,1
DA:231,1
DA:232,1
DA:233,1
DA:234,1
DA:235,1
DA:289,1
DA:290,1
DA:291,1
DA:292,1
DA:293,1
DA:294,1
DA:295,1
DA:296,1
DA:299,1
DA:300,1
DA:301,1
DA:302,1
DA:303,1
DA:304,1
DA:307,1
DA:308,1
DA:309,1
DA:310,1
DA:313,1
DA:314,1
DA:315,1
DA:316,1
DA:317,1
DA:318,1
DA:319,1
DA:320,1
DA:321,1
DA:322,1
DA:323,1
DA:324,1
DA:325,1
DA:326,1
DA:327,1
DA:328,1
DA:329,1
DA:332,1
DA:333,1
DA:334,1
DA:335,1
DA:337,1
DA:338,1
DA:339,1
DA:340,1
DA:341,1
DA:342,1
DA:344,1
DA:345,1
DA:346,1
DA:347,1
DA:348,1
DA:349,1
DA:350,1
DA:353,1
DA:354,1
DA:355,1
DA:356,1
DA:357,1
DA:358,1
DA:359,1
DA:360,1
DA:361,1
DA:362,1
DA:363,1
DA:364,1
DA:367,1
DA:368,1
DA:369,1
DA:370,1
DA:372,1
DA:373,1
DA:374,1
DA:376,1
DA:377,1
DA:378,1
DA:379,1
DA:382,1
DA:383,1
DA:384,1
DA:386,1
DA:387,1
DA:389,1
DA:390,1
DA:392,1
DA:393,1
DA:395,1
DA:396,1
DA:398,1
DA:399,1
DA:400,1
BRF:0
BRH:0
LF:173
LH:170
end_of_record
SF:/path/to/ecoPrimals/phase2/loamSpine/crates/loam-spine-core/src/proof.rs
FN:61,_RNvMNtCskrSqHInbZEk_15loam_spine_core5proofNtB2_14InclusionProof16with_attestation
FN:39,_RNvMNtCskrSqHInbZEk_15loam_spine_core5proofNtB2_14InclusionProof3new
FN:89,_RNvMNtCskrSqHInbZEk_15loam_spine_core5proofNtB2_14InclusionProof5depth
FN:70,_RNvMNtCskrSqHInbZEk_15loam_spine_core5proofNtB2_14InclusionProof6verify
FN:54,_RNvMNtCskrSqHInbZEk_15loam_spine_core5proofNtB2_14InclusionProof9with_path
FN:212,_RNvMs0_NtCskrSqHInbZEk_15loam_spine_core5proofNtB5_15ProvenanceProof12with_custody
FN:201,_RNvMs0_NtCskrSqHInbZEk_15loam_spine_core5proofNtB5_15ProvenanceProof3new
FN:219,_RNvMs0_NtCskrSqHInbZEk_15loam_spine_core5proofNtB5_15ProvenanceProof6verify
FN:260,_RNvMs1_NtCskrSqHInbZEk_15loam_spine_core5proofNtB5_18VerificationResult7failure
FN:250,_RNvMs1_NtCskrSqHInbZEk_15loam_spine_core5proofNtB5_18VerificationResult7success
FN:141,_RNvMs_NtCskrSqHInbZEk_15loam_spine_core5proofNtB4_16CertificateProof14with_transfers
FN:122,_RNvMs_NtCskrSqHInbZEk_15loam_spine_core5proofNtB4_16CertificateProof3new
FN:149,_RNvMs_NtCskrSqHInbZEk_15loam_spine_core5proofNtB4_16CertificateProof6verify
FN:356,_RNCNvNtNtCsiWUamAnYf7P_15loam_spine_core5proof5testss_32inclusion_proof_with_attestation0B7_
FN:302,_RNvNtNtCsiWUamAnYf7P_15loam_spine_core5proof5tests17create_test_entry
FN:558,_RNvNtNtCsiWUamAnYf7P_15loam_spine_core5proof5testss_19verification_result
FN:550,_RNvNtNtCsiWUamAnYf7P_15loam_spine_core5proof5testss_23history_summary_default
FN:308,_RNvNtNtCsiWUamAnYf7P_15loam_spine_core5proof5testss_24inclusion_proof_creation
FN:333,_RNvNtNtCsiWUamAnYf7P_15loam_spine_core5proof5testss_25inclusion_proof_with_path
FN:486,_RNvNtNtCsiWUamAnYf7P_15loam_spine_core5proof5testss_25provenance_proof_creation
FN:387,_RNvNtNtCsiWUamAnYf7P_15loam_spine_core5proof5testss_26certificate_proof_creation
FN:321,_RNvNtNtCsiWUamAnYf7P_15loam_spine_core5proof5testss_26inclusion_proof_verify_tip
FN:570,_RNvNtNtCsiWUamAnYf7P_15loam_spine_core5proof5testss_27verification_error_variants
FN:501,_RNvNtNtCsiWUamAnYf7P_15loam_spine_core5proof5testss_29provenance_proof_with_custody
FN:405,_RNvNtNtCsiWUamAnYf7P_15loam_spine_core5proof5testss_32certificate_proof_with_transfers
FN:347,_RNvNtNtCsiWUamAnYf7P_15loam_spine_core5proof5testss_32inclusion_proof_with_attestation
FN:597,_RNvNtNtCsiWUamAnYf7P_15loam_spine_core5proof5testss_35verification_result_multiple_errors
FN:427,_RNvNtNtCsiWUamAnYf7P_15loam_spine_core5proof5testss_41certificate_proof_fails_with_invalid_mint
FN:519,_RNvNtNtCsiWUamAnYf7P_15loam_spine_core5proof5testss_42provenance_proof_fails_with_invalid_anchor
FN:361,_RNvNtNtCsiWUamAnYf7P_15loam_spine_core5proof5testss_43inclusion_proof_verify_fails_with_wrong_tip
FN:533,_RNvNtNtCsiWUamAnYf7P_15loam_spine_core5proof5testss_43provenance_proof_fails_with_invalid_custody
FN:467,_RNvNtNtCsiWUamAnYf7P_15loam_spine_core5proof5testss_44certificate_proof_fails_with_invalid_current
FN:373,_RNvNtNtCsiWUamAnYf7P_15loam_spine_core5proof5testss_44inclusion_proof_verify_fails_with_wrong_path
FN:446,_RNvNtNtCsiWUamAnYf7P_15loam_spine_core5proof5testss_45certificate_proof_fails_with_invalid_transfer
FN:61,_RNvMNtCsiWUamAnYf7P_15loam_spine_core5proofNtB2_14InclusionProof16with_attestation
FN:39,_RNvMNtCsiWUamAnYf7P_15loam_spine_core5proofNtB2_14InclusionProof3new
FN:89,_RNvMNtCsiWUamAnYf7P_15loam_spine_core5proofNtB2_14InclusionProof5depth
FN:70,_RNvMNtCsiWUamAnYf7P_15loam_spine_core5proofNtB2_14InclusionProof6verify
FN:54,_RNvMNtCsiWUamAnYf7P_15loam_spine_core5proofNtB2_14InclusionProof9with_path
FN:212,_RNvMs0_NtCsiWUamAnYf7P_15loam_spine_core5proofNtB5_15ProvenanceProof12with_custody
FN:201,_RNvMs0_NtCsiWUamAnYf7P_15loam_spine_core5proofNtB5_15ProvenanceProof3new
FN:219,_RNvMs0_NtCsiWUamAnYf7P_15loam_spine_core5proofNtB5_15ProvenanceProof6verify
FN:260,_RNvMs1_NtCsiWUamAnYf7P_15loam_spine_core5proofNtB5_18VerificationResult7failure
FN:250,_RNvMs1_NtCsiWUamAnYf7P_15loam_spine_core5proofNtB5_18VerificationResult7success
FN:141,_RNvMs_NtCsiWUamAnYf7P_15loam_spine_core5proofNtB4_16CertificateProof14with_transfers
FN:122,_RNvMs_NtCsiWUamAnYf7P_15loam_spine_core5proofNtB4_16CertificateProof3new
FN:149,_RNvMs_NtCsiWUamAnYf7P_15loam_spine_core5proofNtB4_16CertificateProof6verify
FNDA:0,_RNvMNtCskrSqHInbZEk_15loam_spine_core5proofNtB2_14InclusionProof16with_attestation
FNDA:2,_RNvMNtCskrSqHInbZEk_15loam_spine_core5proofNtB2_14InclusionProof3new
FNDA:0,_RNvMNtCskrSqHInbZEk_15loam_spine_core5proofNtB2_14InclusionProof5depth
FNDA:2,_RNvMNtCskrSqHInbZEk_15loam_spine_core5proofNtB2_14InclusionProof6verify
FNDA:2,_RNvMNtCskrSqHInbZEk_15loam_spine_core5proofNtB2_14InclusionProof9with_path
FNDA:0,_RNvMs0_NtCskrSqHInbZEk_15loam_spine_core5proofNtB5_15ProvenanceProof12with_custody
FNDA:0,_RNvMs0_NtCskrSqHInbZEk_15loam_spine_core5proofNtB5_15ProvenanceProof3new
FNDA:0,_RNvMs0_NtCskrSqHInbZEk_15loam_spine_core5proofNtB5_15ProvenanceProof6verify
FNDA:0,_RNvMs1_NtCskrSqHInbZEk_15loam_spine_core5proofNtB5_18VerificationResult7failure
FNDA:0,_RNvMs1_NtCskrSqHInbZEk_15loam_spine_core5proofNtB5_18VerificationResult7success
FNDA:0,_RNvMs_NtCskrSqHInbZEk_15loam_spine_core5proofNtB4_16CertificateProof14with_transfers
FNDA:0,_RNvMs_NtCskrSqHInbZEk_15loam_spine_core5proofNtB4_16CertificateProof3new
FNDA:0,_RNvMs_NtCskrSqHInbZEk_15loam_spine_core5proofNtB4_16CertificateProof6verify
FNDA:1,_RNCNvNtNtCsiWUamAnYf7P_15loam_spine_core5proof5testss_32inclusion_proof_with_attestation0B7_
FNDA:15,_RNvNtNtCsiWUamAnYf7P_15loam_spine_core5proof5tests17create_test_entry
FNDA:1,_RNvNtNtCsiWUamAnYf7P_15loam_spine_core5proof5testss_19verification_result
FNDA:1,_RNvNtNtCsiWUamAnYf7P_15loam_spine_core5proof5testss_23history_summary_default
FNDA:1,_RNvNtNtCsiWUamAnYf7P_15loam_spine_core5proof5testss_24inclusion_proof_creation
FNDA:1,_RNvNtNtCsiWUamAnYf7P_15loam_spine_core5proof5testss_25inclusion_proof_with_path
FNDA:1,_RNvNtNtCsiWUamAnYf7P_15loam_spine_core5proof5testss_25provenance_proof_creation
FNDA:1,_RNvNtNtCsiWUamAnYf7P_15loam_spine_core5proof5testss_26certificate_proof_creation
FNDA:1,_RNvNtNtCsiWUamAnYf7P_15loam_spine_core5proof5testss_26inclusion_proof_verify_tip
FNDA:1,_RNvNtNtCsiWUamAnYf7P_15loam_spine_core5proof5testss_27verification_error_variants
FNDA:1,_RNvNtNtCsiWUamAnYf7P_15loam_spine_core5proof5testss_29provenance_proof_with_custody
FNDA:1,_RNvNtNtCsiWUamAnYf7P_15loam_spine_core5proof5testss_32certificate_proof_with_transfers
FNDA:1,_RNvNtNtCsiWUamAnYf7P_15loam_spine_core5proof5testss_32inclusion_proof_with_attestation
FNDA:1,_RNvNtNtCsiWUamAnYf7P_15loam_spine_core5proof5testss_35verification_result_multiple_errors
FNDA:1,_RNvNtNtCsiWUamAnYf7P_15loam_spine_core5proof5testss_41certificate_proof_fails_with_invalid_mint
FNDA:1,_RNvNtNtCsiWUamAnYf7P_15loam_spine_core5proof5testss_42provenance_proof_fails_with_invalid_anchor
FNDA:1,_RNvNtNtCsiWUamAnYf7P_15loam_spine_core5proof5testss_43inclusion_proof_verify_fails_with_wrong_tip
FNDA:1,_RNvNtNtCsiWUamAnYf7P_15loam_spine_core5proof5testss_43provenance_proof_fails_with_invalid_custody
FNDA:1,_RNvNtNtCsiWUamAnYf7P_15loam_spine_core5proof5testss_44certificate_proof_fails_with_invalid_current
FNDA:1,_RNvNtNtCsiWUamAnYf7P_15loam_spine_core5proof5testss_44inclusion_proof_verify_fails_with_wrong_path
FNDA:1,_RNvNtNtCsiWUamAnYf7P_15loam_spine_core5proof5testss_45certificate_proof_fails_with_invalid_transfer
FNDA:1,_RNvMNtCsiWUamAnYf7P_15loam_spine_core5proofNtB2_14InclusionProof16with_attestation
FNDA:27,_RNvMNtCsiWUamAnYf7P_15loam_spine_core5proofNtB2_14InclusionProof3new
FNDA:2,_RNvMNtCsiWUamAnYf7P_15loam_spine_core5proofNtB2_14InclusionProof5depth
FNDA:24,_RNvMNtCsiWUamAnYf7P_15loam_spine_core5proofNtB2_14InclusionProof6verify
FNDA:3,_RNvMNtCsiWUamAnYf7P_15loam_spine_core5proofNtB2_14InclusionProof9with_path
FNDA:2,_RNvMs0_NtCsiWUamAnYf7P_15loam_spine_core5proofNtB5_15ProvenanceProof12with_custody
FNDA:4,_RNvMs0_NtCsiWUamAnYf7P_15loam_spine_core5proofNtB5_15ProvenanceProof3new
FNDA:4,_RNvMs0_NtCsiWUamAnYf7P_15loam_spine_core5proofNtB5_15ProvenanceProof6verify
FNDA:2,_RNvMs1_NtCsiWUamAnYf7P_15loam_spine_core5proofNtB5_18VerificationResult7failure
FNDA:1,_RNvMs1_NtCsiWUamAnYf7P_15loam_spine_core5proofNtB5_18VerificationResult7success
FNDA:2,_RNvMs_NtCsiWUamAnYf7P_15loam_spine_core5proofNtB4_16CertificateProof14with_transfers
FNDA:5,_RNvMs_NtCsiWUamAnYf7P_15loam_spine_core5proofNtB4_16CertificateProof3new
FNDA:5,_RNvMs_NtCsiWUamAnYf7P_15loam_spine_core5proofNtB4_16CertificateProof6verify
FNF:34
FNH:34
DA:39,29
DA:40,29
DA:41,29
DA:42,29
DA:43,29
DA:44,29
DA:45,29
DA:46,29
DA:47,29
DA:48,29
DA:49,29
DA:50,29
DA:54,5
DA:55,5
DA:56,5
DA:57,5
DA:61,1
DA:62,1
DA:63,1
DA:64,1
DA:70,26
DA:71,26
DA:72,26
DA:73,0
DA:74,26
DA:75,26
DA:76,26
DA:77,26
DA:78,24
DA:79,2
DA:80,2
DA:81,2
DA:82,2
DA:83,2
DA:84,2
DA:85,26
DA:89,2
DA:90,2
DA:91,2
DA:122,5
DA:123,5
DA:124,5
DA:125,5
DA:126,5
DA:127,5
DA:128,5
DA:129,5
DA:130,5
DA:131,5
DA:132,5
DA:133,5
DA:134,5
DA:135,5
DA:136,5
DA:137,5
DA:141,2
DA:142,2
DA:143,2
DA:144,2
DA:145,2
DA:149,5
DA:150,5
DA:151,5
DA:152,1
DA:153,4
DA:156,6
DA:157,3
DA:158,1
DA:159,2
DA:163,3
DA:164,1
DA:165,2
DA:166,2
DA:167,2
DA:168,5
DA:201,4
DA:202,4
DA:203,4
DA:204,4
DA:205,4
DA:206,4
DA:207,4
DA:208,4
DA:212,2
DA:213,2
DA:214,2
DA:215,2
DA:219,4
DA:220,4
DA:221,4
DA:222,1
DA:223,3
DA:226,5
DA:227,3
DA:228,1
DA:229,2
DA:232,2
DA:233,4
DA:250,1
DA:251,1
DA:252,1
DA:253,1
DA:254,1
DA:255,1
DA:256,1
DA:260,2
DA:261,2
DA:262,2
DA:263,2
DA:264,2
DA:265,2
DA:266,2
DA:302,15
DA:303,15
DA:304,15
DA:305,15
DA:308,1
DA:309,1
DA:310,1
DA:311,1
DA:312,1
DA:313,1
DA:314,1
DA:315,1
DA:316,1
DA:317,1
DA:318,1
DA:321,1
DA:322,1
DA:323,1
DA:324,1
DA:325,1
DA:326,1
DA:327,1
DA:328,1
DA:329,1
DA:330,1
DA:333,1
DA:334,1
DA:335,1
DA:336,1
DA:337,1
DA:338,1
DA:339,1
DA:340,1
DA:341,1
DA:343,1
DA:344,1
DA:347,1
DA:348,1
DA:349,1
DA:350,1
DA:351,1
DA:352,1
DA:353,1
DA:354,1
DA:355,1
DA:356,1
DA:357,1
DA:358,1
DA:361,1
DA:362,1
DA:363,1
DA:364,1
DA:365,1
DA:366,1
DA:367,1
DA:368,1
DA:369,1
DA:370,1
DA:373,1
DA:374,1
DA:375,1
DA:376,1
DA:377,1
DA:378,1
DA:379,1
DA:380,1
DA:381,1
DA:382,1
DA:383,1
DA:384,1
DA:387,1
DA:388,1
DA:389,1
DA:390,1
DA:391,1
DA:392,1
DA:393,1
DA:394,1
DA:395,1
DA:396,1
DA:397,1
DA:398,1
DA:399,1
DA:400,1
DA:401,1
DA:402,1
DA:405,1
DA:406,1
DA:407,1
DA:408,1
DA:409,1
DA:410,1
DA:411,1
DA:412,1
DA:413,1
DA:414,1
DA:415,1
DA:416,1
DA:417,1
DA:418,1
DA:419,1
DA:420,1
DA:421,1
DA:422,1
DA:423,1
DA:424,1
DA:427,1
DA:428,1
DA:429,1
DA:430,1
DA:431,1
DA:432,1
DA:433,1
DA:434,1
DA:435,1
DA:436,1
DA:437,1
DA:438,1
DA:439,1
DA:440,1
DA:441,1
DA:442,1
DA:443,1
DA:446,1
DA:447,1
DA:448,1
DA:449,1
DA:450,1
DA:451,1
DA:452,1
DA:453,1
DA:454,1
DA:455,1
DA:456,1
DA:457,1
DA:458,1
DA:459,1
DA:460,1
DA:461,1
DA:462,1
DA:463,1
DA:464,1
DA:467,1
DA:468,1
DA:469,1
DA:470,1
DA:471,1
DA:472,1
DA:473,1
DA:474,1
DA:475,1
DA:476,1
DA:477,1
DA:478,1
DA:479,1
DA:480,1
DA:481,1
DA:482,1
DA:483,1
DA:486,1
DA:487,1
DA:488,1
DA:489,1
DA:490,1
DA:491,1
DA:492,1
DA:493,1
DA:494,1
DA:495,1
DA:496,1
DA:497,1
DA:498,1
DA:501,1
DA:502,1
DA:503,1
DA:504,1
DA:505,1
DA:506,1
DA:507,1
DA:508,1
DA:509,1
DA:510,1
DA:511,1
DA:512,1
DA:513,1
DA:514,1
DA:515,1
DA:516,1
DA:519,1
DA:520,1
DA:521,1
DA:522,1
DA:523,1
DA:524,1
DA:525,1
DA:526,1
DA:527,1
DA:528,1
DA:529,1
DA:530,1
DA:533,1
DA:534,1
DA:535,1
DA:536,1
DA:537,1
DA:538,1
DA:539,1
DA:540,1
DA:541,1
DA:542,1
DA:543,1
DA:544,1
DA:545,1
DA:546,1
DA:547,1
DA:550,1
DA:551,1
DA:552,1
DA:553,1
DA:554,1
DA:555,1
DA:558,1
DA:559,1
DA:560,1
DA:561,1
DA:563,1
DA:564,1
DA:565,1
DA:566,1
DA:567,1
DA:570,1
DA:571,1
DA:572,1
DA:573,1
DA:574,1
DA:575,1
DA:576,1
DA:579,1
DA:580,1
DA:581,1
DA:582,1
DA:585,1
DA:586,1
DA:587,1
DA:592,1
DA:593,1
DA:594,1
DA:597,1
DA:598,1
DA:599,1
DA:600,1
DA:601,1
DA:602,1
DA:603,1
DA:604,1
DA:605,1
DA:606,1
DA:607,1
DA:608,1
DA:609,1
DA:610,1
DA:611,1
BRF:0
BRH:0
LF:375
LH:374
end_of_record
SF:/path/to/ecoPrimals/phase2/loamSpine/crates/loam-spine-core/src/service/certificate.rs
FN:96,_RNCNCNvMNtNtCskrSqHInbZEk_15loam_spine_core7service11certificateNtB8_16LoamSpineService15get_certificate00Cs4SaE2cvVVUV_14loam_spine_api
FN:94,_RNCNvMNtNtCskrSqHInbZEk_15loam_spine_core7service11certificateNtB6_16LoamSpineService15get_certificate0Cs4SaE2cvVVUV_14loam_spine_api
FN:169,_RNCNvMNtNtCskrSqHInbZEk_15loam_spine_core7service11certificateNtB6_16LoamSpineService16loan_certificate0Cs4SaE2cvVVUV_14loam_spine_api
FN:43,_RNCNvMNtNtCskrSqHInbZEk_15loam_spine_core7service11certificateNtB6_16LoamSpineService16mint_certificate0Cs4SaE2cvVVUV_14loam_spine_api
FN:237,_RNCNvMNtNtCskrSqHInbZEk_15loam_spine_core7service11certificateNtB6_16LoamSpineService18return_certificate0Cs4SaE2cvVVUV_14loam_spine_api
FN:112,_RNCNvMNtNtCskrSqHInbZEk_15loam_spine_core7service11certificateNtB6_16LoamSpineService20transfer_certificate0Cs4SaE2cvVVUV_14loam_spine_api
FN:94,_RNvMNtNtCskrSqHInbZEk_15loam_spine_core7service11certificateNtB4_16LoamSpineService15get_certificate
FN:163,_RNvMNtNtCskrSqHInbZEk_15loam_spine_core7service11certificateNtB4_16LoamSpineService16loan_certificate
FN:37,_RNvMNtNtCskrSqHInbZEk_15loam_spine_core7service11certificateNtB4_16LoamSpineService16mint_certificate
FN:294,_RNvMNtNtCskrSqHInbZEk_15loam_spine_core7service11certificateNtB4_16LoamSpineService17certificate_count
FN:288,_RNvMNtNtCskrSqHInbZEk_15loam_spine_core7service11certificateNtB4_16LoamSpineService17list_certificates
FN:233,_RNvMNtNtCskrSqHInbZEk_15loam_spine_core7service11certificateNtB4_16LoamSpineService18return_certificate
FN:107,_RNvMNtNtCskrSqHInbZEk_15loam_spine_core7service11certificateNtB4_16LoamSpineService20transfer_certificate
FN:96,_RNCNCNvMNtNtCskrSqHInbZEk_15loam_spine_core7service11certificateNtB8_16LoamSpineService15get_certificate00Ba_
FN:290,_RNCNCNvMNtNtCskrSqHInbZEk_15loam_spine_core7service11certificateNtB8_16LoamSpineService17list_certificates00Ba_
FN:94,_RNCNvMNtNtCskrSqHInbZEk_15loam_spine_core7service11certificateNtB6_16LoamSpineService15get_certificate0B8_
FN:169,_RNCNvMNtNtCskrSqHInbZEk_15loam_spine_core7service11certificateNtB6_16LoamSpineService16loan_certificate0B8_
FN:43,_RNCNvMNtNtCskrSqHInbZEk_15loam_spine_core7service11certificateNtB6_16LoamSpineService16mint_certificate0B8_
FN:294,_RNCNvMNtNtCskrSqHInbZEk_15loam_spine_core7service11certificateNtB6_16LoamSpineService17certificate_count0B8_
FN:288,_RNCNvMNtNtCskrSqHInbZEk_15loam_spine_core7service11certificateNtB6_16LoamSpineService17list_certificates0B8_
FN:237,_RNCNvMNtNtCskrSqHInbZEk_15loam_spine_core7service11certificateNtB6_16LoamSpineService18return_certificate0B8_
FN:112,_RNCNvMNtNtCskrSqHInbZEk_15loam_spine_core7service11certificateNtB6_16LoamSpineService20transfer_certificate0B8_
FN:96,_RNCNCNvMNtNtCskrSqHInbZEk_15loam_spine_core7service11certificateNtB8_16LoamSpineService15get_certificate00Csd5Jd4nU1YRX_5chaos
FN:94,_RNCNvMNtNtCskrSqHInbZEk_15loam_spine_core7service11certificateNtB6_16LoamSpineService15get_certificate0Csd5Jd4nU1YRX_5chaos
FN:169,_RNCNvMNtNtCskrSqHInbZEk_15loam_spine_core7service11certificateNtB6_16LoamSpineService16loan_certificate0Csd5Jd4nU1YRX_5chaos
FN:43,_RNCNvMNtNtCskrSqHInbZEk_15loam_spine_core7service11certificateNtB6_16LoamSpineService16mint_certificate0Csd5Jd4nU1YRX_5chaos
FN:237,_RNCNvMNtNtCskrSqHInbZEk_15loam_spine_core7service11certificateNtB6_16LoamSpineService18return_certificate0Csd5Jd4nU1YRX_5chaos
FN:112,_RNCNvMNtNtCskrSqHInbZEk_15loam_spine_core7service11certificateNtB6_16LoamSpineService20transfer_certificate0Csd5Jd4nU1YRX_5chaos
FN:96,_RNCNCNvMNtNtCskrSqHInbZEk_15loam_spine_core7service11certificateNtB8_16LoamSpineService15get_certificate00Cslk0Lj0FVdsD_3e2e
FN:94,_RNCNvMNtNtCskrSqHInbZEk_15loam_spine_core7service11certificateNtB6_16LoamSpineService15get_certificate0Cslk0Lj0FVdsD_3e2e
FN:169,_RNCNvMNtNtCskrSqHInbZEk_15loam_spine_core7service11certificateNtB6_16LoamSpineService16loan_certificate0Cslk0Lj0FVdsD_3e2e
FN:43,_RNCNvMNtNtCskrSqHInbZEk_15loam_spine_core7service11certificateNtB6_16LoamSpineService16mint_certificate0Cslk0Lj0FVdsD_3e2e
FN:237,_RNCNvMNtNtCskrSqHInbZEk_15loam_spine_core7service11certificateNtB6_16LoamSpineService18return_certificate0Cslk0Lj0FVdsD_3e2e
FN:112,_RNCNvMNtNtCskrSqHInbZEk_15loam_spine_core7service11certificateNtB6_16LoamSpineService20transfer_certificate0Cslk0Lj0FVdsD_3e2e
FN:96,_RNCNCNvMNtNtCskrSqHInbZEk_15loam_spine_core7service11certificateNtB8_16LoamSpineService15get_certificate00Cs4S1xE8DPCBn_14loam_spine_api
FN:94,_RNCNvMNtNtCskrSqHInbZEk_15loam_spine_core7service11certificateNtB6_16LoamSpineService15get_certificate0Cs4S1xE8DPCBn_14loam_spine_api
FN:169,_RNCNvMNtNtCskrSqHInbZEk_15loam_spine_core7service11certificateNtB6_16LoamSpineService16loan_certificate0Cs4S1xE8DPCBn_14loam_spine_api
FN:43,_RNCNvMNtNtCskrSqHInbZEk_15loam_spine_core7service11certificateNtB6_16LoamSpineService16mint_certificate0Cs4S1xE8DPCBn_14loam_spine_api
FN:237,_RNCNvMNtNtCskrSqHInbZEk_15loam_spine_core7service11certificateNtB6_16LoamSpineService18return_certificate0Cs4S1xE8DPCBn_14loam_spine_api
FN:112,_RNCNvMNtNtCskrSqHInbZEk_15loam_spine_core7service11certificateNtB6_16LoamSpineService20transfer_certificate0Cs4S1xE8DPCBn_14loam_spine_api
FN:96,_RNCNCNvMNtNtCsiWUamAnYf7P_15loam_spine_core7service11certificateNtB8_16LoamSpineService15get_certificate00Ba_
FN:290,_RNCNCNvMNtNtCsiWUamAnYf7P_15loam_spine_core7service11certificateNtB8_16LoamSpineService17list_certificates00Ba_
FN:94,_RNCNvMNtNtCsiWUamAnYf7P_15loam_spine_core7service11certificateNtB6_16LoamSpineService15get_certificate0B8_
FN:169,_RNCNvMNtNtCsiWUamAnYf7P_15loam_spine_core7service11certificateNtB6_16LoamSpineService16loan_certificate0B8_
FN:43,_RNCNvMNtNtCsiWUamAnYf7P_15loam_spine_core7service11certificateNtB6_16LoamSpineService16mint_certificate0B8_
FN:294,_RNCNvMNtNtCsiWUamAnYf7P_15loam_spine_core7service11certificateNtB6_16LoamSpineService17certificate_count0B8_
FN:288,_RNCNvMNtNtCsiWUamAnYf7P_15loam_spine_core7service11certificateNtB6_16LoamSpineService17list_certificates0B8_
FN:237,_RNCNvMNtNtCsiWUamAnYf7P_15loam_spine_core7service11certificateNtB6_16LoamSpineService18return_certificate0B8_
FN:112,_RNCNvMNtNtCsiWUamAnYf7P_15loam_spine_core7service11certificateNtB6_16LoamSpineService20transfer_certificate0B8_
FN:305,_RNCNvNtNtNtCsiWUamAnYf7P_15loam_spine_core7service11certificate5testss_21test_mint_certificate0B9_
FN:340,_RNCNvNtNtNtCsiWUamAnYf7P_15loam_spine_core7service11certificate5testss_25test_certificate_transfer0B9_
FN:374,_RNCNvNtNtNtCsiWUamAnYf7P_15loam_spine_core7service11certificate5testss_32test_certificate_loan_and_return0B9_
FN:305,_RNvNtNtNtCsiWUamAnYf7P_15loam_spine_core7service11certificate5testss_21test_mint_certificate
FN:340,_RNvNtNtNtCsiWUamAnYf7P_15loam_spine_core7service11certificate5testss_25test_certificate_transfer
FN:374,_RNvNtNtNtCsiWUamAnYf7P_15loam_spine_core7service11certificate5testss_32test_certificate_loan_and_return
FN:94,_RNvMNtNtCsiWUamAnYf7P_15loam_spine_core7service11certificateNtB4_16LoamSpineService15get_certificate
FN:163,_RNvMNtNtCsiWUamAnYf7P_15loam_spine_core7service11certificateNtB4_16LoamSpineService16loan_certificate
FN:37,_RNvMNtNtCsiWUamAnYf7P_15loam_spine_core7service11certificateNtB4_16LoamSpineService16mint_certificate
FN:294,_RNvMNtNtCsiWUamAnYf7P_15loam_spine_core7service11certificateNtB4_16LoamSpineService17certificate_count
FN:288,_RNvMNtNtCsiWUamAnYf7P_15loam_spine_core7service11certificateNtB4_16LoamSpineService17list_certificates
FN:233,_RNvMNtNtCsiWUamAnYf7P_15loam_spine_core7service11certificateNtB4_16LoamSpineService18return_certificate
FN:107,_RNvMNtNtCsiWUamAnYf7P_15loam_spine_core7service11certificateNtB4_16LoamSpineService20transfer_certificate
FNDA:2,_RNCNCNvMNtNtCskrSqHInbZEk_15loam_spine_core7service11certificateNtB8_16LoamSpineService15get_certificate00Cs4SaE2cvVVUV_14loam_spine_api
FNDA:2,_RNCNvMNtNtCskrSqHInbZEk_15loam_spine_core7service11certificateNtB6_16LoamSpineService15get_certificate0Cs4SaE2cvVVUV_14loam_spine_api
FNDA:1,_RNCNvMNtNtCskrSqHInbZEk_15loam_spine_core7service11certificateNtB6_16LoamSpineService16loan_certificate0Cs4SaE2cvVVUV_14loam_spine_api
FNDA:2,_RNCNvMNtNtCskrSqHInbZEk_15loam_spine_core7service11certificateNtB6_16LoamSpineService16mint_certificate0Cs4SaE2cvVVUV_14loam_spine_api
FNDA:1,_RNCNvMNtNtCskrSqHInbZEk_15loam_spine_core7service11certificateNtB6_16LoamSpineService18return_certificate0Cs4SaE2cvVVUV_14loam_spine_api
FNDA:1,_RNCNvMNtNtCskrSqHInbZEk_15loam_spine_core7service11certificateNtB6_16LoamSpineService20transfer_certificate0Cs4SaE2cvVVUV_14loam_spine_api
FNDA:12,_RNvMNtNtCskrSqHInbZEk_15loam_spine_core7service11certificateNtB4_16LoamSpineService15get_certificate
FNDA:55,_RNvMNtNtCskrSqHInbZEk_15loam_spine_core7service11certificateNtB4_16LoamSpineService16loan_certificate
FNDA:181,_RNvMNtNtCskrSqHInbZEk_15loam_spine_core7service11certificateNtB4_16LoamSpineService16mint_certificate
FNDA:0,_RNvMNtNtCskrSqHInbZEk_15loam_spine_core7service11certificateNtB4_16LoamSpineService17certificate_count
FNDA:0,_RNvMNtNtCskrSqHInbZEk_15loam_spine_core7service11certificateNtB4_16LoamSpineService17list_certificates
FNDA:54,_RNvMNtNtCskrSqHInbZEk_15loam_spine_core7service11certificateNtB4_16LoamSpineService18return_certificate
FNDA:5,_RNvMNtNtCskrSqHInbZEk_15loam_spine_core7service11certificateNtB4_16LoamSpineService20transfer_certificate
FNDA:0,_RNCNCNvMNtNtCskrSqHInbZEk_15loam_spine_core7service11certificateNtB8_16LoamSpineService15get_certificate00Ba_
FNDA:0,_RNCNCNvMNtNtCskrSqHInbZEk_15loam_spine_core7service11certificateNtB8_16LoamSpineService17list_certificates00Ba_
FNDA:0,_RNCNvMNtNtCskrSqHInbZEk_15loam_spine_core7service11certificateNtB6_16LoamSpineService15get_certificate0B8_
FNDA:0,_RNCNvMNtNtCskrSqHInbZEk_15loam_spine_core7service11certificateNtB6_16LoamSpineService16loan_certificate0B8_
FNDA:0,_RNCNvMNtNtCskrSqHInbZEk_15loam_spine_core7service11certificateNtB6_16LoamSpineService16mint_certificate0B8_
FNDA:0,_RNCNvMNtNtCskrSqHInbZEk_15loam_spine_core7service11certificateNtB6_16LoamSpineService17certificate_count0B8_
FNDA:0,_RNCNvMNtNtCskrSqHInbZEk_15loam_spine_core7service11certificateNtB6_16LoamSpineService17list_certificates0B8_
FNDA:0,_RNCNvMNtNtCskrSqHInbZEk_15loam_spine_core7service11certificateNtB6_16LoamSpineService18return_certificate0B8_
FNDA:0,_RNCNvMNtNtCskrSqHInbZEk_15loam_spine_core7service11certificateNtB6_16LoamSpineService20transfer_certificate0B8_
FNDA:1,_RNCNCNvMNtNtCskrSqHInbZEk_15loam_spine_core7service11certificateNtB8_16LoamSpineService15get_certificate00Csd5Jd4nU1YRX_5chaos
FNDA:2,_RNCNvMNtNtCskrSqHInbZEk_15loam_spine_core7service11certificateNtB6_16LoamSpineService15get_certificate0Csd5Jd4nU1YRX_5chaos
FNDA:52,_RNCNvMNtNtCskrSqHInbZEk_15loam_spine_core7service11certificateNtB6_16LoamSpineService16loan_certificate0Csd5Jd4nU1YRX_5chaos
FNDA:173,_RNCNvMNtNtCskrSqHInbZEk_15loam_spine_core7service11certificateNtB6_16LoamSpineService16mint_certificate0Csd5Jd4nU1YRX_5chaos
FNDA:51,_RNCNvMNtNtCskrSqHInbZEk_15loam_spine_core7service11certificateNtB6_16LoamSpineService18return_certificate0Csd5Jd4nU1YRX_5chaos
FNDA:2,_RNCNvMNtNtCskrSqHInbZEk_15loam_spine_core7service11certificateNtB6_16LoamSpineService20transfer_certificate0Csd5Jd4nU1YRX_5chaos
FNDA:4,_RNCNCNvMNtNtCskrSqHInbZEk_15loam_spine_core7service11certificateNtB8_16LoamSpineService15get_certificate00Cslk0Lj0FVdsD_3e2e
FNDA:4,_RNCNvMNtNtCskrSqHInbZEk_15loam_spine_core7service11certificateNtB6_16LoamSpineService15get_certificate0Cslk0Lj0FVdsD_3e2e
FNDA:1,_RNCNvMNtNtCskrSqHInbZEk_15loam_spine_core7service11certificateNtB6_16LoamSpineService16loan_certificate0Cslk0Lj0FVdsD_3e2e
FNDA:1,_RNCNvMNtNtCskrSqHInbZEk_15loam_spine_core7service11certificateNtB6_16LoamSpineService16mint_certificate0Cslk0Lj0FVdsD_3e2e
FNDA:1,_RNCNvMNtNtCskrSqHInbZEk_15loam_spine_core7service11certificateNtB6_16LoamSpineService18return_certificate0Cslk0Lj0FVdsD_3e2e
FNDA:1,_RNCNvMNtNtCskrSqHInbZEk_15loam_spine_core7service11certificateNtB6_16LoamSpineService20transfer_certificate0Cslk0Lj0FVdsD_3e2e
FNDA:4,_RNCNCNvMNtNtCskrSqHInbZEk_15loam_spine_core7service11certificateNtB8_16LoamSpineService15get_certificate00Cs4S1xE8DPCBn_14loam_spine_api
FNDA:4,_RNCNvMNtNtCskrSqHInbZEk_15loam_spine_core7service11certificateNtB6_16LoamSpineService15get_certificate0Cs4S1xE8DPCBn_14loam_spine_api
FNDA:1,_RNCNvMNtNtCskrSqHInbZEk_15loam_spine_core7service11certificateNtB6_16LoamSpineService16loan_certificate0Cs4S1xE8DPCBn_14loam_spine_api
FNDA:5,_RNCNvMNtNtCskrSqHInbZEk_15loam_spine_core7service11certificateNtB6_16LoamSpineService16mint_certificate0Cs4S1xE8DPCBn_14loam_spine_api
FNDA:1,_RNCNvMNtNtCskrSqHInbZEk_15loam_spine_core7service11certificateNtB6_16LoamSpineService18return_certificate0Cs4S1xE8DPCBn_14loam_spine_api
FNDA:1,_RNCNvMNtNtCskrSqHInbZEk_15loam_spine_core7service11certificateNtB6_16LoamSpineService20transfer_certificate0Cs4S1xE8DPCBn_14loam_spine_api
FNDA:4,_RNCNCNvMNtNtCsiWUamAnYf7P_15loam_spine_core7service11certificateNtB8_16LoamSpineService15get_certificate00Ba_
FNDA:1,_RNCNCNvMNtNtCsiWUamAnYf7P_15loam_spine_core7service11certificateNtB8_16LoamSpineService17list_certificates00Ba_
FNDA:4,_RNCNvMNtNtCsiWUamAnYf7P_15loam_spine_core7service11certificateNtB6_16LoamSpineService15get_certificate0B8_
FNDA:1,_RNCNvMNtNtCsiWUamAnYf7P_15loam_spine_core7service11certificateNtB6_16LoamSpineService16loan_certificate0B8_
FNDA:3,_RNCNvMNtNtCsiWUamAnYf7P_15loam_spine_core7service11certificateNtB6_16LoamSpineService16mint_certificate0B8_
FNDA:2,_RNCNvMNtNtCsiWUamAnYf7P_15loam_spine_core7service11certificateNtB6_16LoamSpineService17certificate_count0B8_
FNDA:1,_RNCNvMNtNtCsiWUamAnYf7P_15loam_spine_core7service11certificateNtB6_16LoamSpineService17list_certificates0B8_
FNDA:1,_RNCNvMNtNtCsiWUamAnYf7P_15loam_spine_core7service11certificateNtB6_16LoamSpineService18return_certificate0B8_
FNDA:1,_RNCNvMNtNtCsiWUamAnYf7P_15loam_spine_core7service11certificateNtB6_16LoamSpineService20transfer_certificate0B8_
FNDA:1,_RNCNvNtNtNtCsiWUamAnYf7P_15loam_spine_core7service11certificate5testss_21test_mint_certificate0B9_
FNDA:1,_RNCNvNtNtNtCsiWUamAnYf7P_15loam_spine_core7service11certificate5testss_25test_certificate_transfer0B9_
FNDA:1,_RNCNvNtNtNtCsiWUamAnYf7P_15loam_spine_core7service11certificate5testss_32test_certificate_loan_and_return0B9_
FNDA:1,_RNvNtNtNtCsiWUamAnYf7P_15loam_spine_core7service11certificate5testss_21test_mint_certificate
FNDA:1,_RNvNtNtNtCsiWUamAnYf7P_15loam_spine_core7service11certificate5testss_25test_certificate_transfer
FNDA:1,_RNvNtNtNtCsiWUamAnYf7P_15loam_spine_core7service11certificate5testss_32test_certificate_loan_and_return
FNDA:4,_RNvMNtNtCsiWUamAnYf7P_15loam_spine_core7service11certificateNtB4_16LoamSpineService15get_certificate
FNDA:1,_RNvMNtNtCsiWUamAnYf7P_15loam_spine_core7service11certificateNtB4_16LoamSpineService16loan_certificate
FNDA:3,_RNvMNtNtCsiWUamAnYf7P_15loam_spine_core7service11certificateNtB4_16LoamSpineService16mint_certificate
FNDA:2,_RNvMNtNtCsiWUamAnYf7P_15loam_spine_core7service11certificateNtB4_16LoamSpineService17certificate_count
FNDA:1,_RNvMNtNtCsiWUamAnYf7P_15loam_spine_core7service11certificateNtB4_16LoamSpineService17list_certificates
FNDA:1,_RNvMNtNtCsiWUamAnYf7P_15loam_spine_core7service11certificateNtB4_16LoamSpineService18return_certificate
FNDA:1,_RNvMNtNtCsiWUamAnYf7P_15loam_spine_core7service11certificateNtB4_16LoamSpineService20transfer_certificate
FNF:22
FNH:22
DA:37,184
DA:38,184
DA:39,184
DA:40,184
DA:41,184
DA:42,184
DA:43,184
DA:44,184
DA:45,184
DA:46,184
DA:47,184
DA:48,184
DA:50,184
DA:51,184
DA:52,184
DA:53,184
DA:54,184
DA:55,184
DA:56,184
DA:57,184
DA:58,184
DA:59,184
DA:60,184
DA:61,184
DA:62,184
DA:63,184
DA:64,184
DA:65,184
DA:66,184
DA:67,184
DA:69,184
DA:71,184
DA:72,184
DA:73,184
DA:74,184
DA:75,184
DA:76,184
DA:78,184
DA:79,0
DA:80,184
DA:82,184
DA:83,184
DA:85,184
DA:86,184
DA:87,184
DA:88,184
DA:89,184
DA:90,184
DA:91,184
DA:94,16
DA:95,16
DA:96,16
DA:97,16
DA:107,6
DA:108,6
DA:109,6
DA:110,6
DA:111,6
DA:112,6
DA:113,6
DA:114,6
DA:115,6
DA:116,6
DA:118,6
DA:119,1
DA:120,5
DA:121,5
DA:122,5
DA:123,1
DA:124,4
DA:126,4
DA:127,4
DA:128,4
DA:129,4
DA:130,4
DA:132,4
DA:133,4
DA:134,4
DA:135,4
DA:136,4
DA:138,4
DA:140,4
DA:141,4
DA:142,4
DA:143,4
DA:144,4
DA:145,4
DA:146,4
DA:147,4
DA:148,4
DA:149,4
DA:150,4
DA:152,4
DA:153,6
DA:163,56
DA:164,56
DA:165,56
DA:166,56
DA:167,56
DA:168,56
DA:169,56
DA:170,56
DA:171,56
DA:172,56
DA:173,56
DA:175,56
DA:176,0
DA:177,56
DA:178,56
DA:179,56
DA:180,0
DA:181,56
DA:183,56
DA:184,56
DA:185,56
DA:186,56
DA:187,56
DA:189,56
DA:190,56
DA:191,56
DA:192,56
DA:193,56
DA:194,56
DA:195,56
DA:197,56
DA:199,56
DA:200,56
DA:201,56
DA:202,56
DA:203,56
DA:204,56
DA:205,56
DA:206,56
DA:207,56
DA:208,56
DA:209,56
DA:210,56
DA:211,56
DA:212,56
DA:213,56
DA:214,56
DA:215,56
DA:216,56
DA:217,56
DA:218,56
DA:219,56
DA:220,56
DA:221,56
DA:223,56
DA:224,56
DA:233,55
DA:234,55
DA:235,55
DA:236,55
DA:237,55
DA:238,55
DA:239,55
DA:240,55
DA:241,55
DA:243,55
DA:244,55
DA:246,0
DA:247,0
DA:248,0
DA:252,55
DA:253,0
DA:254,0
DA:255,0
DA:256,55
DA:258,55
DA:259,55
DA:260,55
DA:261,55
DA:262,55
DA:264,55
DA:265,55
DA:266,55
DA:267,55
DA:269,55
DA:271,55
DA:272,55
DA:273,55
DA:274,55
DA:275,55
DA:276,55
DA:277,55
DA:278,55
DA:279,55
DA:280,55
DA:281,55
DA:282,55
DA:284,55
DA:285,55
DA:288,1
DA:289,1
DA:290,1
DA:291,1
DA:294,2
DA:295,2
DA:296,2
DA:305,1
DA:306,1
DA:307,1
DA:308,1
DA:309,1
DA:310,1
DA:311,1
DA:312,1
DA:313,1
DA:314,1
DA:315,1
DA:316,1
DA:317,1
DA:318,1
DA:319,1
DA:320,1
DA:321,1
DA:322,1
DA:323,1
DA:324,1
DA:325,1
DA:326,1
DA:327,1
DA:328,1
DA:329,1
DA:330,1
DA:331,1
DA:332,1
DA:333,1
DA:334,1
DA:335,1
DA:336,1
DA:337,1
DA:340,1
DA:341,1
DA:342,1
DA:343,1
DA:344,1
DA:345,1
DA:346,1
DA:347,1
DA:348,1
DA:349,1
DA:350,1
DA:351,1
DA:352,1
DA:353,1
DA:354,1
DA:355,1
DA:356,1
DA:357,1
DA:358,1
DA:359,1
DA:360,1
DA:361,1
DA:362,1
DA:363,1
DA:364,1
DA:365,1
DA:366,1
DA:367,1
DA:368,1
DA:369,1
DA:370,1
DA:371,1
DA:374,1
DA:375,1
DA:376,1
DA:377,1
DA:378,1
DA:379,1
DA:380,1
DA:381,1
DA:382,1
DA:383,1
DA:384,1
DA:385,1
DA:386,1
DA:387,1
DA:388,1
DA:389,1
DA:390,1
DA:391,1
DA:392,1
DA:393,1
DA:394,1
DA:395,1
DA:396,1
DA:397,1
DA:398,1
DA:399,1
DA:400,1
DA:401,1
DA:402,1
DA:403,1
DA:404,1
DA:405,1
DA:406,1
DA:407,1
DA:408,1
DA:409,1
DA:410,1
DA:411,1
DA:412,1
DA:413,1
DA:414,1
DA:415,1
DA:416,1
DA:417,1
BRF:0
BRH:0
LF:401
LH:390
end_of_record
SF:/path/to/ecoPrimals/phase2/loamSpine/crates/loam-spine-core/src/service/infant_discovery.rs
FN:116,_RNCNvMNtNtCskrSqHInbZEk_15loam_spine_core7service16infant_discoveryNtB4_15InfantDiscovery26discover_discovery_service0B8_
FN:264,_RNvNtNtNtCsiWUamAnYf7P_15loam_spine_core7service16infant_discovery5testss_24infant_discovery_default
FN:257,_RNvNtNtNtCsiWUamAnYf7P_15loam_spine_core7service16infant_discovery5testss_25infant_discovery_creation
FN:304,_RNvNtNtNtCsiWUamAnYf7P_15loam_spine_core7service16infant_discovery5testss_26mdns_discovery_placeholder
FN:323,_RNvNtNtNtCsiWUamAnYf7P_15loam_spine_core7service16infant_discovery5testss_28discovery_service_full_chain
FN:314,_RNvNtNtNtCsiWUamAnYf7P_15loam_spine_core7service16infant_discovery5testss_29development_fallback_in_debug
FN:295,_RNvNtNtNtCsiWUamAnYf7P_15loam_spine_core7service16infant_discovery5testss_29dns_srv_discovery_placeholder
FN:273,_RNvNtNtNtCsiWUamAnYf7P_15loam_spine_core7service16infant_discovery5testss_30environment_discovery_with_var
FN:285,_RNvNtNtNtCsiWUamAnYf7P_15loam_spine_core7service16infant_discovery5testss_33environment_discovery_without_var
FN:156,_RNvMNtNtCsiWUamAnYf7P_15loam_spine_core7service16infant_discoveryNtB2_15InfantDiscovery12capabilities
FN:205,_RNvMNtNtCsiWUamAnYf7P_15loam_spine_core7service16infant_discoveryNtB2_15InfantDiscovery18try_mdns_discovery
FN:186,_RNvMNtNtCsiWUamAnYf7P_15loam_spine_core7service16infant_discoveryNtB2_15InfantDiscovery21try_dns_srv_discovery
FN:223,_RNvMNtNtCsiWUamAnYf7P_15loam_spine_core7service16infant_discoveryNtB2_15InfantDiscovery24try_development_fallback
FN:164,_RNvMNtNtCsiWUamAnYf7P_15loam_spine_core7service16infant_discoveryNtB2_15InfantDiscovery25try_environment_discovery
FN:116,_RNvMNtNtCsiWUamAnYf7P_15loam_spine_core7service16infant_discoveryNtB2_15InfantDiscovery26discover_discovery_service
FN:81,_RNvMNtNtCsiWUamAnYf7P_15loam_spine_core7service16infant_discoveryNtB2_15InfantDiscovery3new
FN:243,_RNvXs_NtNtCsiWUamAnYf7P_15loam_spine_core7service16infant_discoveryNtB4_15InfantDiscoveryNtNtCs9sjCchOt1K7_4core7default7Default7default
FN:116,_RNCNvMNtNtCsiWUamAnYf7P_15loam_spine_core7service16infant_discoveryNtB4_15InfantDiscovery26discover_discovery_service0B8_
FN:304,_RNCNvNtNtNtCsiWUamAnYf7P_15loam_spine_core7service16infant_discovery5testss_26mdns_discovery_placeholder0B9_
FN:323,_RNCNvNtNtNtCsiWUamAnYf7P_15loam_spine_core7service16infant_discovery5testss_28discovery_service_full_chain0B9_
FN:314,_RNCNvNtNtNtCsiWUamAnYf7P_15loam_spine_core7service16infant_discovery5testss_29development_fallback_in_debug0B9_
FN:295,_RNCNvNtNtNtCsiWUamAnYf7P_15loam_spine_core7service16infant_discovery5testss_29dns_srv_discovery_placeholder0B9_
FN:273,_RNCNvNtNtNtCsiWUamAnYf7P_15loam_spine_core7service16infant_discovery5testss_30environment_discovery_with_var0B9_
FN:285,_RNCNvNtNtNtCsiWUamAnYf7P_15loam_spine_core7service16infant_discovery5testss_33environment_discovery_without_var0B9_
FNDA:0,_RNCNvMNtNtCskrSqHInbZEk_15loam_spine_core7service16infant_discoveryNtB4_15InfantDiscovery26discover_discovery_service0B8_
FNDA:1,_RNvNtNtNtCsiWUamAnYf7P_15loam_spine_core7service16infant_discovery5testss_24infant_discovery_default
FNDA:1,_RNvNtNtNtCsiWUamAnYf7P_15loam_spine_core7service16infant_discovery5testss_25infant_discovery_creation
FNDA:1,_RNvNtNtNtCsiWUamAnYf7P_15loam_spine_core7service16infant_discovery5testss_26mdns_discovery_placeholder
FNDA:1,_RNvNtNtNtCsiWUamAnYf7P_15loam_spine_core7service16infant_discovery5testss_28discovery_service_full_chain
FNDA:1,_RNvNtNtNtCsiWUamAnYf7P_15loam_spine_core7service16infant_discovery5testss_29development_fallback_in_debug
FNDA:1,_RNvNtNtNtCsiWUamAnYf7P_15loam_spine_core7service16infant_discovery5testss_29dns_srv_discovery_placeholder
FNDA:1,_RNvNtNtNtCsiWUamAnYf7P_15loam_spine_core7service16infant_discovery5testss_30environment_discovery_with_var
FNDA:1,_RNvNtNtNtCsiWUamAnYf7P_15loam_spine_core7service16infant_discovery5testss_33environment_discovery_without_var
FNDA:4,_RNvMNtNtCsiWUamAnYf7P_15loam_spine_core7service16infant_discoveryNtB2_15InfantDiscovery12capabilities
FNDA:7,_RNvMNtNtCsiWUamAnYf7P_15loam_spine_core7service16infant_discoveryNtB2_15InfantDiscovery18try_mdns_discovery
FNDA:7,_RNvMNtNtCsiWUamAnYf7P_15loam_spine_core7service16infant_discoveryNtB2_15InfantDiscovery21try_dns_srv_discovery
FNDA:7,_RNvMNtNtCsiWUamAnYf7P_15loam_spine_core7service16infant_discoveryNtB2_15InfantDiscovery24try_development_fallback
FNDA:9,_RNvMNtNtCsiWUamAnYf7P_15loam_spine_core7service16infant_discoveryNtB2_15InfantDiscovery25try_environment_discovery
FNDA:7,_RNvMNtNtCsiWUamAnYf7P_15loam_spine_core7service16infant_discoveryNtB2_15InfantDiscovery26discover_discovery_service
FNDA:14,_RNvMNtNtCsiWUamAnYf7P_15loam_spine_core7service16infant_discoveryNtB2_15InfantDiscovery3new
FNDA:1,_RNvXs_NtNtCsiWUamAnYf7P_15loam_spine_core7service16infant_discoveryNtB4_15InfantDiscoveryNtNtCs9sjCchOt1K7_4core7default7Default7default
FNDA:7,_RNCNvMNtNtCsiWUamAnYf7P_15loam_spine_core7service16infant_discoveryNtB4_15InfantDiscovery26discover_discovery_service0B8_
FNDA:1,_RNCNvNtNtNtCsiWUamAnYf7P_15loam_spine_core7service16infant_discovery5testss_26mdns_discovery_placeholder0B9_
FNDA:1,_RNCNvNtNtNtCsiWUamAnYf7P_15loam_spine_core7service16infant_discovery5testss_28discovery_service_full_chain0B9_
FNDA:1,_RNCNvNtNtNtCsiWUamAnYf7P_15loam_spine_core7service16infant_discovery5testss_29development_fallback_in_debug0B9_
FNDA:1,_RNCNvNtNtNtCsiWUamAnYf7P_15loam_spine_core7service16infant_discovery5testss_29dns_srv_discovery_placeholder0B9_
FNDA:1,_RNCNvNtNtNtCsiWUamAnYf7P_15loam_spine_core7service16infant_discovery5testss_30environment_discovery_with_var0B9_
FNDA:1,_RNCNvNtNtNtCsiWUamAnYf7P_15loam_spine_core7service16infant_discovery5testss_33environment_discovery_without_var0B9_
FNF:23
FNH:23
DA:81,14
DA:82,14
DA:83,0
DA:84,0
DA:86,14
DA:87,14
DA:116,7
DA:117,7
DA:120,7
DA:121,1
DA:122,1
DA:123,6
DA:126,6
DA:127,0
DA:128,0
DA:129,6
DA:132,6
DA:133,0
DA:134,0
DA:135,6
DA:138,6
DA:139,6
DA:140,0
DA:143,6
DA:144,0
DA:145,0
DA:146,0
DA:147,0
DA:148,0
DA:149,0
DA:150,0
DA:151,0
DA:152,7
DA:156,4
DA:157,4
DA:158,4
DA:164,9
DA:165,2
DA:166,2
DA:167,2
DA:168,2
DA:171,0
DA:172,0
DA:175,7
DA:176,7
DA:179,9
DA:186,7
DA:187,7
DA:196,7
DA:197,7
DA:198,7
DA:205,7
DA:206,7
DA:215,7
DA:216,7
DA:217,7
DA:223,7
DA:224,7
DA:229,7
DA:230,7
DA:231,7
DA:232,7
DA:233,7
DA:234,7
DA:235,7
DA:236,7
DA:237,7
DA:238,7
DA:239,7
DA:243,1
DA:244,1
DA:245,1
DA:246,1
DA:247,1
DA:248,1
DA:249,1
DA:257,1
DA:258,1
DA:259,1
DA:260,1
DA:261,1
DA:264,1
DA:265,1
DA:266,1
DA:267,1
DA:268,1
DA:269,1
DA:270,1
DA:273,1
DA:274,1
DA:275,1
DA:276,1
DA:277,1
DA:278,1
DA:279,1
DA:280,1
DA:281,1
DA:282,1
DA:285,1
DA:286,1
DA:287,1
DA:288,1
DA:289,1
DA:290,1
DA:291,1
DA:292,1
DA:295,1
DA:296,1
DA:297,1
DA:298,1
DA:299,1
DA:300,1
DA:301,1
DA:304,1
DA:305,1
DA:306,1
DA:307,1
DA:308,1
DA:309,1
DA:310,1
DA:314,1
DA:315,1
DA:316,1
DA:317,1
DA:318,1
DA:319,1
DA:320,1
DA:323,1
DA:324,1
DA:325,1
DA:326,1
DA:327,1
DA:328,1
DA:329,1
DA:330,1
DA:331,1
DA:332,1
DA:333,1
DA:334,1
DA:335,1
DA:336,1
DA:337,1
DA:338,1
BRF:0
BRH:0
LF:185
LH:168
end_of_record
SF:/path/to/ecoPrimals/phase2/loamSpine/crates/loam-spine-core/src/service/integration.rs
FN:206,_RNCNCNvXs0_NtNtCskrSqHInbZEk_15loam_spine_core7service11integrationNtBb_16LoamSpineServiceNtNtNtBd_6traits6commit10SpineQuery7get_tip00Cs4SaE2cvVVUV_14loam_spine_api
FN:42,_RNCNvXNtNtCskrSqHInbZEk_15loam_spine_core7service11integrationNtB6_16LoamSpineServiceNtNtNtB8_6traits6commit14CommitAcceptor14commit_session0Cs4SaE2cvVVUV_14loam_spine_api
FN:204,_RNCNvXs0_NtNtCskrSqHInbZEk_15loam_spine_core7service11integrationNtB9_16LoamSpineServiceNtNtNtBb_6traits6commit10SpineQuery7get_tip0Cs4SaE2cvVVUV_14loam_spine_api
FN:189,_RNCNvXs0_NtNtCskrSqHInbZEk_15loam_spine_core7service11integrationNtB9_16LoamSpineServiceNtNtNtBb_6traits6commit10SpineQuery9get_entry0Cs4SaE2cvVVUV_14loam_spine_api
FN:209,_RNCNvXs0_NtNtCskrSqHInbZEk_15loam_spine_core7service11integrationNtB9_16LoamSpineServiceNtNtNtBb_6traits6commit10SpineQuery9get_spine0Cs4SaE2cvVVUV_14loam_spine_api
FN:224,_RNCNvXs1_NtNtCskrSqHInbZEk_15loam_spine_core7service11integrationNtB9_16LoamSpineServiceNtNtBb_6traits13BraidAcceptor12commit_braid0Cs4SaE2cvVVUV_14loam_spine_api
FN:93,_RNCNvXs_NtNtCskrSqHInbZEk_15loam_spine_core7service11integrationNtB8_16LoamSpineServiceNtNtNtBa_6traits5slice12SliceManager14checkout_slice0Cs4SaE2cvVVUV_14loam_spine_api
FN:77,_RNvXNtNtCskrSqHInbZEk_15loam_spine_core7service11integrationNtB4_16LoamSpineServiceNtNtNtB6_6traits6commit14CommitAcceptor10get_commit
FN:69,_RNvXNtNtCskrSqHInbZEk_15loam_spine_core7service11integrationNtB4_16LoamSpineServiceNtNtNtB6_6traits6commit14CommitAcceptor13verify_commit
FN:37,_RNvXNtNtCskrSqHInbZEk_15loam_spine_core7service11integrationNtB4_16LoamSpineServiceNtNtNtB6_6traits6commit14CommitAcceptor14commit_session
FN:193,_RNvXs0_NtNtCskrSqHInbZEk_15loam_spine_core7service11integrationNtB7_16LoamSpineServiceNtNtNtB9_6traits6commit10SpineQuery11get_entries
FN:204,_RNvXs0_NtNtCskrSqHInbZEk_15loam_spine_core7service11integrationNtB7_16LoamSpineServiceNtNtNtB9_6traits6commit10SpineQuery7get_tip
FN:189,_RNvXs0_NtNtCskrSqHInbZEk_15loam_spine_core7service11integrationNtB7_16LoamSpineServiceNtNtNtB9_6traits6commit10SpineQuery9get_entry
FN:209,_RNvXs0_NtNtCskrSqHInbZEk_15loam_spine_core7service11integrationNtB7_16LoamSpineServiceNtNtNtB9_6traits6commit10SpineQuery9get_spine
FN:219,_RNvXs1_NtNtCskrSqHInbZEk_15loam_spine_core7service11integrationNtB7_16LoamSpineServiceNtNtB9_6traits13BraidAcceptor12commit_braid
FN:245,_RNvXs1_NtNtCskrSqHInbZEk_15loam_spine_core7service11integrationNtB7_16LoamSpineServiceNtNtB9_6traits13BraidAcceptor12verify_braid
FN:263,_RNvXs1_NtNtCskrSqHInbZEk_15loam_spine_core7service11integrationNtB7_16LoamSpineServiceNtNtB9_6traits13BraidAcceptor22get_braids_for_subject
FN:134,_RNvXs_NtNtCskrSqHInbZEk_15loam_spine_core7service11integrationNtB6_16LoamSpineServiceNtNtNtB8_6traits5slice12SliceManager13resolve_slice
FN:87,_RNvXs_NtNtCskrSqHInbZEk_15loam_spine_core7service11integrationNtB6_16LoamSpineServiceNtNtNtB8_6traits5slice12SliceManager14checkout_slice
FN:206,_RNCNCNvXs0_NtNtCskrSqHInbZEk_15loam_spine_core7service11integrationNtBb_16LoamSpineServiceNtNtNtBd_6traits6commit10SpineQuery7get_tip00Bd_
FN:144,_RNCNCNvXs_NtNtCskrSqHInbZEk_15loam_spine_core7service11integrationNtBa_16LoamSpineServiceNtNtNtBc_6traits5slice12SliceManager13resolve_slice00Bc_
FN:77,_RNCNvXNtNtCskrSqHInbZEk_15loam_spine_core7service11integrationNtB6_16LoamSpineServiceNtNtNtB8_6traits6commit14CommitAcceptor10get_commit0B8_
FN:69,_RNCNvXNtNtCskrSqHInbZEk_15loam_spine_core7service11integrationNtB6_16LoamSpineServiceNtNtNtB8_6traits6commit14CommitAcceptor13verify_commit0B8_
FN:42,_RNCNvXNtNtCskrSqHInbZEk_15loam_spine_core7service11integrationNtB6_16LoamSpineServiceNtNtNtB8_6traits6commit14CommitAcceptor14commit_session0B8_
FN:198,_RNCNvXs0_NtNtCskrSqHInbZEk_15loam_spine_core7service11integrationNtB9_16LoamSpineServiceNtNtNtBb_6traits6commit10SpineQuery11get_entries0Bb_
FN:204,_RNCNvXs0_NtNtCskrSqHInbZEk_15loam_spine_core7service11integrationNtB9_16LoamSpineServiceNtNtNtBb_6traits6commit10SpineQuery7get_tip0Bb_
FN:189,_RNCNvXs0_NtNtCskrSqHInbZEk_15loam_spine_core7service11integrationNtB9_16LoamSpineServiceNtNtNtBb_6traits6commit10SpineQuery9get_entry0Bb_
FN:209,_RNCNvXs0_NtNtCskrSqHInbZEk_15loam_spine_core7service11integrationNtB9_16LoamSpineServiceNtNtNtBb_6traits6commit10SpineQuery9get_spine0Bb_
FN:224,_RNCNvXs1_NtNtCskrSqHInbZEk_15loam_spine_core7service11integrationNtB9_16LoamSpineServiceNtNtBb_6traits13BraidAcceptor12commit_braid0Bb_
FN:245,_RNCNvXs1_NtNtCskrSqHInbZEk_15loam_spine_core7service11integrationNtB9_16LoamSpineServiceNtNtBb_6traits13BraidAcceptor12verify_braid0Bb_
FN:266,_RNCNvXs1_NtNtCskrSqHInbZEk_15loam_spine_core7service11integrationNtB9_16LoamSpineServiceNtNtBb_6traits13BraidAcceptor22get_braids_for_subject0Bb_
FN:138,_RNCNvXs_NtNtCskrSqHInbZEk_15loam_spine_core7service11integrationNtB8_16LoamSpineServiceNtNtNtBa_6traits5slice12SliceManager13resolve_slice0Ba_
FN:93,_RNCNvXs_NtNtCskrSqHInbZEk_15loam_spine_core7service11integrationNtB8_16LoamSpineServiceNtNtNtBa_6traits5slice12SliceManager14checkout_slice0Ba_
FN:42,_RNCNvXNtNtCskrSqHInbZEk_15loam_spine_core7service11integrationNtB6_16LoamSpineServiceNtNtNtB8_6traits6commit14CommitAcceptor14commit_session0Csd5Jd4nU1YRX_5chaos
FN:198,_RNCNvXs0_NtNtCskrSqHInbZEk_15loam_spine_core7service11integrationNtB9_16LoamSpineServiceNtNtNtBb_6traits6commit10SpineQuery11get_entries0Csd5Jd4nU1YRX_5chaos
FN:189,_RNCNvXs0_NtNtCskrSqHInbZEk_15loam_spine_core7service11integrationNtB9_16LoamSpineServiceNtNtNtBb_6traits6commit10SpineQuery9get_entry0Csd5Jd4nU1YRX_5chaos
FN:209,_RNCNvXs0_NtNtCskrSqHInbZEk_15loam_spine_core7service11integrationNtB9_16LoamSpineServiceNtNtNtBb_6traits6commit10SpineQuery9get_spine0Csd5Jd4nU1YRX_5chaos
FN:69,_RNCNvXNtNtCskrSqHInbZEk_15loam_spine_core7service11integrationNtB6_16LoamSpineServiceNtNtNtB8_6traits6commit14CommitAcceptor13verify_commit0Cslk0Lj0FVdsD_3e2e
FN:42,_RNCNvXNtNtCskrSqHInbZEk_15loam_spine_core7service11integrationNtB6_16LoamSpineServiceNtNtNtB8_6traits6commit14CommitAcceptor14commit_session0Cslk0Lj0FVdsD_3e2e
FN:209,_RNCNvXs0_NtNtCskrSqHInbZEk_15loam_spine_core7service11integrationNtB9_16LoamSpineServiceNtNtNtBb_6traits6commit10SpineQuery9get_spine0Cslk0Lj0FVdsD_3e2e
FN:224,_RNCNvXs1_NtNtCskrSqHInbZEk_15loam_spine_core7service11integrationNtB9_16LoamSpineServiceNtNtBb_6traits13BraidAcceptor12commit_braid0Cslk0Lj0FVdsD_3e2e
FN:245,_RNCNvXs1_NtNtCskrSqHInbZEk_15loam_spine_core7service11integrationNtB9_16LoamSpineServiceNtNtBb_6traits13BraidAcceptor12verify_braid0Cslk0Lj0FVdsD_3e2e
FN:266,_RNCNvXs1_NtNtCskrSqHInbZEk_15loam_spine_core7service11integrationNtB9_16LoamSpineServiceNtNtBb_6traits13BraidAcceptor22get_braids_for_subject0Cslk0Lj0FVdsD_3e2e
FN:93,_RNCNvXs_NtNtCskrSqHInbZEk_15loam_spine_core7service11integrationNtB8_16LoamSpineServiceNtNtNtBa_6traits5slice12SliceManager14checkout_slice0Cslk0Lj0FVdsD_3e2e
FN:42,_RNCNvXNtNtCskrSqHInbZEk_15loam_spine_core7service11integrationNtB6_16LoamSpineServiceNtNtNtB8_6traits6commit14CommitAcceptor14commit_session0Cs4S1xE8DPCBn_14loam_spine_api
FN:189,_RNCNvXs0_NtNtCskrSqHInbZEk_15loam_spine_core7service11integrationNtB9_16LoamSpineServiceNtNtNtBb_6traits6commit10SpineQuery9get_entry0Cs4S1xE8DPCBn_14loam_spine_api
FN:209,_RNCNvXs0_NtNtCskrSqHInbZEk_15loam_spine_core7service11integrationNtB9_16LoamSpineServiceNtNtNtBb_6traits6commit10SpineQuery9get_spine0Cs4S1xE8DPCBn_14loam_spine_api
FN:224,_RNCNvXs1_NtNtCskrSqHInbZEk_15loam_spine_core7service11integrationNtB9_16LoamSpineServiceNtNtBb_6traits13BraidAcceptor12commit_braid0Cs4S1xE8DPCBn_14loam_spine_api
FN:206,_RNCNCNvXs0_NtNtCsiWUamAnYf7P_15loam_spine_core7service11integrationNtBb_16LoamSpineServiceNtNtNtBd_6traits6commit10SpineQuery7get_tip00Bd_
FN:144,_RNCNCNvXs_NtNtCsiWUamAnYf7P_15loam_spine_core7service11integrationNtBa_16LoamSpineServiceNtNtNtBc_6traits5slice12SliceManager13resolve_slice00Bc_
FN:77,_RNCNvXNtNtCsiWUamAnYf7P_15loam_spine_core7service11integrationNtB6_16LoamSpineServiceNtNtNtB8_6traits6commit14CommitAcceptor10get_commit0B8_
FN:69,_RNCNvXNtNtCsiWUamAnYf7P_15loam_spine_core7service11integrationNtB6_16LoamSpineServiceNtNtNtB8_6traits6commit14CommitAcceptor13verify_commit0B8_
FN:42,_RNCNvXNtNtCsiWUamAnYf7P_15loam_spine_core7service11integrationNtB6_16LoamSpineServiceNtNtNtB8_6traits6commit14CommitAcceptor14commit_session0B8_
FN:198,_RNCNvXs0_NtNtCsiWUamAnYf7P_15loam_spine_core7service11integrationNtB9_16LoamSpineServiceNtNtNtBb_6traits6commit10SpineQuery11get_entries0Bb_
FN:204,_RNCNvXs0_NtNtCsiWUamAnYf7P_15loam_spine_core7service11integrationNtB9_16LoamSpineServiceNtNtNtBb_6traits6commit10SpineQuery7get_tip0Bb_
FN:189,_RNCNvXs0_NtNtCsiWUamAnYf7P_15loam_spine_core7service11integrationNtB9_16LoamSpineServiceNtNtNtBb_6traits6commit10SpineQuery9get_entry0Bb_
FN:209,_RNCNvXs0_NtNtCsiWUamAnYf7P_15loam_spine_core7service11integrationNtB9_16LoamSpineServiceNtNtNtBb_6traits6commit10SpineQuery9get_spine0Bb_
FN:224,_RNCNvXs1_NtNtCsiWUamAnYf7P_15loam_spine_core7service11integrationNtB9_16LoamSpineServiceNtNtBb_6traits13BraidAcceptor12commit_braid0Bb_
FN:245,_RNCNvXs1_NtNtCsiWUamAnYf7P_15loam_spine_core7service11integrationNtB9_16LoamSpineServiceNtNtBb_6traits13BraidAcceptor12verify_braid0Bb_
FN:266,_RNCNvXs1_NtNtCsiWUamAnYf7P_15loam_spine_core7service11integrationNtB9_16LoamSpineServiceNtNtBb_6traits13BraidAcceptor22get_braids_for_subject0Bb_
FN:138,_RNCNvXs_NtNtCsiWUamAnYf7P_15loam_spine_core7service11integrationNtB8_16LoamSpineServiceNtNtNtBa_6traits5slice12SliceManager13resolve_slice0Ba_
FN:93,_RNCNvXs_NtNtCsiWUamAnYf7P_15loam_spine_core7service11integrationNtB8_16LoamSpineServiceNtNtNtBa_6traits5slice12SliceManager14checkout_slice0Ba_
FN:542,_RNvNtNtNtCsiWUamAnYf7P_15loam_spine_core7service11integration5testss_12test_get_tip
FN:566,_RNvNtNtNtCsiWUamAnYf7P_15loam_spine_core7service11integration5testss_14test_get_entry
FN:419,_RNvNtNtNtCsiWUamAnYf7P_15loam_spine_core7service11integration5testss_16test_get_entries
FN:325,_RNvNtNtNtCsiWUamAnYf7P_15loam_spine_core7service11integration5testss_25test_slice_resolve_merged
FN:483,_RNvNtNtNtCsiWUamAnYf7P_15loam_spine_core7service11integration5testss_28test_braid_commit_and_verify
FN:373,_RNvNtNtNtCsiWUamAnYf7P_15loam_spine_core7service11integration5testss_28test_slice_resolve_abandoned
FN:438,_RNvNtNtNtCsiWUamAnYf7P_15loam_spine_core7service11integration5testss_30test_commit_session_and_verify
FN:295,_RNvNtNtNtCsiWUamAnYf7P_15loam_spine_core7service11integration5testss_31test_slice_checkout_and_resolve
FN:542,_RNCNvNtNtNtCsiWUamAnYf7P_15loam_spine_core7service11integration5testss_12test_get_tip0B9_
FN:566,_RNCNvNtNtNtCsiWUamAnYf7P_15loam_spine_core7service11integration5testss_14test_get_entry0B9_
FN:419,_RNCNvNtNtNtCsiWUamAnYf7P_15loam_spine_core7service11integration5testss_16test_get_entries0B9_
FN:325,_RNCNvNtNtNtCsiWUamAnYf7P_15loam_spine_core7service11integration5testss_25test_slice_resolve_merged0B9_
FN:483,_RNCNvNtNtNtCsiWUamAnYf7P_15loam_spine_core7service11integration5testss_28test_braid_commit_and_verify0B9_
FN:373,_RNCNvNtNtNtCsiWUamAnYf7P_15loam_spine_core7service11integration5testss_28test_slice_resolve_abandoned0B9_
FN:438,_RNCNvNtNtNtCsiWUamAnYf7P_15loam_spine_core7service11integration5testss_30test_commit_session_and_verify0B9_
FN:295,_RNCNvNtNtNtCsiWUamAnYf7P_15loam_spine_core7service11integration5testss_31test_slice_checkout_and_resolve0B9_
FN:77,_RNvXNtNtCsiWUamAnYf7P_15loam_spine_core7service11integrationNtB4_16LoamSpineServiceNtNtNtB6_6traits6commit14CommitAcceptor10get_commit
FN:69,_RNvXNtNtCsiWUamAnYf7P_15loam_spine_core7service11integrationNtB4_16LoamSpineServiceNtNtNtB6_6traits6commit14CommitAcceptor13verify_commit
FN:37,_RNvXNtNtCsiWUamAnYf7P_15loam_spine_core7service11integrationNtB4_16LoamSpineServiceNtNtNtB6_6traits6commit14CommitAcceptor14commit_session
FN:193,_RNvXs0_NtNtCsiWUamAnYf7P_15loam_spine_core7service11integrationNtB7_16LoamSpineServiceNtNtNtB9_6traits6commit10SpineQuery11get_entries
FN:204,_RNvXs0_NtNtCsiWUamAnYf7P_15loam_spine_core7service11integrationNtB7_16LoamSpineServiceNtNtNtB9_6traits6commit10SpineQuery7get_tip
FN:189,_RNvXs0_NtNtCsiWUamAnYf7P_15loam_spine_core7service11integrationNtB7_16LoamSpineServiceNtNtNtB9_6traits6commit10SpineQuery9get_entry
FN:209,_RNvXs0_NtNtCsiWUamAnYf7P_15loam_spine_core7service11integrationNtB7_16LoamSpineServiceNtNtNtB9_6traits6commit10SpineQuery9get_spine
FN:219,_RNvXs1_NtNtCsiWUamAnYf7P_15loam_spine_core7service11integrationNtB7_16LoamSpineServiceNtNtB9_6traits13BraidAcceptor12commit_braid
FN:245,_RNvXs1_NtNtCsiWUamAnYf7P_15loam_spine_core7service11integrationNtB7_16LoamSpineServiceNtNtB9_6traits13BraidAcceptor12verify_braid
FN:263,_RNvXs1_NtNtCsiWUamAnYf7P_15loam_spine_core7service11integrationNtB7_16LoamSpineServiceNtNtB9_6traits13BraidAcceptor22get_braids_for_subject
FN:134,_RNvXs_NtNtCsiWUamAnYf7P_15loam_spine_core7service11integrationNtB6_16LoamSpineServiceNtNtNtB8_6traits5slice12SliceManager13resolve_slice
FN:87,_RNvXs_NtNtCsiWUamAnYf7P_15loam_spine_core7service11integrationNtB6_16LoamSpineServiceNtNtNtB8_6traits5slice12SliceManager14checkout_slice
FNDA:1,_RNCNCNvXs0_NtNtCskrSqHInbZEk_15loam_spine_core7service11integrationNtBb_16LoamSpineServiceNtNtNtBd_6traits6commit10SpineQuery7get_tip00Cs4SaE2cvVVUV_14loam_spine_api
FNDA:1,_RNCNvXNtNtCskrSqHInbZEk_15loam_spine_core7service11integrationNtB6_16LoamSpineServiceNtNtNtB8_6traits6commit14CommitAcceptor14commit_session0Cs4SaE2cvVVUV_14loam_spine_api
FNDA:1,_RNCNvXs0_NtNtCskrSqHInbZEk_15loam_spine_core7service11integrationNtB9_16LoamSpineServiceNtNtNtBb_6traits6commit10SpineQuery7get_tip0Cs4SaE2cvVVUV_14loam_spine_api
FNDA:1,_RNCNvXs0_NtNtCskrSqHInbZEk_15loam_spine_core7service11integrationNtB9_16LoamSpineServiceNtNtNtBb_6traits6commit10SpineQuery9get_entry0Cs4SaE2cvVVUV_14loam_spine_api
FNDA:30,_RNCNvXs0_NtNtCskrSqHInbZEk_15loam_spine_core7service11integrationNtB9_16LoamSpineServiceNtNtNtBb_6traits6commit10SpineQuery9get_spine0Cs4SaE2cvVVUV_14loam_spine_api
FNDA:1,_RNCNvXs1_NtNtCskrSqHInbZEk_15loam_spine_core7service11integrationNtB9_16LoamSpineServiceNtNtBb_6traits13BraidAcceptor12commit_braid0Cs4SaE2cvVVUV_14loam_spine_api
FNDA:1,_RNCNvXs_NtNtCskrSqHInbZEk_15loam_spine_core7service11integrationNtB8_16LoamSpineServiceNtNtNtBa_6traits5slice12SliceManager14checkout_slice0Cs4SaE2cvVVUV_14loam_spine_api
FNDA:0,_RNvXNtNtCskrSqHInbZEk_15loam_spine_core7service11integrationNtB4_16LoamSpineServiceNtNtNtB6_6traits6commit14CommitAcceptor10get_commit
FNDA:5,_RNvXNtNtCskrSqHInbZEk_15loam_spine_core7service11integrationNtB4_16LoamSpineServiceNtNtNtB6_6traits6commit14CommitAcceptor13verify_commit
FNDA:3333,_RNvXNtNtCskrSqHInbZEk_15loam_spine_core7service11integrationNtB4_16LoamSpineServiceNtNtNtB6_6traits6commit14CommitAcceptor14commit_session
FNDA:1,_RNvXs0_NtNtCskrSqHInbZEk_15loam_spine_core7service11integrationNtB7_16LoamSpineServiceNtNtNtB9_6traits6commit10SpineQuery11get_entries
FNDA:1,_RNvXs0_NtNtCskrSqHInbZEk_15loam_spine_core7service11integrationNtB7_16LoamSpineServiceNtNtNtB9_6traits6commit10SpineQuery7get_tip
FNDA:3,_RNvXs0_NtNtCskrSqHInbZEk_15loam_spine_core7service11integrationNtB7_16LoamSpineServiceNtNtNtB9_6traits6commit10SpineQuery9get_entry
FNDA:214,_RNvXs0_NtNtCskrSqHInbZEk_15loam_spine_core7service11integrationNtB7_16LoamSpineServiceNtNtNtB9_6traits6commit10SpineQuery9get_spine
FNDA:3,_RNvXs1_NtNtCskrSqHInbZEk_15loam_spine_core7service11integrationNtB7_16LoamSpineServiceNtNtB9_6traits13BraidAcceptor12commit_braid
FNDA:1,_RNvXs1_NtNtCskrSqHInbZEk_15loam_spine_core7service11integrationNtB7_16LoamSpineServiceNtNtB9_6traits13BraidAcceptor12verify_braid
FNDA:1,_RNvXs1_NtNtCskrSqHInbZEk_15loam_spine_core7service11integrationNtB7_16LoamSpineServiceNtNtB9_6traits13BraidAcceptor22get_braids_for_subject
FNDA:0,_RNvXs_NtNtCskrSqHInbZEk_15loam_spine_core7service11integrationNtB6_16LoamSpineServiceNtNtNtB8_6traits5slice12SliceManager13resolve_slice
FNDA:2,_RNvXs_NtNtCskrSqHInbZEk_15loam_spine_core7service11integrationNtB6_16LoamSpineServiceNtNtNtB8_6traits5slice12SliceManager14checkout_slice
FNDA:0,_RNCNCNvXs0_NtNtCskrSqHInbZEk_15loam_spine_core7service11integrationNtBb_16LoamSpineServiceNtNtNtBd_6traits6commit10SpineQuery7get_tip00Bd_
FNDA:0,_RNCNCNvXs_NtNtCskrSqHInbZEk_15loam_spine_core7service11integrationNtBa_16LoamSpineServiceNtNtNtBc_6traits5slice12SliceManager13resolve_slice00Bc_
FNDA:0,_RNCNvXNtNtCskrSqHInbZEk_15loam_spine_core7service11integrationNtB6_16LoamSpineServiceNtNtNtB8_6traits6commit14CommitAcceptor10get_commit0B8_
FNDA:0,_RNCNvXNtNtCskrSqHInbZEk_15loam_spine_core7service11integrationNtB6_16LoamSpineServiceNtNtNtB8_6traits6commit14CommitAcceptor13verify_commit0B8_
FNDA:0,_RNCNvXNtNtCskrSqHInbZEk_15loam_spine_core7service11integrationNtB6_16LoamSpineServiceNtNtNtB8_6traits6commit14CommitAcceptor14commit_session0B8_
FNDA:0,_RNCNvXs0_NtNtCskrSqHInbZEk_15loam_spine_core7service11integrationNtB9_16LoamSpineServiceNtNtNtBb_6traits6commit10SpineQuery11get_entries0Bb_
FNDA:0,_RNCNvXs0_NtNtCskrSqHInbZEk_15loam_spine_core7service11integrationNtB9_16LoamSpineServiceNtNtNtBb_6traits6commit10SpineQuery7get_tip0Bb_
FNDA:0,_RNCNvXs0_NtNtCskrSqHInbZEk_15loam_spine_core7service11integrationNtB9_16LoamSpineServiceNtNtNtBb_6traits6commit10SpineQuery9get_entry0Bb_
FNDA:0,_RNCNvXs0_NtNtCskrSqHInbZEk_15loam_spine_core7service11integrationNtB9_16LoamSpineServiceNtNtNtBb_6traits6commit10SpineQuery9get_spine0Bb_
FNDA:0,_RNCNvXs1_NtNtCskrSqHInbZEk_15loam_spine_core7service11integrationNtB9_16LoamSpineServiceNtNtBb_6traits13BraidAcceptor12commit_braid0Bb_
FNDA:0,_RNCNvXs1_NtNtCskrSqHInbZEk_15loam_spine_core7service11integrationNtB9_16LoamSpineServiceNtNtBb_6traits13BraidAcceptor12verify_braid0Bb_
FNDA:0,_RNCNvXs1_NtNtCskrSqHInbZEk_15loam_spine_core7service11integrationNtB9_16LoamSpineServiceNtNtBb_6traits13BraidAcceptor22get_braids_for_subject0Bb_
FNDA:0,_RNCNvXs_NtNtCskrSqHInbZEk_15loam_spine_core7service11integrationNtB8_16LoamSpineServiceNtNtNtBa_6traits5slice12SliceManager13resolve_slice0Ba_
FNDA:0,_RNCNvXs_NtNtCskrSqHInbZEk_15loam_spine_core7service11integrationNtB8_16LoamSpineServiceNtNtNtBa_6traits5slice12SliceManager14checkout_slice0Ba_
FNDA:3315,_RNCNvXNtNtCskrSqHInbZEk_15loam_spine_core7service11integrationNtB6_16LoamSpineServiceNtNtNtB8_6traits6commit14CommitAcceptor14commit_session0Csd5Jd4nU1YRX_5chaos
FNDA:1,_RNCNvXs0_NtNtCskrSqHInbZEk_15loam_spine_core7service11integrationNtB9_16LoamSpineServiceNtNtNtBb_6traits6commit10SpineQuery11get_entries0Csd5Jd4nU1YRX_5chaos
FNDA:1,_RNCNvXs0_NtNtCskrSqHInbZEk_15loam_spine_core7service11integrationNtB9_16LoamSpineServiceNtNtNtBb_6traits6commit10SpineQuery9get_entry0Csd5Jd4nU1YRX_5chaos
FNDA:156,_RNCNvXs0_NtNtCskrSqHInbZEk_15loam_spine_core7service11integrationNtB9_16LoamSpineServiceNtNtNtBb_6traits6commit10SpineQuery9get_spine0Csd5Jd4nU1YRX_5chaos
FNDA:5,_RNCNvXNtNtCskrSqHInbZEk_15loam_spine_core7service11integrationNtB6_16LoamSpineServiceNtNtNtB8_6traits6commit14CommitAcceptor13verify_commit0Cslk0Lj0FVdsD_3e2e
FNDA:15,_RNCNvXNtNtCskrSqHInbZEk_15loam_spine_core7service11integrationNtB6_16LoamSpineServiceNtNtNtB8_6traits6commit14CommitAcceptor14commit_session0Cslk0Lj0FVdsD_3e2e
FNDA:3,_RNCNvXs0_NtNtCskrSqHInbZEk_15loam_spine_core7service11integrationNtB9_16LoamSpineServiceNtNtNtBb_6traits6commit10SpineQuery9get_spine0Cslk0Lj0FVdsD_3e2e
FNDA:1,_RNCNvXs1_NtNtCskrSqHInbZEk_15loam_spine_core7service11integrationNtB9_16LoamSpineServiceNtNtBb_6traits13BraidAcceptor12commit_braid0Cslk0Lj0FVdsD_3e2e
FNDA:1,_RNCNvXs1_NtNtCskrSqHInbZEk_15loam_spine_core7service11integrationNtB9_16LoamSpineServiceNtNtBb_6traits13BraidAcceptor12verify_braid0Cslk0Lj0FVdsD_3e2e
FNDA:1,_RNCNvXs1_NtNtCskrSqHInbZEk_15loam_spine_core7service11integrationNtB9_16LoamSpineServiceNtNtBb_6traits13BraidAcceptor22get_braids_for_subject0Cslk0Lj0FVdsD_3e2e
FNDA:1,_RNCNvXs_NtNtCskrSqHInbZEk_15loam_spine_core7service11integrationNtB8_16LoamSpineServiceNtNtNtBa_6traits5slice12SliceManager14checkout_slice0Cslk0Lj0FVdsD_3e2e
FNDA:2,_RNCNvXNtNtCskrSqHInbZEk_15loam_spine_core7service11integrationNtB6_16LoamSpineServiceNtNtNtB8_6traits6commit14CommitAcceptor14commit_session0Cs4S1xE8DPCBn_14loam_spine_api
FNDA:1,_RNCNvXs0_NtNtCskrSqHInbZEk_15loam_spine_core7service11integrationNtB9_16LoamSpineServiceNtNtNtBb_6traits6commit10SpineQuery9get_entry0Cs4S1xE8DPCBn_14loam_spine_api
FNDA:25,_RNCNvXs0_NtNtCskrSqHInbZEk_15loam_spine_core7service11integrationNtB9_16LoamSpineServiceNtNtNtBb_6traits6commit10SpineQuery9get_spine0Cs4S1xE8DPCBn_14loam_spine_api
FNDA:1,_RNCNvXs1_NtNtCskrSqHInbZEk_15loam_spine_core7service11integrationNtB9_16LoamSpineServiceNtNtBb_6traits13BraidAcceptor12commit_braid0Cs4S1xE8DPCBn_14loam_spine_api
FNDA:1,_RNCNCNvXs0_NtNtCsiWUamAnYf7P_15loam_spine_core7service11integrationNtBb_16LoamSpineServiceNtNtNtBd_6traits6commit10SpineQuery7get_tip00Bd_
FNDA:0,_RNCNCNvXs_NtNtCsiWUamAnYf7P_15loam_spine_core7service11integrationNtBa_16LoamSpineServiceNtNtNtBc_6traits5slice12SliceManager13resolve_slice00Bc_
FNDA:1,_RNCNvXNtNtCsiWUamAnYf7P_15loam_spine_core7service11integrationNtB6_16LoamSpineServiceNtNtNtB8_6traits6commit14CommitAcceptor10get_commit0B8_
FNDA:2,_RNCNvXNtNtCsiWUamAnYf7P_15loam_spine_core7service11integrationNtB6_16LoamSpineServiceNtNtNtB8_6traits6commit14CommitAcceptor13verify_commit0B8_
FNDA:2,_RNCNvXNtNtCsiWUamAnYf7P_15loam_spine_core7service11integrationNtB6_16LoamSpineServiceNtNtNtB8_6traits6commit14CommitAcceptor14commit_session0B8_
FNDA:1,_RNCNvXs0_NtNtCsiWUamAnYf7P_15loam_spine_core7service11integrationNtB9_16LoamSpineServiceNtNtNtBb_6traits6commit10SpineQuery11get_entries0Bb_
FNDA:2,_RNCNvXs0_NtNtCsiWUamAnYf7P_15loam_spine_core7service11integrationNtB9_16LoamSpineServiceNtNtNtBb_6traits6commit10SpineQuery7get_tip0Bb_
FNDA:2,_RNCNvXs0_NtNtCsiWUamAnYf7P_15loam_spine_core7service11integrationNtB9_16LoamSpineServiceNtNtNtBb_6traits6commit10SpineQuery9get_entry0Bb_
FNDA:6,_RNCNvXs0_NtNtCsiWUamAnYf7P_15loam_spine_core7service11integrationNtB9_16LoamSpineServiceNtNtNtBb_6traits6commit10SpineQuery9get_spine0Bb_
FNDA:2,_RNCNvXs1_NtNtCsiWUamAnYf7P_15loam_spine_core7service11integrationNtB9_16LoamSpineServiceNtNtBb_6traits13BraidAcceptor12commit_braid0Bb_
FNDA:3,_RNCNvXs1_NtNtCsiWUamAnYf7P_15loam_spine_core7service11integrationNtB9_16LoamSpineServiceNtNtBb_6traits13BraidAcceptor12verify_braid0Bb_
FNDA:2,_RNCNvXs1_NtNtCsiWUamAnYf7P_15loam_spine_core7service11integrationNtB9_16LoamSpineServiceNtNtBb_6traits13BraidAcceptor22get_braids_for_subject0Bb_
FNDA:2,_RNCNvXs_NtNtCsiWUamAnYf7P_15loam_spine_core7service11integrationNtB8_16LoamSpineServiceNtNtNtBa_6traits5slice12SliceManager13resolve_slice0Ba_
FNDA:3,_RNCNvXs_NtNtCsiWUamAnYf7P_15loam_spine_core7service11integrationNtB8_16LoamSpineServiceNtNtNtBa_6traits5slice12SliceManager14checkout_slice0Ba_
FNDA:1,_RNvNtNtNtCsiWUamAnYf7P_15loam_spine_core7service11integration5testss_12test_get_tip
FNDA:1,_RNvNtNtNtCsiWUamAnYf7P_15loam_spine_core7service11integration5testss_14test_get_entry
FNDA:1,_RNvNtNtNtCsiWUamAnYf7P_15loam_spine_core7service11integration5testss_16test_get_entries
FNDA:1,_RNvNtNtNtCsiWUamAnYf7P_15loam_spine_core7service11integration5testss_25test_slice_resolve_merged
FNDA:1,_RNvNtNtNtCsiWUamAnYf7P_15loam_spine_core7service11integration5testss_28test_braid_commit_and_verify
FNDA:1,_RNvNtNtNtCsiWUamAnYf7P_15loam_spine_core7service11integration5testss_28test_slice_resolve_abandoned
FNDA:1,_RNvNtNtNtCsiWUamAnYf7P_15loam_spine_core7service11integration5testss_30test_commit_session_and_verify
FNDA:1,_RNvNtNtNtCsiWUamAnYf7P_15loam_spine_core7service11integration5testss_31test_slice_checkout_and_resolve
FNDA:1,_RNCNvNtNtNtCsiWUamAnYf7P_15loam_spine_core7service11integration5testss_12test_get_tip0B9_
FNDA:1,_RNCNvNtNtNtCsiWUamAnYf7P_15loam_spine_core7service11integration5testss_14test_get_entry0B9_
FNDA:1,_RNCNvNtNtNtCsiWUamAnYf7P_15loam_spine_core7service11integration5testss_16test_get_entries0B9_
FNDA:1,_RNCNvNtNtNtCsiWUamAnYf7P_15loam_spine_core7service11integration5testss_25test_slice_resolve_merged0B9_
FNDA:1,_RNCNvNtNtNtCsiWUamAnYf7P_15loam_spine_core7service11integration5testss_28test_braid_commit_and_verify0B9_
FNDA:1,_RNCNvNtNtNtCsiWUamAnYf7P_15loam_spine_core7service11integration5testss_28test_slice_resolve_abandoned0B9_
FNDA:1,_RNCNvNtNtNtCsiWUamAnYf7P_15loam_spine_core7service11integration5testss_30test_commit_session_and_verify0B9_
FNDA:1,_RNCNvNtNtNtCsiWUamAnYf7P_15loam_spine_core7service11integration5testss_31test_slice_checkout_and_resolve0B9_
FNDA:1,_RNvXNtNtCsiWUamAnYf7P_15loam_spine_core7service11integrationNtB4_16LoamSpineServiceNtNtNtB6_6traits6commit14CommitAcceptor10get_commit
FNDA:2,_RNvXNtNtCsiWUamAnYf7P_15loam_spine_core7service11integrationNtB4_16LoamSpineServiceNtNtNtB6_6traits6commit14CommitAcceptor13verify_commit
FNDA:2,_RNvXNtNtCsiWUamAnYf7P_15loam_spine_core7service11integrationNtB4_16LoamSpineServiceNtNtNtB6_6traits6commit14CommitAcceptor14commit_session
FNDA:1,_RNvXs0_NtNtCsiWUamAnYf7P_15loam_spine_core7service11integrationNtB7_16LoamSpineServiceNtNtNtB9_6traits6commit10SpineQuery11get_entries
FNDA:2,_RNvXs0_NtNtCsiWUamAnYf7P_15loam_spine_core7service11integrationNtB7_16LoamSpineServiceNtNtNtB9_6traits6commit10SpineQuery7get_tip
FNDA:2,_RNvXs0_NtNtCsiWUamAnYf7P_15loam_spine_core7service11integrationNtB7_16LoamSpineServiceNtNtNtB9_6traits6commit10SpineQuery9get_entry
FNDA:6,_RNvXs0_NtNtCsiWUamAnYf7P_15loam_spine_core7service11integrationNtB7_16LoamSpineServiceNtNtNtB9_6traits6commit10SpineQuery9get_spine
FNDA:2,_RNvXs1_NtNtCsiWUamAnYf7P_15loam_spine_core7service11integrationNtB7_16LoamSpineServiceNtNtB9_6traits13BraidAcceptor12commit_braid
FNDA:3,_RNvXs1_NtNtCsiWUamAnYf7P_15loam_spine_core7service11integrationNtB7_16LoamSpineServiceNtNtB9_6traits13BraidAcceptor12verify_braid
FNDA:2,_RNvXs1_NtNtCsiWUamAnYf7P_15loam_spine_core7service11integrationNtB7_16LoamSpineServiceNtNtB9_6traits13BraidAcceptor22get_braids_for_subject
FNDA:2,_RNvXs_NtNtCsiWUamAnYf7P_15loam_spine_core7service11integrationNtB6_16LoamSpineServiceNtNtNtB8_6traits5slice12SliceManager13resolve_slice
FNDA:3,_RNvXs_NtNtCsiWUamAnYf7P_15loam_spine_core7service11integrationNtB6_16LoamSpineServiceNtNtNtB8_6traits5slice12SliceManager14checkout_slice
FNF:42
FNH:41
DA:37,3335
DA:38,3335
DA:39,3335
DA:40,3335
DA:41,3335
DA:42,3335
DA:43,3335
DA:44,3335
DA:45,3335
DA:46,3335
DA:47,3335
DA:49,3334
DA:50,3334
DA:51,3334
DA:52,3334
DA:53,3334
DA:54,3334
DA:56,3334
DA:57,3334
DA:58,3334
DA:59,3334
DA:60,3334
DA:62,3334
DA:63,3334
DA:64,3334
DA:65,3334
DA:66,3334
DA:67,3335
DA:69,7
DA:70,7
DA:71,7
DA:72,7
DA:73,7
DA:74,7
DA:75,7
DA:77,1
DA:78,1
DA:79,1
DA:87,5
DA:88,5
DA:89,5
DA:90,5
DA:91,5
DA:92,5
DA:93,5
DA:94,5
DA:95,5
DA:96,5
DA:97,5
DA:98,5
DA:100,5
DA:101,5
DA:102,5
DA:103,5
DA:104,5
DA:106,4
DA:107,4
DA:108,4
DA:109,4
DA:110,4
DA:111,4
DA:112,4
DA:113,4
DA:115,4
DA:117,4
DA:118,4
DA:121,4
DA:122,4
DA:123,4
DA:124,4
DA:125,4
DA:126,4
DA:127,4
DA:128,4
DA:129,4
DA:130,4
DA:131,4
DA:132,5
DA:134,2
DA:135,2
DA:136,2
DA:137,2
DA:138,2
DA:139,2
DA:140,2
DA:141,2
DA:142,2
DA:143,2
DA:144,2
DA:147,2
DA:148,2
DA:149,2
DA:150,2
DA:151,2
DA:153,2
DA:154,1
DA:155,1
DA:156,1
DA:157,1
DA:158,1
DA:159,1
DA:161,1
DA:162,1
DA:163,1
DA:164,1
DA:165,1
DA:166,1
DA:170,2
DA:172,2
DA:173,2
DA:176,2
DA:177,2
DA:178,2
DA:179,2
DA:180,2
DA:181,2
DA:189,5
DA:190,5
DA:191,5
DA:193,2
DA:194,2
DA:195,2
DA:196,2
DA:197,2
DA:198,2
DA:199,2
DA:200,2
DA:201,2
DA:202,2
DA:204,3
DA:205,3
DA:206,3
DA:207,3
DA:209,220
DA:210,220
DA:211,220
DA:219,5
DA:220,5
DA:221,5
DA:222,5
DA:223,5
DA:224,5
DA:225,5
DA:226,5
DA:227,5
DA:228,5
DA:229,5
DA:231,5
DA:232,5
DA:233,5
DA:234,5
DA:235,5
DA:237,5
DA:239,5
DA:240,5
DA:242,5
DA:243,5
DA:245,4
DA:246,4
DA:247,5
DA:248,4
DA:249,4
DA:250,4
DA:251,4
DA:252,9
DA:253,8
DA:254,4
DA:255,3
DA:256,1
DA:257,4
DA:260,1
DA:261,4
DA:263,3
DA:264,3
DA:265,3
DA:266,3
DA:267,3
DA:268,3
DA:269,6
DA:270,3
DA:271,3
DA:272,3
DA:273,3
DA:274,9
DA:276,3
DA:277,6
DA:279,3
DA:280,2
DA:281,2
DA:282,3
DA:285,3
DA:286,3
DA:295,1
DA:296,1
DA:297,1
DA:298,1
DA:299,1
DA:300,1
DA:301,1
DA:302,1
DA:303,1
DA:304,1
DA:305,1
DA:306,1
DA:307,1
DA:308,1
DA:309,1
DA:310,1
DA:311,1
DA:312,1
DA:313,1
DA:314,1
DA:315,1
DA:316,1
DA:317,1
DA:318,1
DA:319,1
DA:320,1
DA:321,1
DA:322,1
DA:325,1
DA:326,1
DA:327,1
DA:328,1
DA:329,1
DA:330,1
DA:331,1
DA:332,1
DA:333,1
DA:334,1
DA:335,1
DA:336,1
DA:337,1
DA:338,1
DA:339,1
DA:340,1
DA:341,1
DA:342,1
DA:343,1
DA:344,1
DA:345,1
DA:346,1
DA:347,1
DA:348,1
DA:349,1
DA:350,1
DA:351,1
DA:352,1
DA:353,1
DA:354,1
DA:355,1
DA:356,1
DA:357,1
DA:358,1
DA:359,1
DA:360,1
DA:361,1
DA:362,1
DA:363,1
DA:364,1
DA:365,1
DA:366,1
DA:367,1
DA:368,1
DA:369,1
DA:370,1
DA:373,1
DA:374,1
DA:375,1
DA:376,1
DA:377,1
DA:378,1
DA:379,1
DA:380,1
DA:381,1
DA:382,1
DA:383,1
DA:384,1
DA:385,1
DA:386,1
DA:387,1
DA:388,1
DA:389,1
DA:390,1
DA:391,1
DA:392,1
DA:393,1
DA:394,1
DA:395,1
DA:396,1
DA:397,1
DA:398,1
DA:399,1
DA:400,1
DA:401,1
DA:402,1
DA:403,1
DA:404,1
DA:405,1
DA:406,1
DA:407,1
DA:408,1
DA:409,1
DA:410,1
DA:411,1
DA:412,1
DA:413,1
DA:414,1
DA:415,1
DA:416,1
DA:419,1
DA:420,1
DA:421,1
DA:422,1
DA:423,1
DA:424,1
DA:425,1
DA:426,1
DA:427,1
DA:428,1
DA:429,1
DA:430,1
DA:431,1
DA:432,1
DA:433,1
DA:434,1
DA:435,1
DA:438,1
DA:439,1
DA:440,1
DA:441,1
DA:442,1
DA:443,1
DA:444,1
DA:445,1
DA:446,1
DA:447,1
DA:448,1
DA:449,1
DA:450,1
DA:451,1
DA:452,1
DA:453,1
DA:454,1
DA:455,1
DA:456,1
DA:457,1
DA:458,1
DA:459,1
DA:460,1
DA:461,1
DA:462,1
DA:463,1
DA:464,1
DA:465,1
DA:466,1
DA:467,1
DA:468,1
DA:469,1
DA:470,1
DA:471,1
DA:472,1
DA:473,1
DA:474,1
DA:475,1
DA:476,1
DA:477,1
DA:478,1
DA:479,1
DA:480,1
DA:483,1
DA:484,1
DA:485,1
DA:486,1
DA:487,1
DA:488,1
DA:489,1
DA:490,1
DA:491,1
DA:492,1
DA:493,1
DA:494,1
DA:495,1
DA:496,1
DA:497,1
DA:498,1
DA:499,1
DA:500,1
DA:501,1
DA:502,1
DA:503,1
DA:504,1
DA:505,1
DA:506,1
DA:507,1
DA:508,1
DA:509,1
DA:510,1
DA:511,1
DA:512,1
DA:513,1
DA:514,1
DA:515,1
DA:516,1
DA:517,1
DA:518,1
DA:519,1
DA:520,1
DA:521,1
DA:522,1
DA:523,1
DA:524,1
DA:525,1
DA:526,1
DA:527,1
DA:528,1
DA:529,1
DA:530,1
DA:531,1
DA:532,1
DA:533,1
DA:534,1
DA:535,1
DA:536,1
DA:537,1
DA:538,1
DA:539,1
DA:542,1
DA:543,1
DA:544,1
DA:545,1
DA:546,1
DA:547,1
DA:548,1
DA:549,1
DA:550,1
DA:551,1
DA:552,1
DA:553,1
DA:554,1
DA:555,1
DA:556,1
DA:557,1
DA:558,1
DA:559,1
DA:560,1
DA:561,1
DA:562,1
DA:563,1
DA:566,1
DA:567,1
DA:568,1
DA:569,1
DA:570,1
DA:571,1
DA:572,1
DA:573,1
DA:574,1
DA:575,1
DA:576,1
DA:577,1
DA:578,1
DA:579,1
DA:580,1
DA:581,1
DA:582,1
DA:583,1
DA:584,1
DA:585,1
DA:586,1
DA:587,1
DA:588,1
DA:589,1
DA:590,1
DA:591,1
DA:592,1
DA:593,1
DA:594,1
DA:595,1
DA:596,1
BRF:0
BRH:0
LF:737
LH:736
end_of_record
SF:/path/to/ecoPrimals/phase2/loamSpine/crates/loam-spine-core/src/service/lifecycle.rs
FN:330,_RNvXs_NtNtCskrSqHInbZEk_15loam_spine_core7service9lifecycleNtB4_16LifecycleManagerNtNtNtCs9sjCchOt1K7_4core3ops4drop4Drop4drop
FN:74,_RNCNCNvMNtNtCskrSqHInbZEk_15loam_spine_core7service9lifecycleNtB6_16LifecycleManager5start00Ba_
FN:162,_RNCNvMNtNtCskrSqHInbZEk_15loam_spine_core7service9lifecycleNtB4_16LifecycleManager22advertise_capabilities0B8_
FN:297,_RNCNvMNtNtCskrSqHInbZEk_15loam_spine_core7service9lifecycleNtB4_16LifecycleManager4stop0B8_
FN:60,_RNCNvMNtNtCskrSqHInbZEk_15loam_spine_core7service9lifecycleNtB4_16LifecycleManager5start0B8_
FN:185,_RNCNvMNtNtCskrSqHInbZEk_15loam_spine_core7service9lifecycleNtB4_16LifecycleManager20start_heartbeat_task0B8_
FN:255,_RNCNvMNtNtCskrSqHInbZEk_15loam_spine_core7service9lifecycleNtB4_16LifecycleManager25send_heartbeat_with_retry0B8_
FN:178,_RNvMNtNtCskrSqHInbZEk_15loam_spine_core7service9lifecycleNtB2_16LifecycleManager20start_heartbeat_task
FN:159,_RNvMNtNtCskrSqHInbZEk_15loam_spine_core7service9lifecycleNtB2_16LifecycleManager22advertise_capabilities
FN:251,_RNvMNtNtCskrSqHInbZEk_15loam_spine_core7service9lifecycleNtB2_16LifecycleManager25send_heartbeat_with_retry
FN:36,_RNvMNtNtCskrSqHInbZEk_15loam_spine_core7service9lifecycleNtB2_16LifecycleManager3new
FN:297,_RNvMNtNtCskrSqHInbZEk_15loam_spine_core7service9lifecycleNtB2_16LifecycleManager4stop
FN:60,_RNvMNtNtCskrSqHInbZEk_15loam_spine_core7service9lifecycleNtB2_16LifecycleManager5start
FN:324,_RNvMNtNtCskrSqHInbZEk_15loam_spine_core7service9lifecycleNtB2_16LifecycleManager7service
FN:371,_RNvNtNtNtCsiWUamAnYf7P_15loam_spine_core7service9lifecycle5testss_14lifecycle_stop
FN:422,_RNvNtNtNtCsiWUamAnYf7P_15loam_spine_core7service9lifecycle5testss_22lifecycle_manager_drop
FN:433,_RNvNtNtNtCsiWUamAnYf7P_15loam_spine_core7service9lifecycle5testss_24lifecycle_multiple_stops
FN:347,_RNvNtNtNtCsiWUamAnYf7P_15loam_spine_core7service9lifecycle5testss_26lifecycle_manager_creation
FN:489,_RNvNtNtNtCsiWUamAnYf7P_15loam_spine_core7service9lifecycle5testss_26shutdown_signal_after_stop
FN:412,_RNvNtNtNtCsiWUamAnYf7P_15loam_spine_core7service9lifecycle5testss_28lifecycle_stop_without_start
FN:479,_RNvNtNtNtCsiWUamAnYf7P_15loam_spine_core7service9lifecycle5testss_29shutdown_signal_initial_state
FN:385,_RNvNtNtNtCsiWUamAnYf7P_15loam_spine_core7service9lifecycle5testss_32lifecycle_manager_service_getter
FN:358,_RNvNtNtNtCsiWUamAnYf7P_15loam_spine_core7service9lifecycle5testss_32lifecycle_start_without_songbird
FN:502,_RNvNtNtNtCsiWUamAnYf7P_15loam_spine_core7service9lifecycle5testss_38config_endpoints_from_discovery_config
FN:465,_RNvNtNtNtCsiWUamAnYf7P_15loam_spine_core7service9lifecycle5testss_39lifecycle_start_with_heartbeat_disabled
FN:450,_RNvNtNtNtCsiWUamAnYf7P_15loam_spine_core7service9lifecycle5testss_41lifecycle_start_with_songbird_no_endpoint
FN:396,_RNvNtNtNtCsiWUamAnYf7P_15loam_spine_core7service9lifecycle5testss_41lifecycle_start_with_songbird_unavailable
FN:330,_RNvXs_NtNtCsiWUamAnYf7P_15loam_spine_core7service9lifecycleNtB4_16LifecycleManagerNtNtNtCs9sjCchOt1K7_4core3ops4drop4Drop4drop
FN:371,_RNCNvNtNtNtCsiWUamAnYf7P_15loam_spine_core7service9lifecycle5testss_14lifecycle_stop0B9_
FN:433,_RNCNvNtNtNtCsiWUamAnYf7P_15loam_spine_core7service9lifecycle5testss_24lifecycle_multiple_stops0B9_
FN:489,_RNCNvNtNtNtCsiWUamAnYf7P_15loam_spine_core7service9lifecycle5testss_26shutdown_signal_after_stop0B9_
FN:412,_RNCNvNtNtNtCsiWUamAnYf7P_15loam_spine_core7service9lifecycle5testss_28lifecycle_stop_without_start0B9_
FN:358,_RNCNvNtNtNtCsiWUamAnYf7P_15loam_spine_core7service9lifecycle5testss_32lifecycle_start_without_songbird0B9_
FN:465,_RNCNvNtNtNtCsiWUamAnYf7P_15loam_spine_core7service9lifecycle5testss_39lifecycle_start_with_heartbeat_disabled0B9_
FN:450,_RNCNvNtNtNtCsiWUamAnYf7P_15loam_spine_core7service9lifecycle5testss_41lifecycle_start_with_songbird_no_endpoint0B9_
FN:396,_RNCNvNtNtNtCsiWUamAnYf7P_15loam_spine_core7service9lifecycle5testss_41lifecycle_start_with_songbird_unavailable0B9_
FN:74,_RNCNCNvMNtNtCsiWUamAnYf7P_15loam_spine_core7service9lifecycleNtB6_16LifecycleManager5start00Ba_
FN:185,_RNCNvMNtNtCsiWUamAnYf7P_15loam_spine_core7service9lifecycleNtB4_16LifecycleManager20start_heartbeat_task0B8_
FN:162,_RNCNvMNtNtCsiWUamAnYf7P_15loam_spine_core7service9lifecycleNtB4_16LifecycleManager22advertise_capabilities0B8_
FN:255,_RNCNvMNtNtCsiWUamAnYf7P_15loam_spine_core7service9lifecycleNtB4_16LifecycleManager25send_heartbeat_with_retry0B8_
FN:297,_RNCNvMNtNtCsiWUamAnYf7P_15loam_spine_core7service9lifecycleNtB4_16LifecycleManager4stop0B8_
FN:60,_RNCNvMNtNtCsiWUamAnYf7P_15loam_spine_core7service9lifecycleNtB4_16LifecycleManager5start0B8_
FN:178,_RNvMNtNtCsiWUamAnYf7P_15loam_spine_core7service9lifecycleNtB2_16LifecycleManager20start_heartbeat_task
FN:159,_RNvMNtNtCsiWUamAnYf7P_15loam_spine_core7service9lifecycleNtB2_16LifecycleManager22advertise_capabilities
FN:251,_RNvMNtNtCsiWUamAnYf7P_15loam_spine_core7service9lifecycleNtB2_16LifecycleManager25send_heartbeat_with_retry
FN:36,_RNvMNtNtCsiWUamAnYf7P_15loam_spine_core7service9lifecycleNtB2_16LifecycleManager3new
FN:297,_RNvMNtNtCsiWUamAnYf7P_15loam_spine_core7service9lifecycleNtB2_16LifecycleManager4stop
FN:60,_RNvMNtNtCsiWUamAnYf7P_15loam_spine_core7service9lifecycleNtB2_16LifecycleManager5start
FN:324,_RNvMNtNtCsiWUamAnYf7P_15loam_spine_core7service9lifecycleNtB2_16LifecycleManager7service
FNDA:0,_RNvXs_NtNtCskrSqHInbZEk_15loam_spine_core7service9lifecycleNtB4_16LifecycleManagerNtNtNtCs9sjCchOt1K7_4core3ops4drop4Drop4drop
FNDA:0,_RNCNCNvMNtNtCskrSqHInbZEk_15loam_spine_core7service9lifecycleNtB6_16LifecycleManager5start00Ba_
FNDA:0,_RNCNvMNtNtCskrSqHInbZEk_15loam_spine_core7service9lifecycleNtB4_16LifecycleManager22advertise_capabilities0B8_
FNDA:0,_RNCNvMNtNtCskrSqHInbZEk_15loam_spine_core7service9lifecycleNtB4_16LifecycleManager4stop0B8_
FNDA:0,_RNCNvMNtNtCskrSqHInbZEk_15loam_spine_core7service9lifecycleNtB4_16LifecycleManager5start0B8_
FNDA:0,_RNCNvMNtNtCskrSqHInbZEk_15loam_spine_core7service9lifecycleNtB4_16LifecycleManager20start_heartbeat_task0B8_
FNDA:0,_RNCNvMNtNtCskrSqHInbZEk_15loam_spine_core7service9lifecycleNtB4_16LifecycleManager25send_heartbeat_with_retry0B8_
FNDA:0,_RNvMNtNtCskrSqHInbZEk_15loam_spine_core7service9lifecycleNtB2_16LifecycleManager20start_heartbeat_task
FNDA:0,_RNvMNtNtCskrSqHInbZEk_15loam_spine_core7service9lifecycleNtB2_16LifecycleManager22advertise_capabilities
FNDA:0,_RNvMNtNtCskrSqHInbZEk_15loam_spine_core7service9lifecycleNtB2_16LifecycleManager25send_heartbeat_with_retry
FNDA:0,_RNvMNtNtCskrSqHInbZEk_15loam_spine_core7service9lifecycleNtB2_16LifecycleManager3new
FNDA:0,_RNvMNtNtCskrSqHInbZEk_15loam_spine_core7service9lifecycleNtB2_16LifecycleManager4stop
FNDA:0,_RNvMNtNtCskrSqHInbZEk_15loam_spine_core7service9lifecycleNtB2_16LifecycleManager5start
FNDA:0,_RNvMNtNtCskrSqHInbZEk_15loam_spine_core7service9lifecycleNtB2_16LifecycleManager7service
FNDA:1,_RNvNtNtNtCsiWUamAnYf7P_15loam_spine_core7service9lifecycle5testss_14lifecycle_stop
FNDA:1,_RNvNtNtNtCsiWUamAnYf7P_15loam_spine_core7service9lifecycle5testss_22lifecycle_manager_drop
FNDA:1,_RNvNtNtNtCsiWUamAnYf7P_15loam_spine_core7service9lifecycle5testss_24lifecycle_multiple_stops
FNDA:1,_RNvNtNtNtCsiWUamAnYf7P_15loam_spine_core7service9lifecycle5testss_26lifecycle_manager_creation
FNDA:1,_RNvNtNtNtCsiWUamAnYf7P_15loam_spine_core7service9lifecycle5testss_26shutdown_signal_after_stop
FNDA:1,_RNvNtNtNtCsiWUamAnYf7P_15loam_spine_core7service9lifecycle5testss_28lifecycle_stop_without_start
FNDA:1,_RNvNtNtNtCsiWUamAnYf7P_15loam_spine_core7service9lifecycle5testss_29shutdown_signal_initial_state
FNDA:1,_RNvNtNtNtCsiWUamAnYf7P_15loam_spine_core7service9lifecycle5testss_32lifecycle_manager_service_getter
FNDA:1,_RNvNtNtNtCsiWUamAnYf7P_15loam_spine_core7service9lifecycle5testss_32lifecycle_start_without_songbird
FNDA:1,_RNvNtNtNtCsiWUamAnYf7P_15loam_spine_core7service9lifecycle5testss_38config_endpoints_from_discovery_config
FNDA:1,_RNvNtNtNtCsiWUamAnYf7P_15loam_spine_core7service9lifecycle5testss_39lifecycle_start_with_heartbeat_disabled
FNDA:1,_RNvNtNtNtCsiWUamAnYf7P_15loam_spine_core7service9lifecycle5testss_41lifecycle_start_with_songbird_no_endpoint
FNDA:1,_RNvNtNtNtCsiWUamAnYf7P_15loam_spine_core7service9lifecycle5testss_41lifecycle_start_with_songbird_unavailable
FNDA:12,_RNvXs_NtNtCsiWUamAnYf7P_15loam_spine_core7service9lifecycleNtB4_16LifecycleManagerNtNtNtCs9sjCchOt1K7_4core3ops4drop4Drop4drop
FNDA:1,_RNCNvNtNtNtCsiWUamAnYf7P_15loam_spine_core7service9lifecycle5testss_14lifecycle_stop0B9_
FNDA:1,_RNCNvNtNtNtCsiWUamAnYf7P_15loam_spine_core7service9lifecycle5testss_24lifecycle_multiple_stops0B9_
FNDA:1,_RNCNvNtNtNtCsiWUamAnYf7P_15loam_spine_core7service9lifecycle5testss_26shutdown_signal_after_stop0B9_
FNDA:1,_RNCNvNtNtNtCsiWUamAnYf7P_15loam_spine_core7service9lifecycle5testss_28lifecycle_stop_without_start0B9_
FNDA:1,_RNCNvNtNtNtCsiWUamAnYf7P_15loam_spine_core7service9lifecycle5testss_32lifecycle_start_without_songbird0B9_
FNDA:1,_RNCNvNtNtNtCsiWUamAnYf7P_15loam_spine_core7service9lifecycle5testss_39lifecycle_start_with_heartbeat_disabled0B9_
FNDA:1,_RNCNvNtNtNtCsiWUamAnYf7P_15loam_spine_core7service9lifecycle5testss_41lifecycle_start_with_songbird_no_endpoint0B9_
FNDA:1,_RNCNvNtNtNtCsiWUamAnYf7P_15loam_spine_core7service9lifecycle5testss_41lifecycle_start_with_songbird_unavailable0B9_
FNDA:7,_RNCNCNvMNtNtCsiWUamAnYf7P_15loam_spine_core7service9lifecycleNtB6_16LifecycleManager5start00Ba_
FNDA:0,_RNCNvMNtNtCsiWUamAnYf7P_15loam_spine_core7service9lifecycleNtB4_16LifecycleManager20start_heartbeat_task0B8_
FNDA:0,_RNCNvMNtNtCsiWUamAnYf7P_15loam_spine_core7service9lifecycleNtB4_16LifecycleManager22advertise_capabilities0B8_
FNDA:0,_RNCNvMNtNtCsiWUamAnYf7P_15loam_spine_core7service9lifecycleNtB4_16LifecycleManager25send_heartbeat_with_retry0B8_
FNDA:5,_RNCNvMNtNtCsiWUamAnYf7P_15loam_spine_core7service9lifecycleNtB4_16LifecycleManager4stop0B8_
FNDA:7,_RNCNvMNtNtCsiWUamAnYf7P_15loam_spine_core7service9lifecycleNtB4_16LifecycleManager5start0B8_
FNDA:0,_RNvMNtNtCsiWUamAnYf7P_15loam_spine_core7service9lifecycleNtB2_16LifecycleManager20start_heartbeat_task
FNDA:0,_RNvMNtNtCsiWUamAnYf7P_15loam_spine_core7service9lifecycleNtB2_16LifecycleManager22advertise_capabilities
FNDA:0,_RNvMNtNtCsiWUamAnYf7P_15loam_spine_core7service9lifecycleNtB2_16LifecycleManager25send_heartbeat_with_retry
FNDA:12,_RNvMNtNtCsiWUamAnYf7P_15loam_spine_core7service9lifecycleNtB2_16LifecycleManager3new
FNDA:5,_RNvMNtNtCsiWUamAnYf7P_15loam_spine_core7service9lifecycleNtB2_16LifecycleManager4stop
FNDA:7,_RNvMNtNtCsiWUamAnYf7P_15loam_spine_core7service9lifecycleNtB2_16LifecycleManager5start
FNDA:1,_RNvMNtNtCsiWUamAnYf7P_15loam_spine_core7service9lifecycleNtB2_16LifecycleManager7service
FNF:35
FNH:29
DA:36,12
DA:37,12
DA:38,12
DA:39,12
DA:40,12
DA:41,12
DA:42,12
DA:43,12
DA:44,12
DA:60,7
DA:61,7
DA:65,7
DA:66,7
DA:69,7
DA:70,7
DA:71,7
DA:72,7
DA:73,7
DA:74,7
DA:75,7
DA:76,7
DA:77,7
DA:79,7
DA:80,6
DA:81,0
DA:85,6
DA:86,6
DA:87,6
DA:88,6
DA:89,6
DA:90,6
DA:91,6
DA:92,0
DA:93,0
DA:94,0
DA:95,0
DA:96,0
DA:97,0
DA:98,0
DA:99,0
DA:100,0
DA:101,0
DA:103,0
DA:104,0
DA:105,0
DA:106,0
DA:107,0
DA:109,0
DA:110,0
DA:112,6
DA:113,6
DA:114,0
DA:116,6
DA:117,0
DA:119,6
DA:125,1
DA:127,1
DA:128,0
DA:129,0
DA:132,0
DA:133,0
DA:134,0
DA:137,0
DA:138,0
DA:139,0
DA:142,0
DA:144,1
DA:145,1
DA:146,0
DA:151,0
DA:154,1
DA:155,1
DA:156,7
DA:159,0
DA:160,0
DA:161,0
DA:162,0
DA:163,0
DA:166,0
DA:167,0
DA:168,0
DA:169,0
DA:170,0
DA:171,0
DA:173,0
DA:174,0
DA:175,0
DA:178,0
DA:179,0
DA:180,0
DA:181,0
DA:182,0
DA:183,0
DA:185,0
DA:186,0
DA:187,0
DA:188,0
DA:191,0
DA:194,0
DA:195,0
DA:196,0
DA:197,0
DA:198,0
DA:199,0
DA:200,0
DA:201,0
DA:205,0
DA:206,0
DA:207,0
DA:209,0
DA:210,0
DA:212,0
DA:215,0
DA:216,0
DA:217,0
DA:218,0
DA:222,0
DA:223,0
DA:225,0
DA:226,0
DA:228,0
DA:229,0
DA:232,0
DA:233,0
DA:234,0
DA:238,0
DA:239,0
DA:244,0
DA:245,0
DA:246,0
DA:247,0
DA:248,0
DA:251,0
DA:252,0
DA:253,0
DA:254,0
DA:255,0
DA:257,0
DA:258,0
DA:259,0
DA:262,0
DA:264,0
DA:265,0
DA:266,0
DA:267,0
DA:268,0
DA:269,0
DA:270,0
DA:271,0
DA:272,0
DA:274,0
DA:275,0
DA:276,0
DA:277,0
DA:278,0
DA:282,0
DA:283,0
DA:284,0
DA:285,0
DA:297,5
DA:298,5
DA:301,5
DA:304,5
DA:305,0
DA:306,0
DA:307,5
DA:310,5
DA:311,0
DA:312,0
DA:313,0
DA:314,0
DA:316,5
DA:318,5
DA:319,5
DA:320,5
DA:324,1
DA:325,1
DA:326,1
DA:330,12
DA:331,12
DA:332,12
DA:335,12
DA:336,0
DA:337,12
DA:338,12
DA:347,1
DA:348,1
DA:349,1
DA:350,1
DA:351,1
DA:352,1
DA:353,1
DA:354,1
DA:358,1
DA:359,1
DA:360,1
DA:361,1
DA:362,1
DA:363,1
DA:364,1
DA:365,1
DA:366,1
DA:367,1
DA:371,1
DA:372,1
DA:373,1
DA:374,1
DA:375,1
DA:376,1
DA:377,1
DA:378,1
DA:379,1
DA:380,1
DA:381,1
DA:382,1
DA:385,1
DA:386,1
DA:387,1
DA:388,1
DA:389,1
DA:390,1
DA:391,1
DA:392,1
DA:396,1
DA:397,1
DA:398,1
DA:399,1
DA:400,1
DA:401,1
DA:402,1
DA:403,1
DA:404,1
DA:405,1
DA:406,1
DA:407,1
DA:408,1
DA:409,1
DA:412,1
DA:413,1
DA:414,1
DA:415,1
DA:416,1
DA:417,1
DA:418,1
DA:419,1
DA:422,1
DA:423,1
DA:424,1
DA:425,1
DA:426,1
DA:427,1
DA:428,1
DA:429,1
DA:433,1
DA:434,1
DA:435,1
DA:436,1
DA:437,1
DA:438,1
DA:439,1
DA:440,1
DA:441,1
DA:442,1
DA:443,1
DA:444,1
DA:445,1
DA:446,1
DA:450,1
DA:451,1
DA:452,1
DA:453,1
DA:454,1
DA:455,1
DA:456,1
DA:457,1
DA:458,1
DA:459,1
DA:460,1
DA:461,1
DA:465,1
DA:466,1
DA:467,1
DA:468,1
DA:469,1
DA:470,1
DA:471,1
DA:472,1
DA:473,1
DA:474,1
DA:475,1
DA:476,1
DA:479,1
DA:480,1
DA:481,1
DA:482,1
DA:483,1
DA:484,1
DA:485,1
DA:489,1
DA:490,1
DA:491,1
DA:492,1
DA:493,1
DA:494,1
DA:495,1
DA:496,1
DA:497,1
DA:498,1
DA:499,1
DA:502,1
DA:503,1
DA:504,1
DA:505,1
DA:506,1
DA:507,1
DA:508,1
DA:509,1
BRF:0
BRH:0
LF:400
LH:272
end_of_record
SF:/path/to/ecoPrimals/phase2/loamSpine/crates/loam-spine-core/src/service/mod.rs
FN:173,_RNCNvMs_NtCskrSqHInbZEk_15loam_spine_core7serviceNtB6_16LoamSpineService10seal_spine0Cs4SaE2cvVVUV_14loam_spine_api
FN:153,_RNCNvMs_NtCskrSqHInbZEk_15loam_spine_core7serviceNtB6_16LoamSpineService11spine_count0Cs4SaE2cvVVUV_14loam_spine_api
FN:199,_RNCNvMs_NtCskrSqHInbZEk_15loam_spine_core7serviceNtB6_16LoamSpineService12append_entry0Cs4SaE2cvVVUV_14loam_spine_api
FN:126,_RNCNvMs_NtCskrSqHInbZEk_15loam_spine_core7serviceNtB6_16LoamSpineService12ensure_spine0Cs4SaE2cvVVUV_14loam_spine_api
FN:169,_RNvMs_NtCskrSqHInbZEk_15loam_spine_core7serviceNtB4_16LoamSpineService10seal_spine
FN:158,_RNvMs_NtCskrSqHInbZEk_15loam_spine_core7serviceNtB4_16LoamSpineService11entry_count
FN:153,_RNvMs_NtCskrSqHInbZEk_15loam_spine_core7serviceNtB4_16LoamSpineService11spine_count
FN:195,_RNvMs_NtCskrSqHInbZEk_15loam_spine_core7serviceNtB4_16LoamSpineService12append_entry
FN:111,_RNvMs_NtCskrSqHInbZEk_15loam_spine_core7serviceNtB4_16LoamSpineService12capabilities
FN:126,_RNvMs_NtCskrSqHInbZEk_15loam_spine_core7serviceNtB4_16LoamSpineService12ensure_spine
FN:99,_RNvMs_NtCskrSqHInbZEk_15loam_spine_core7serviceNtB4_16LoamSpineService17with_capabilities
FN:85,_RNvMs_NtCskrSqHInbZEk_15loam_spine_core7serviceNtB4_16LoamSpineService3new
FN:77,_RNvXNtCskrSqHInbZEk_15loam_spine_core7serviceNtB2_16LoamSpineServiceNtNtCs9sjCchOt1K7_4core7default7Default7default
FN:173,_RNCNvMs_NtCskrSqHInbZEk_15loam_spine_core7serviceNtB6_16LoamSpineService10seal_spine0B8_
FN:158,_RNCNvMs_NtCskrSqHInbZEk_15loam_spine_core7serviceNtB6_16LoamSpineService11entry_count0B8_
FN:153,_RNCNvMs_NtCskrSqHInbZEk_15loam_spine_core7serviceNtB6_16LoamSpineService11spine_count0B8_
FN:199,_RNCNvMs_NtCskrSqHInbZEk_15loam_spine_core7serviceNtB6_16LoamSpineService12append_entry0B8_
FN:126,_RNCNvMs_NtCskrSqHInbZEk_15loam_spine_core7serviceNtB6_16LoamSpineService12ensure_spine0B8_
FN:173,_RNCNvMs_NtCskrSqHInbZEk_15loam_spine_core7serviceNtB6_16LoamSpineService10seal_spine0Csd5Jd4nU1YRX_5chaos
FN:153,_RNCNvMs_NtCskrSqHInbZEk_15loam_spine_core7serviceNtB6_16LoamSpineService11spine_count0Csd5Jd4nU1YRX_5chaos
FN:126,_RNCNvMs_NtCskrSqHInbZEk_15loam_spine_core7serviceNtB6_16LoamSpineService12ensure_spine0Csd5Jd4nU1YRX_5chaos
FN:173,_RNCNvMs_NtCskrSqHInbZEk_15loam_spine_core7serviceNtB6_16LoamSpineService10seal_spine0Cslk0Lj0FVdsD_3e2e
FN:126,_RNCNvMs_NtCskrSqHInbZEk_15loam_spine_core7serviceNtB6_16LoamSpineService12ensure_spine0Cslk0Lj0FVdsD_3e2e
FN:173,_RNCNvMs_NtCskrSqHInbZEk_15loam_spine_core7serviceNtB6_16LoamSpineService10seal_spine0Cs4S1xE8DPCBn_14loam_spine_api
FN:153,_RNCNvMs_NtCskrSqHInbZEk_15loam_spine_core7serviceNtB6_16LoamSpineService11spine_count0Cs4S1xE8DPCBn_14loam_spine_api
FN:199,_RNCNvMs_NtCskrSqHInbZEk_15loam_spine_core7serviceNtB6_16LoamSpineService12append_entry0Cs4S1xE8DPCBn_14loam_spine_api
FN:126,_RNCNvMs_NtCskrSqHInbZEk_15loam_spine_core7serviceNtB6_16LoamSpineService12ensure_spine0Cs4S1xE8DPCBn_14loam_spine_api
FN:173,_RNCNvMs_NtCsiWUamAnYf7P_15loam_spine_core7serviceNtB6_16LoamSpineService10seal_spine0B8_
FN:158,_RNCNvMs_NtCsiWUamAnYf7P_15loam_spine_core7serviceNtB6_16LoamSpineService11entry_count0B8_
FN:153,_RNCNvMs_NtCsiWUamAnYf7P_15loam_spine_core7serviceNtB6_16LoamSpineService11spine_count0B8_
FN:199,_RNCNvMs_NtCsiWUamAnYf7P_15loam_spine_core7serviceNtB6_16LoamSpineService12append_entry0B8_
FN:126,_RNCNvMs_NtCsiWUamAnYf7P_15loam_spine_core7serviceNtB6_16LoamSpineService12ensure_spine0B8_
FN:344,_RNvNtNtCsiWUamAnYf7P_15loam_spine_core7service5testss_12commit_braid
FN:224,_RNvNtNtCsiWUamAnYf7P_15loam_spine_core7service5testss_13service_basic
FN:316,_RNvNtNtCsiWUamAnYf7P_15loam_spine_core7service5testss_14commit_session
FN:273,_RNvNtNtCsiWUamAnYf7P_15loam_spine_core7service5testss_15test_seal_spine
FN:296,_RNvNtNtCsiWUamAnYf7P_15loam_spine_core7service5testss_17test_append_entry
FN:245,_RNvNtNtCsiWUamAnYf7P_15loam_spine_core7service5testss_21test_service_creation
FN:374,_RNvNtNtCsiWUamAnYf7P_15loam_spine_core7service5testss_22test_with_capabilities
FN:253,_RNvNtNtCsiWUamAnYf7P_15loam_spine_core7service5testss_25test_create_and_get_spine
FN:111,_RNvMs_NtCsiWUamAnYf7P_15loam_spine_core7serviceNtB4_16LoamSpineService12capabilities
FN:77,_RNvXNtCsiWUamAnYf7P_15loam_spine_core7serviceNtB2_16LoamSpineServiceNtNtCs9sjCchOt1K7_4core7default7Default7default
FN:344,_RNCNvNtNtCsiWUamAnYf7P_15loam_spine_core7service5testss_12commit_braid0B7_
FN:224,_RNCNvNtNtCsiWUamAnYf7P_15loam_spine_core7service5testss_13service_basic0B7_
FN:316,_RNCNvNtNtCsiWUamAnYf7P_15loam_spine_core7service5testss_14commit_session0B7_
FN:273,_RNCNvNtNtCsiWUamAnYf7P_15loam_spine_core7service5testss_15test_seal_spine0B7_
FN:296,_RNCNvNtNtCsiWUamAnYf7P_15loam_spine_core7service5testss_17test_append_entry0B7_
FN:245,_RNCNvNtNtCsiWUamAnYf7P_15loam_spine_core7service5testss_21test_service_creation0B7_
FN:374,_RNCNvNtNtCsiWUamAnYf7P_15loam_spine_core7service5testss_22test_with_capabilities0B7_
FN:253,_RNCNvNtNtCsiWUamAnYf7P_15loam_spine_core7service5testss_25test_create_and_get_spine0B7_
FN:169,_RNvMs_NtCsiWUamAnYf7P_15loam_spine_core7serviceNtB4_16LoamSpineService10seal_spine
FN:158,_RNvMs_NtCsiWUamAnYf7P_15loam_spine_core7serviceNtB4_16LoamSpineService11entry_count
FN:153,_RNvMs_NtCsiWUamAnYf7P_15loam_spine_core7serviceNtB4_16LoamSpineService11spine_count
FN:195,_RNvMs_NtCsiWUamAnYf7P_15loam_spine_core7serviceNtB4_16LoamSpineService12append_entry
FN:126,_RNvMs_NtCsiWUamAnYf7P_15loam_spine_core7serviceNtB4_16LoamSpineService12ensure_spine
FN:99,_RNvMs_NtCsiWUamAnYf7P_15loam_spine_core7serviceNtB4_16LoamSpineService17with_capabilities
FN:85,_RNvMs_NtCsiWUamAnYf7P_15loam_spine_core7serviceNtB4_16LoamSpineService3new
FNDA:1,_RNCNvMs_NtCskrSqHInbZEk_15loam_spine_core7serviceNtB6_16LoamSpineService10seal_spine0Cs4SaE2cvVVUV_14loam_spine_api
FNDA:1,_RNCNvMs_NtCskrSqHInbZEk_15loam_spine_core7serviceNtB6_16LoamSpineService11spine_count0Cs4SaE2cvVVUV_14loam_spine_api
FNDA:5,_RNCNvMs_NtCskrSqHInbZEk_15loam_spine_core7serviceNtB6_16LoamSpineService12append_entry0Cs4SaE2cvVVUV_14loam_spine_api
FNDA:21,_RNCNvMs_NtCskrSqHInbZEk_15loam_spine_core7serviceNtB6_16LoamSpineService12ensure_spine0Cs4SaE2cvVVUV_14loam_spine_api
FNDA:118,_RNvMs_NtCskrSqHInbZEk_15loam_spine_core7serviceNtB4_16LoamSpineService10seal_spine
FNDA:0,_RNvMs_NtCskrSqHInbZEk_15loam_spine_core7serviceNtB4_16LoamSpineService11entry_count
FNDA:8,_RNvMs_NtCskrSqHInbZEk_15loam_spine_core7serviceNtB4_16LoamSpineService11spine_count
FNDA:8,_RNvMs_NtCskrSqHInbZEk_15loam_spine_core7serviceNtB4_16LoamSpineService12append_entry
FNDA:2,_RNvMs_NtCskrSqHInbZEk_15loam_spine_core7serviceNtB4_16LoamSpineService12capabilities
FNDA:1464,_RNvMs_NtCskrSqHInbZEk_15loam_spine_core7serviceNtB4_16LoamSpineService12ensure_spine
FNDA:1,_RNvMs_NtCskrSqHInbZEk_15loam_spine_core7serviceNtB4_16LoamSpineService17with_capabilities
FNDA:72,_RNvMs_NtCskrSqHInbZEk_15loam_spine_core7serviceNtB4_16LoamSpineService3new
FNDA:0,_RNvXNtCskrSqHInbZEk_15loam_spine_core7serviceNtB2_16LoamSpineServiceNtNtCs9sjCchOt1K7_4core7default7Default7default
FNDA:0,_RNCNvMs_NtCskrSqHInbZEk_15loam_spine_core7serviceNtB6_16LoamSpineService10seal_spine0B8_
FNDA:0,_RNCNvMs_NtCskrSqHInbZEk_15loam_spine_core7serviceNtB6_16LoamSpineService11entry_count0B8_
FNDA:0,_RNCNvMs_NtCskrSqHInbZEk_15loam_spine_core7serviceNtB6_16LoamSpineService11spine_count0B8_
FNDA:0,_RNCNvMs_NtCskrSqHInbZEk_15loam_spine_core7serviceNtB6_16LoamSpineService12append_entry0B8_
FNDA:0,_RNCNvMs_NtCskrSqHInbZEk_15loam_spine_core7serviceNtB6_16LoamSpineService12ensure_spine0B8_
FNDA:112,_RNCNvMs_NtCskrSqHInbZEk_15loam_spine_core7serviceNtB6_16LoamSpineService10seal_spine0Csd5Jd4nU1YRX_5chaos
FNDA:4,_RNCNvMs_NtCskrSqHInbZEk_15loam_spine_core7serviceNtB6_16LoamSpineService11spine_count0Csd5Jd4nU1YRX_5chaos
FNDA:1419,_RNCNvMs_NtCskrSqHInbZEk_15loam_spine_core7serviceNtB6_16LoamSpineService12ensure_spine0Csd5Jd4nU1YRX_5chaos
FNDA:1,_RNCNvMs_NtCskrSqHInbZEk_15loam_spine_core7serviceNtB6_16LoamSpineService10seal_spine0Cslk0Lj0FVdsD_3e2e
FNDA:5,_RNCNvMs_NtCskrSqHInbZEk_15loam_spine_core7serviceNtB6_16LoamSpineService12ensure_spine0Cslk0Lj0FVdsD_3e2e
FNDA:4,_RNCNvMs_NtCskrSqHInbZEk_15loam_spine_core7serviceNtB6_16LoamSpineService10seal_spine0Cs4S1xE8DPCBn_14loam_spine_api
FNDA:3,_RNCNvMs_NtCskrSqHInbZEk_15loam_spine_core7serviceNtB6_16LoamSpineService11spine_count0Cs4S1xE8DPCBn_14loam_spine_api
FNDA:3,_RNCNvMs_NtCskrSqHInbZEk_15loam_spine_core7serviceNtB6_16LoamSpineService12append_entry0Cs4S1xE8DPCBn_14loam_spine_api
FNDA:19,_RNCNvMs_NtCskrSqHInbZEk_15loam_spine_core7serviceNtB6_16LoamSpineService12ensure_spine0Cs4S1xE8DPCBn_14loam_spine_api
FNDA:1,_RNCNvMs_NtCsiWUamAnYf7P_15loam_spine_core7serviceNtB6_16LoamSpineService10seal_spine0B8_
FNDA:2,_RNCNvMs_NtCsiWUamAnYf7P_15loam_spine_core7serviceNtB6_16LoamSpineService11entry_count0B8_
FNDA:4,_RNCNvMs_NtCsiWUamAnYf7P_15loam_spine_core7serviceNtB6_16LoamSpineService11spine_count0B8_
FNDA:2,_RNCNvMs_NtCsiWUamAnYf7P_15loam_spine_core7serviceNtB6_16LoamSpineService12append_entry0B8_
FNDA:20,_RNCNvMs_NtCsiWUamAnYf7P_15loam_spine_core7serviceNtB6_16LoamSpineService12ensure_spine0B8_
FNDA:1,_RNvNtNtCsiWUamAnYf7P_15loam_spine_core7service5testss_12commit_braid
FNDA:1,_RNvNtNtCsiWUamAnYf7P_15loam_spine_core7service5testss_13service_basic
FNDA:1,_RNvNtNtCsiWUamAnYf7P_15loam_spine_core7service5testss_14commit_session
FNDA:1,_RNvNtNtCsiWUamAnYf7P_15loam_spine_core7service5testss_15test_seal_spine
FNDA:1,_RNvNtNtCsiWUamAnYf7P_15loam_spine_core7service5testss_17test_append_entry
FNDA:1,_RNvNtNtCsiWUamAnYf7P_15loam_spine_core7service5testss_21test_service_creation
FNDA:1,_RNvNtNtCsiWUamAnYf7P_15loam_spine_core7service5testss_22test_with_capabilities
FNDA:1,_RNvNtNtCsiWUamAnYf7P_15loam_spine_core7service5testss_25test_create_and_get_spine
FNDA:0,_RNvMs_NtCsiWUamAnYf7P_15loam_spine_core7serviceNtB4_16LoamSpineService12capabilities
FNDA:0,_RNvXNtCsiWUamAnYf7P_15loam_spine_core7serviceNtB2_16LoamSpineServiceNtNtCs9sjCchOt1K7_4core7default7Default7default
FNDA:1,_RNCNvNtNtCsiWUamAnYf7P_15loam_spine_core7service5testss_12commit_braid0B7_
FNDA:1,_RNCNvNtNtCsiWUamAnYf7P_15loam_spine_core7service5testss_13service_basic0B7_
FNDA:1,_RNCNvNtNtCsiWUamAnYf7P_15loam_spine_core7service5testss_14commit_session0B7_
FNDA:1,_RNCNvNtNtCsiWUamAnYf7P_15loam_spine_core7service5testss_15test_seal_spine0B7_
FNDA:1,_RNCNvNtNtCsiWUamAnYf7P_15loam_spine_core7service5testss_17test_append_entry0B7_
FNDA:1,_RNCNvNtNtCsiWUamAnYf7P_15loam_spine_core7service5testss_21test_service_creation0B7_
FNDA:1,_RNCNvNtNtCsiWUamAnYf7P_15loam_spine_core7service5testss_22test_with_capabilities0B7_
FNDA:1,_RNCNvNtNtCsiWUamAnYf7P_15loam_spine_core7service5testss_25test_create_and_get_spine0B7_
FNDA:1,_RNvMs_NtCsiWUamAnYf7P_15loam_spine_core7serviceNtB4_16LoamSpineService10seal_spine
FNDA:2,_RNvMs_NtCsiWUamAnYf7P_15loam_spine_core7serviceNtB4_16LoamSpineService11entry_count
FNDA:4,_RNvMs_NtCsiWUamAnYf7P_15loam_spine_core7serviceNtB4_16LoamSpineService11spine_count
FNDA:2,_RNvMs_NtCsiWUamAnYf7P_15loam_spine_core7serviceNtB4_16LoamSpineService12append_entry
FNDA:20,_RNvMs_NtCsiWUamAnYf7P_15loam_spine_core7serviceNtB4_16LoamSpineService12ensure_spine
FNDA:1,_RNvMs_NtCsiWUamAnYf7P_15loam_spine_core7serviceNtB4_16LoamSpineService17with_capabilities
FNDA:32,_RNvMs_NtCsiWUamAnYf7P_15loam_spine_core7serviceNtB4_16LoamSpineService3new
FNF:30
FNH:29
DA:77,0
DA:78,0
DA:79,0
DA:85,104
DA:86,104
DA:87,104
DA:88,104
DA:89,104
DA:90,104
DA:91,104
DA:92,104
DA:93,104
DA:99,2
DA:100,2
DA:101,2
DA:102,2
DA:103,2
DA:104,2
DA:105,2
DA:106,2
DA:107,2
DA:111,2
DA:112,2
DA:113,2
DA:126,1484
DA:128,1484
DA:129,148409
DA:130,146937
DA:131,146937
DA:132,12
DA:133,146925
DA:134,0
DA:138,1472
DA:139,1472
DA:142,1472
DA:143,1472
DA:144,0
DA:147,1472
DA:149,1472
DA:150,1484
DA:153,12
DA:154,12
DA:155,12
DA:158,2
DA:159,2
DA:160,2
DA:169,119
DA:170,119
DA:171,119
DA:172,119
DA:173,119
DA:174,119
DA:175,119
DA:176,119
DA:177,119
DA:178,119
DA:180,119
DA:181,108
DA:183,108
DA:184,108
DA:185,0
DA:187,108
DA:188,119
DA:195,10
DA:196,10
DA:197,10
DA:198,10
DA:199,10
DA:200,10
DA:201,10
DA:202,10
DA:203,10
DA:204,10
DA:206,10
DA:207,10
DA:209,9
DA:210,9
DA:212,9
DA:213,10
DA:224,1
DA:225,1
DA:226,1
DA:227,1
DA:228,1
DA:229,1
DA:230,1
DA:231,1
DA:232,1
DA:233,1
DA:234,1
DA:235,1
DA:236,1
DA:237,1
DA:238,1
DA:239,1
DA:240,1
DA:241,1
DA:242,1
DA:245,1
DA:246,1
DA:247,1
DA:248,1
DA:249,1
DA:250,1
DA:253,1
DA:254,1
DA:255,1
DA:256,1
DA:257,1
DA:258,1
DA:259,1
DA:260,1
DA:261,1
DA:262,1
DA:263,1
DA:264,1
DA:265,1
DA:266,1
DA:267,1
DA:268,1
DA:269,1
DA:270,1
DA:273,1
DA:274,1
DA:275,1
DA:276,1
DA:277,1
DA:278,1
DA:279,1
DA:280,1
DA:281,1
DA:282,1
DA:283,1
DA:284,1
DA:285,1
DA:286,1
DA:287,1
DA:288,1
DA:289,1
DA:290,1
DA:291,1
DA:292,1
DA:293,1
DA:296,1
DA:297,1
DA:298,1
DA:299,1
DA:300,1
DA:301,1
DA:302,1
DA:303,1
DA:304,1
DA:305,1
DA:306,1
DA:307,1
DA:308,1
DA:309,1
DA:310,1
DA:311,1
DA:312,1
DA:313,1
DA:316,1
DA:317,1
DA:318,1
DA:319,1
DA:320,1
DA:321,1
DA:322,1
DA:323,1
DA:324,1
DA:325,1
DA:326,1
DA:327,1
DA:328,1
DA:329,1
DA:330,1
DA:331,1
DA:332,1
DA:333,1
DA:334,1
DA:335,1
DA:336,1
DA:337,1
DA:338,1
DA:339,1
DA:340,1
DA:341,1
DA:344,1
DA:345,1
DA:346,1
DA:347,1
DA:348,1
DA:349,1
DA:350,1
DA:351,1
DA:352,1
DA:353,1
DA:354,1
DA:355,1
DA:356,1
DA:357,1
DA:358,1
DA:359,1
DA:360,1
DA:361,1
DA:362,1
DA:363,1
DA:364,1
DA:365,1
DA:366,1
DA:367,1
DA:368,1
DA:369,1
DA:370,1
DA:371,1
DA:374,1
DA:375,1
DA:376,1
DA:377,1
DA:378,1
BRF:0
BRH:0
LF:337
LH:330
end_of_record
SF:/path/to/ecoPrimals/phase2/loamSpine/crates/loam-spine-core/src/service/signals.rs
FN:70,_RNCNCNvMNtNtCskrSqHInbZEk_15loam_spine_core7service7signalsNtB6_13SignalHandler22wait_for_shutdown_unix00Ba_
FN:74,_RNCNCNvMNtNtCskrSqHInbZEk_15loam_spine_core7service7signalsNtB6_13SignalHandler22wait_for_shutdown_unix0s_0Ba_
FN:53,_RNCNvMNtNtCskrSqHInbZEk_15loam_spine_core7service7signalsNtB4_13SignalHandler17wait_for_shutdown0B8_
FN:67,_RNCNvMNtNtCskrSqHInbZEk_15loam_spine_core7service7signalsNtB4_13SignalHandler22wait_for_shutdown_unix0B8_
FN:152,_RNCNvNtNtCskrSqHInbZEk_15loam_spine_core7service7signals16run_with_signals0B7_
FN:70,_RNCNCNvMNtNtCsiWUamAnYf7P_15loam_spine_core7service7signalsNtB6_13SignalHandler22wait_for_shutdown_unix00Ba_
FN:74,_RNCNCNvMNtNtCsiWUamAnYf7P_15loam_spine_core7service7signalsNtB6_13SignalHandler22wait_for_shutdown_unix0s_0Ba_
FN:53,_RNCNvMNtNtCsiWUamAnYf7P_15loam_spine_core7service7signalsNtB4_13SignalHandler17wait_for_shutdown0B8_
FN:67,_RNCNvMNtNtCsiWUamAnYf7P_15loam_spine_core7service7signalsNtB4_13SignalHandler22wait_for_shutdown_unix0B8_
FN:152,_RNCNvNtNtCsiWUamAnYf7P_15loam_spine_core7service7signals16run_with_signals0B7_
FN:53,_RNvMNtNtCsiWUamAnYf7P_15loam_spine_core7service7signalsNtB2_13SignalHandler17wait_for_shutdown
FN:67,_RNvMNtNtCsiWUamAnYf7P_15loam_spine_core7service7signalsNtB2_13SignalHandler22wait_for_shutdown_unix
FN:149,_RNvNtNtCsiWUamAnYf7P_15loam_spine_core7service7signals16run_with_signals
FN:106,_RNvMNtNtCsiWUamAnYf7P_15loam_spine_core7service7signalsNtB2_13SignalHandler11is_shutdown
FN:112,_RNvMNtNtCsiWUamAnYf7P_15loam_spine_core7service7signalsNtB2_13SignalHandler13shutdown_flag
FN:20,_RNvMNtNtCsiWUamAnYf7P_15loam_spine_core7service7signalsNtB2_13SignalHandler3new
FN:118,_RNvXs_NtNtCsiWUamAnYf7P_15loam_spine_core7service7signalsNtB4_13SignalHandlerNtNtCs9sjCchOt1K7_4core7default7Default7default
FN:183,_RNvNtNtNtCsiWUamAnYf7P_15loam_spine_core7service7signals5testss_22signal_handler_default
FN:177,_RNvNtNtNtCsiWUamAnYf7P_15loam_spine_core7service7signals5testss_23signal_handler_creation
FN:189,_RNvNtNtNtCsiWUamAnYf7P_15loam_spine_core7service7signals5testss_28signal_handler_shutdown_flag
FN:202,_RNvNtNtNtCsiWUamAnYf7P_15loam_spine_core7service7signals5testss_37run_with_signals_requires_real_signal
FNDA:0,_RNCNCNvMNtNtCskrSqHInbZEk_15loam_spine_core7service7signalsNtB6_13SignalHandler22wait_for_shutdown_unix00Ba_
FNDA:0,_RNCNCNvMNtNtCskrSqHInbZEk_15loam_spine_core7service7signalsNtB6_13SignalHandler22wait_for_shutdown_unix0s_0Ba_
FNDA:0,_RNCNvMNtNtCskrSqHInbZEk_15loam_spine_core7service7signalsNtB4_13SignalHandler17wait_for_shutdown0B8_
FNDA:0,_RNCNvMNtNtCskrSqHInbZEk_15loam_spine_core7service7signalsNtB4_13SignalHandler22wait_for_shutdown_unix0B8_
FNDA:0,_RNCNvNtNtCskrSqHInbZEk_15loam_spine_core7service7signals16run_with_signals0B7_
FNDA:0,_RNCNCNvMNtNtCsiWUamAnYf7P_15loam_spine_core7service7signalsNtB6_13SignalHandler22wait_for_shutdown_unix00Ba_
FNDA:0,_RNCNCNvMNtNtCsiWUamAnYf7P_15loam_spine_core7service7signalsNtB6_13SignalHandler22wait_for_shutdown_unix0s_0Ba_
FNDA:0,_RNCNvMNtNtCsiWUamAnYf7P_15loam_spine_core7service7signalsNtB4_13SignalHandler17wait_for_shutdown0B8_
FNDA:0,_RNCNvMNtNtCsiWUamAnYf7P_15loam_spine_core7service7signalsNtB4_13SignalHandler22wait_for_shutdown_unix0B8_
FNDA:0,_RNCNvNtNtCsiWUamAnYf7P_15loam_spine_core7service7signals16run_with_signals0B7_
FNDA:0,_RNvMNtNtCsiWUamAnYf7P_15loam_spine_core7service7signalsNtB2_13SignalHandler17wait_for_shutdown
FNDA:0,_RNvMNtNtCsiWUamAnYf7P_15loam_spine_core7service7signalsNtB2_13SignalHandler22wait_for_shutdown_unix
FNDA:0,_RNvNtNtCsiWUamAnYf7P_15loam_spine_core7service7signals16run_with_signals
FNDA:3,_RNvMNtNtCsiWUamAnYf7P_15loam_spine_core7service7signalsNtB2_13SignalHandler11is_shutdown
FNDA:1,_RNvMNtNtCsiWUamAnYf7P_15loam_spine_core7service7signalsNtB2_13SignalHandler13shutdown_flag
FNDA:3,_RNvMNtNtCsiWUamAnYf7P_15loam_spine_core7service7signalsNtB2_13SignalHandler3new
FNDA:1,_RNvXs_NtNtCsiWUamAnYf7P_15loam_spine_core7service7signalsNtB4_13SignalHandlerNtNtCs9sjCchOt1K7_4core7default7Default7default
FNDA:1,_RNvNtNtNtCsiWUamAnYf7P_15loam_spine_core7service7signals5testss_22signal_handler_default
FNDA:1,_RNvNtNtNtCsiWUamAnYf7P_15loam_spine_core7service7signals5testss_23signal_handler_creation
FNDA:1,_RNvNtNtNtCsiWUamAnYf7P_15loam_spine_core7service7signals5testss_28signal_handler_shutdown_flag
FNDA:1,_RNvNtNtNtCsiWUamAnYf7P_15loam_spine_core7service7signals5testss_37run_with_signals_requires_real_signal
FNF:16
FNH:8
DA:20,3
DA:21,3
DA:22,3
DA:23,3
DA:24,3
DA:53,0
DA:54,0
DA:55,0
DA:56,0
DA:63,0
DA:67,0
DA:70,0
DA:71,0
DA:72,0
DA:74,0
DA:75,0
DA:76,0
DA:78,0
DA:79,0
DA:80,0
DA:81,0
DA:83,0
DA:84,0
DA:85,0
DA:89,0
DA:90,0
DA:106,3
DA:107,3
DA:108,3
DA:112,1
DA:113,1
DA:114,1
DA:118,1
DA:119,1
DA:120,1
DA:149,0
DA:150,0
DA:151,0
DA:152,0
DA:155,0
DA:156,0
DA:157,0
DA:158,0
DA:159,0
DA:162,0
DA:163,0
DA:166,0
DA:167,0
DA:169,0
DA:170,0
DA:177,1
DA:178,1
DA:179,1
DA:180,1
DA:183,1
DA:184,1
DA:185,1
DA:186,1
DA:189,1
DA:190,1
DA:191,1
DA:192,1
DA:193,1
DA:194,1
DA:197,1
DA:198,1
DA:199,1
DA:202,1
DA:203,1
DA:204,1
DA:205,1
BRF:0
BRH:0
LF:78
LH:35
end_of_record
SF:/path/to/ecoPrimals/phase2/loamSpine/crates/loam-spine-core/src/service/waypoint.rs
FN:39,_RNCNvMNtNtCskrSqHInbZEk_15loam_spine_core7service8waypointNtB6_16LoamSpineService12anchor_slice0Cs4SaE2cvVVUV_14loam_spine_api
FN:76,_RNCNvMNtNtCskrSqHInbZEk_15loam_spine_core7service8waypointNtB6_16LoamSpineService24generate_inclusion_proof0Cs4SaE2cvVVUV_14loam_spine_api
FN:33,_RNvMNtNtCskrSqHInbZEk_15loam_spine_core7service8waypointNtB4_16LoamSpineService12anchor_slice
FN:72,_RNvMNtNtCskrSqHInbZEk_15loam_spine_core7service8waypointNtB4_16LoamSpineService24generate_inclusion_proof
FN:39,_RNCNvMNtNtCskrSqHInbZEk_15loam_spine_core7service8waypointNtB6_16LoamSpineService12anchor_slice0B8_
FN:76,_RNCNvMNtNtCskrSqHInbZEk_15loam_spine_core7service8waypointNtB6_16LoamSpineService24generate_inclusion_proof0B8_
FN:39,_RNCNvMNtNtCskrSqHInbZEk_15loam_spine_core7service8waypointNtB6_16LoamSpineService12anchor_slice0Cs4S1xE8DPCBn_14loam_spine_api
FN:76,_RNCNvMNtNtCskrSqHInbZEk_15loam_spine_core7service8waypointNtB6_16LoamSpineService24generate_inclusion_proof0Cs4S1xE8DPCBn_14loam_spine_api
FN:115,_RNvNtNtNtCsiWUamAnYf7P_15loam_spine_core7service8waypoint5testss_17test_anchor_slice
FN:135,_RNvNtNtNtCsiWUamAnYf7P_15loam_spine_core7service8waypoint5testss_29test_generate_inclusion_proof
FN:115,_RNCNvNtNtNtCsiWUamAnYf7P_15loam_spine_core7service8waypoint5testss_17test_anchor_slice0B9_
FN:135,_RNCNvNtNtNtCsiWUamAnYf7P_15loam_spine_core7service8waypoint5testss_29test_generate_inclusion_proof0B9_
FN:39,_RNCNvMNtNtCsiWUamAnYf7P_15loam_spine_core7service8waypointNtB6_16LoamSpineService12anchor_slice0B8_
FN:76,_RNCNvMNtNtCsiWUamAnYf7P_15loam_spine_core7service8waypointNtB6_16LoamSpineService24generate_inclusion_proof0B8_
FN:33,_RNvMNtNtCsiWUamAnYf7P_15loam_spine_core7service8waypointNtB4_16LoamSpineService12anchor_slice
FN:72,_RNvMNtNtCsiWUamAnYf7P_15loam_spine_core7service8waypointNtB4_16LoamSpineService24generate_inclusion_proof
FNDA:1,_RNCNvMNtNtCskrSqHInbZEk_15loam_spine_core7service8waypointNtB6_16LoamSpineService12anchor_slice0Cs4SaE2cvVVUV_14loam_spine_api
FNDA:1,_RNCNvMNtNtCskrSqHInbZEk_15loam_spine_core7service8waypointNtB6_16LoamSpineService24generate_inclusion_proof0Cs4SaE2cvVVUV_14loam_spine_api
FNDA:2,_RNvMNtNtCskrSqHInbZEk_15loam_spine_core7service8waypointNtB4_16LoamSpineService12anchor_slice
FNDA:2,_RNvMNtNtCskrSqHInbZEk_15loam_spine_core7service8waypointNtB4_16LoamSpineService24generate_inclusion_proof
FNDA:0,_RNCNvMNtNtCskrSqHInbZEk_15loam_spine_core7service8waypointNtB6_16LoamSpineService12anchor_slice0B8_
FNDA:0,_RNCNvMNtNtCskrSqHInbZEk_15loam_spine_core7service8waypointNtB6_16LoamSpineService24generate_inclusion_proof0B8_
FNDA:1,_RNCNvMNtNtCskrSqHInbZEk_15loam_spine_core7service8waypointNtB6_16LoamSpineService12anchor_slice0Cs4S1xE8DPCBn_14loam_spine_api
FNDA:1,_RNCNvMNtNtCskrSqHInbZEk_15loam_spine_core7service8waypointNtB6_16LoamSpineService24generate_inclusion_proof0Cs4S1xE8DPCBn_14loam_spine_api
FNDA:1,_RNvNtNtNtCsiWUamAnYf7P_15loam_spine_core7service8waypoint5testss_17test_anchor_slice
FNDA:1,_RNvNtNtNtCsiWUamAnYf7P_15loam_spine_core7service8waypoint5testss_29test_generate_inclusion_proof
FNDA:1,_RNCNvNtNtNtCsiWUamAnYf7P_15loam_spine_core7service8waypoint5testss_17test_anchor_slice0B9_
FNDA:1,_RNCNvNtNtNtCsiWUamAnYf7P_15loam_spine_core7service8waypoint5testss_29test_generate_inclusion_proof0B9_
FNDA:1,_RNCNvMNtNtCsiWUamAnYf7P_15loam_spine_core7service8waypointNtB6_16LoamSpineService12anchor_slice0B8_
FNDA:1,_RNCNvMNtNtCsiWUamAnYf7P_15loam_spine_core7service8waypointNtB6_16LoamSpineService24generate_inclusion_proof0B8_
FNDA:1,_RNvMNtNtCsiWUamAnYf7P_15loam_spine_core7service8waypointNtB4_16LoamSpineService12anchor_slice
FNDA:1,_RNvMNtNtCsiWUamAnYf7P_15loam_spine_core7service8waypointNtB4_16LoamSpineService24generate_inclusion_proof
FNF:8
FNH:8
DA:33,3
DA:34,3
DA:35,3
DA:36,3
DA:37,3
DA:38,3
DA:39,3
DA:40,3
DA:41,3
DA:42,3
DA:43,3
DA:44,3
DA:46,3
DA:47,3
DA:48,3
DA:49,3
DA:50,3
DA:52,3
DA:54,3
DA:55,3
DA:57,3
DA:58,3
DA:72,3
DA:73,3
DA:74,3
DA:75,3
DA:76,3
DA:77,3
DA:78,3
DA:79,3
DA:80,3
DA:81,3
DA:83,3
DA:84,3
DA:85,3
DA:86,3
DA:87,3
DA:89,3
DA:90,3
DA:91,3
DA:92,3
DA:95,3
DA:96,3
DA:97,0
DA:98,0
DA:99,3
DA:102,3
DA:103,3
DA:104,3
DA:105,3
DA:115,1
DA:116,1
DA:117,1
DA:118,1
DA:119,1
DA:120,1
DA:121,1
DA:122,1
DA:123,1
DA:124,1
DA:125,1
DA:126,1
DA:127,1
DA:128,1
DA:129,1
DA:130,1
DA:131,1
DA:132,1
DA:135,1
DA:136,1
DA:137,1
DA:138,1
DA:139,1
DA:140,1
DA:141,1
DA:142,1
DA:143,1
DA:144,1
DA:145,1
DA:146,1
DA:147,1
DA:148,1
DA:149,1
DA:150,1
DA:151,1
DA:152,1
DA:153,1
DA:154,1
DA:155,1
DA:156,1
DA:157,1
DA:158,1
BRF:0
BRH:0
LF:127
LH:122
end_of_record
SF:/path/to/ecoPrimals/phase2/loamSpine/crates/loam-spine-core/src/songbird.rs
FN:262,_RNCNCNvMNtCskrSqHInbZEk_15loam_spine_core8songbirdNtB6_14SongbirdClient9heartbeat00B8_
FN:254,_RNCNvMNtCskrSqHInbZEk_15loam_spine_core8songbirdNtB4_14SongbirdClient9heartbeat0B6_
FN:92,_RINvMNtCskrSqHInbZEk_15loam_spine_core8songbirdNtB3_14SongbirdClient7connectpEB5_
FN:92,_RNCINvMNtCskrSqHInbZEk_15loam_spine_core8songbirdNtB5_14SongbirdClient7connectpE0B7_
FN:97,_RNCNCINvMNtCskrSqHInbZEk_15loam_spine_core8songbirdNtB7_14SongbirdClient7connectpE00B9_
FN:101,_RNCNCINvMNtCskrSqHInbZEk_15loam_spine_core8songbirdNtB7_14SongbirdClient7connectpE0s_0B9_
FN:287,_RNCNCNvMNtCskrSqHInbZEk_15loam_spine_core8songbirdNtB6_14SongbirdClient10deregister00B8_
FN:154,_RNCNCNvMNtCskrSqHInbZEk_15loam_spine_core8songbirdNtB6_14SongbirdClient12discover_all00B8_
FN:163,_RNCNCNvMNtCskrSqHInbZEk_15loam_spine_core8songbirdNtB6_14SongbirdClient12discover_all0s_0B8_
FN:184,_RNCNCNvMNtCskrSqHInbZEk_15loam_spine_core8songbirdNtB6_14SongbirdClient19advertise_loamspine00B8_
FN:237,_RNCNCNvMNtCskrSqHInbZEk_15loam_spine_core8songbirdNtB6_14SongbirdClient19advertise_loamspine0s0_0B8_
FN:189,_RNCNCNvMNtCskrSqHInbZEk_15loam_spine_core8songbirdNtB6_14SongbirdClient19advertise_loamspine0s_0B8_
FN:126,_RNCNCNvMNtCskrSqHInbZEk_15loam_spine_core8songbirdNtB6_14SongbirdClient19discover_capability00B8_
FN:135,_RNCNCNvMNtCskrSqHInbZEk_15loam_spine_core8songbirdNtB6_14SongbirdClient19discover_capability0s_0B8_
FN:279,_RNCNvMNtCskrSqHInbZEk_15loam_spine_core8songbirdNtB4_14SongbirdClient10deregister0B6_
FN:147,_RNCNvMNtCskrSqHInbZEk_15loam_spine_core8songbirdNtB4_14SongbirdClient12discover_all0B6_
FN:179,_RNCNvMNtCskrSqHInbZEk_15loam_spine_core8songbirdNtB4_14SongbirdClient19advertise_loamspine0B6_
FN:118,_RNCNvMNtCskrSqHInbZEk_15loam_spine_core8songbirdNtB4_14SongbirdClient19discover_capability0B6_
FN:279,_RNvMNtCskrSqHInbZEk_15loam_spine_core8songbirdNtB2_14SongbirdClient10deregister
FN:147,_RNvMNtCskrSqHInbZEk_15loam_spine_core8songbirdNtB2_14SongbirdClient12discover_all
FN:175,_RNvMNtCskrSqHInbZEk_15loam_spine_core8songbirdNtB2_14SongbirdClient19advertise_loamspine
FN:115,_RNvMNtCskrSqHInbZEk_15loam_spine_core8songbirdNtB2_14SongbirdClient19discover_capability
FN:301,_RNvMNtCskrSqHInbZEk_15loam_spine_core8songbirdNtB2_14SongbirdClient8endpoint
FN:254,_RNvMNtCskrSqHInbZEk_15loam_spine_core8songbirdNtB2_14SongbirdClient9heartbeat
FN:154,_RNCNCNvMNtCsiWUamAnYf7P_15loam_spine_core8songbirdNtB6_14SongbirdClient12discover_all00B8_
FN:163,_RNCNCNvMNtCsiWUamAnYf7P_15loam_spine_core8songbirdNtB6_14SongbirdClient12discover_all0s_0B8_
FN:126,_RNCNCNvMNtCsiWUamAnYf7P_15loam_spine_core8songbirdNtB6_14SongbirdClient19discover_capability00B8_
FN:135,_RNCNCNvMNtCsiWUamAnYf7P_15loam_spine_core8songbirdNtB6_14SongbirdClient19discover_capability0s_0B8_
FN:147,_RNCNvMNtCsiWUamAnYf7P_15loam_spine_core8songbirdNtB4_14SongbirdClient12discover_all0B6_
FN:118,_RNCNvMNtCsiWUamAnYf7P_15loam_spine_core8songbirdNtB4_14SongbirdClient19discover_capability0B6_
FN:147,_RNvMNtCsiWUamAnYf7P_15loam_spine_core8songbirdNtB2_14SongbirdClient12discover_all
FN:115,_RNvMNtCsiWUamAnYf7P_15loam_spine_core8songbirdNtB2_14SongbirdClient19discover_capability
FN:92,_RINvMNtCsiWUamAnYf7P_15loam_spine_core8songbirdNtB3_14SongbirdClient7connectRNtNtCs6bBekJvxEMJ_5alloc6string6StringEB5_
FN:92,_RNCINvMNtCsiWUamAnYf7P_15loam_spine_core8songbirdNtB5_14SongbirdClient7connectRNtNtCs6bBekJvxEMJ_5alloc6string6StringE0B7_
FN:97,_RNCNCINvMNtCsiWUamAnYf7P_15loam_spine_core8songbirdNtB7_14SongbirdClient7connectRNtNtCs6bBekJvxEMJ_5alloc6string6StringE00B9_
FN:101,_RNCNCINvMNtCsiWUamAnYf7P_15loam_spine_core8songbirdNtB7_14SongbirdClient7connectRNtNtCs6bBekJvxEMJ_5alloc6string6StringE0s_0B9_
FN:287,_RNCNCNvMNtCsiWUamAnYf7P_15loam_spine_core8songbirdNtB6_14SongbirdClient10deregister00B8_
FN:184,_RNCNCNvMNtCsiWUamAnYf7P_15loam_spine_core8songbirdNtB6_14SongbirdClient19advertise_loamspine00B8_
FN:237,_RNCNCNvMNtCsiWUamAnYf7P_15loam_spine_core8songbirdNtB6_14SongbirdClient19advertise_loamspine0s0_0B8_
FN:189,_RNCNCNvMNtCsiWUamAnYf7P_15loam_spine_core8songbirdNtB6_14SongbirdClient19advertise_loamspine0s_0B8_
FN:262,_RNCNCNvMNtCsiWUamAnYf7P_15loam_spine_core8songbirdNtB6_14SongbirdClient9heartbeat00B8_
FN:279,_RNCNvMNtCsiWUamAnYf7P_15loam_spine_core8songbirdNtB4_14SongbirdClient10deregister0B6_
FN:179,_RNCNvMNtCsiWUamAnYf7P_15loam_spine_core8songbirdNtB4_14SongbirdClient19advertise_loamspine0B6_
FN:254,_RNCNvMNtCsiWUamAnYf7P_15loam_spine_core8songbirdNtB4_14SongbirdClient9heartbeat0B6_
FN:312,_RNvNtNtCsiWUamAnYf7P_15loam_spine_core8songbird5testss_15client_creation
FN:525,_RNvNtNtCsiWUamAnYf7P_15loam_spine_core8songbird5testss_25port_extraction_from_urls
FN:398,_RNvNtNtCsiWUamAnYf7P_15loam_spine_core8songbird5testss_28songbird_client_is_cloneable
FN:503,_RNvNtNtCsiWUamAnYf7P_15loam_spine_core8songbird5testss_30service_advertisement_metadata
FN:591,_RNvNtNtCsiWUamAnYf7P_15loam_spine_core8songbird5testss_30service_endpoint_port_matching
FN:369,_RNvNtNtCsiWUamAnYf7P_15loam_spine_core8songbird5testss_30service_endpoint_serialization
FN:554,_RNvNtNtCsiWUamAnYf7P_15loam_spine_core8songbird5testss_31discovered_service_healthy_flag
FN:387,_RNvNtNtCsiWUamAnYf7P_15loam_spine_core8songbird5testss_31songbird_client_endpoint_getter
FN:319,_RNvNtNtCsiWUamAnYf7P_15loam_spine_core8songbird5testss_32discovered_service_serialization
FN:411,_RNvNtNtCsiWUamAnYf7P_15loam_spine_core8songbird5testss_32discovered_service_with_metadata
FN:336,_RNvNtNtCsiWUamAnYf7P_15loam_spine_core8songbird5testss_33discovered_service_default_fields
FN:605,_RNvNtNtCsiWUamAnYf7P_15loam_spine_core8songbird5testss_33discovered_service_json_roundtrip
FN:462,_RNvNtNtCsiWUamAnYf7P_15loam_spine_core8songbird5testss_34service_endpoint_with_health_check
FN:348,_RNvNtNtCsiWUamAnYf7P_15loam_spine_core8songbird5testss_35service_advertisement_serialization
FN:450,_RNvNtNtCsiWUamAnYf7P_15loam_spine_core8songbird5testss_37service_endpoint_without_health_check
FN:630,_RNvNtNtCsiWUamAnYf7P_15loam_spine_core8songbird5testss_39service_advertisement_complete_metadata
FN:430,_RNvNtNtCsiWUamAnYf7P_15loam_spine_core8songbird5testss_40discovered_service_multiple_capabilities
FN:576,_RNvNtNtCsiWUamAnYf7P_15loam_spine_core8songbird5testss_40service_advertisement_empty_capabilities
FN:475,_RNvNtNtCsiWUamAnYf7P_15loam_spine_core8songbird5testss_45service_advertisement_with_multiple_endpoints
FN:531,_RNCNvNtNtCsiWUamAnYf7P_15loam_spine_core8songbird5testss_25port_extraction_from_urls0B7_
FN:548,_RNCNvNtNtCsiWUamAnYf7P_15loam_spine_core8songbird5testss_25port_extraction_from_urlss0_0B7_
FN:539,_RNCNvNtNtCsiWUamAnYf7P_15loam_spine_core8songbird5testss_25port_extraction_from_urlss_0B7_
FN:279,_RNvMNtCsiWUamAnYf7P_15loam_spine_core8songbirdNtB2_14SongbirdClient10deregister
FN:175,_RNvMNtCsiWUamAnYf7P_15loam_spine_core8songbirdNtB2_14SongbirdClient19advertise_loamspine
FN:301,_RNvMNtCsiWUamAnYf7P_15loam_spine_core8songbirdNtB2_14SongbirdClient8endpoint
FN:254,_RNvMNtCsiWUamAnYf7P_15loam_spine_core8songbirdNtB2_14SongbirdClient9heartbeat
FN:92,_RINvMNtCskrSqHInbZEk_15loam_spine_core8songbirdNtB3_14SongbirdClient7connectReECs16Yt6LSKIhV_20songbird_integration
FN:92,_RNCINvMNtCskrSqHInbZEk_15loam_spine_core8songbirdNtB5_14SongbirdClient7connectReE0Cs16Yt6LSKIhV_20songbird_integration
FN:97,_RNCNCINvMNtCskrSqHInbZEk_15loam_spine_core8songbirdNtB7_14SongbirdClient7connectReE00Cs16Yt6LSKIhV_20songbird_integration
FN:101,_RNCNCINvMNtCskrSqHInbZEk_15loam_spine_core8songbirdNtB7_14SongbirdClient7connectReE0s_0Cs16Yt6LSKIhV_20songbird_integration
FN:287,_RNCNCNvMNtCskrSqHInbZEk_15loam_spine_core8songbirdNtB6_14SongbirdClient10deregister00Cs16Yt6LSKIhV_20songbird_integration
FN:154,_RNCNCNvMNtCskrSqHInbZEk_15loam_spine_core8songbirdNtB6_14SongbirdClient12discover_all00Cs16Yt6LSKIhV_20songbird_integration
FN:163,_RNCNCNvMNtCskrSqHInbZEk_15loam_spine_core8songbirdNtB6_14SongbirdClient12discover_all0s_0Cs16Yt6LSKIhV_20songbird_integration
FN:184,_RNCNCNvMNtCskrSqHInbZEk_15loam_spine_core8songbirdNtB6_14SongbirdClient19advertise_loamspine00Cs16Yt6LSKIhV_20songbird_integration
FN:237,_RNCNCNvMNtCskrSqHInbZEk_15loam_spine_core8songbirdNtB6_14SongbirdClient19advertise_loamspine0s0_0Cs16Yt6LSKIhV_20songbird_integration
FN:189,_RNCNCNvMNtCskrSqHInbZEk_15loam_spine_core8songbirdNtB6_14SongbirdClient19advertise_loamspine0s_0Cs16Yt6LSKIhV_20songbird_integration
FN:126,_RNCNCNvMNtCskrSqHInbZEk_15loam_spine_core8songbirdNtB6_14SongbirdClient19discover_capability00Cs16Yt6LSKIhV_20songbird_integration
FN:135,_RNCNCNvMNtCskrSqHInbZEk_15loam_spine_core8songbirdNtB6_14SongbirdClient19discover_capability0s_0Cs16Yt6LSKIhV_20songbird_integration
FN:279,_RNCNvMNtCskrSqHInbZEk_15loam_spine_core8songbirdNtB4_14SongbirdClient10deregister0Cs16Yt6LSKIhV_20songbird_integration
FN:147,_RNCNvMNtCskrSqHInbZEk_15loam_spine_core8songbirdNtB4_14SongbirdClient12discover_all0Cs16Yt6LSKIhV_20songbird_integration
FN:179,_RNCNvMNtCskrSqHInbZEk_15loam_spine_core8songbirdNtB4_14SongbirdClient19advertise_loamspine0Cs16Yt6LSKIhV_20songbird_integration
FN:118,_RNCNvMNtCskrSqHInbZEk_15loam_spine_core8songbirdNtB4_14SongbirdClient19discover_capability0Cs16Yt6LSKIhV_20songbird_integration
FNDA:0,_RNCNCNvMNtCskrSqHInbZEk_15loam_spine_core8songbirdNtB6_14SongbirdClient9heartbeat00B8_
FNDA:0,_RNCNvMNtCskrSqHInbZEk_15loam_spine_core8songbirdNtB4_14SongbirdClient9heartbeat0B6_
FNDA:0,_RINvMNtCskrSqHInbZEk_15loam_spine_core8songbirdNtB3_14SongbirdClient7connectpEB5_
FNDA:0,_RNCINvMNtCskrSqHInbZEk_15loam_spine_core8songbirdNtB5_14SongbirdClient7connectpE0B7_
FNDA:0,_RNCNCINvMNtCskrSqHInbZEk_15loam_spine_core8songbirdNtB7_14SongbirdClient7connectpE00B9_
FNDA:0,_RNCNCINvMNtCskrSqHInbZEk_15loam_spine_core8songbirdNtB7_14SongbirdClient7connectpE0s_0B9_
FNDA:0,_RNCNCNvMNtCskrSqHInbZEk_15loam_spine_core8songbirdNtB6_14SongbirdClient10deregister00B8_
FNDA:0,_RNCNCNvMNtCskrSqHInbZEk_15loam_spine_core8songbirdNtB6_14SongbirdClient12discover_all00B8_
FNDA:0,_RNCNCNvMNtCskrSqHInbZEk_15loam_spine_core8songbirdNtB6_14SongbirdClient12discover_all0s_0B8_
FNDA:0,_RNCNCNvMNtCskrSqHInbZEk_15loam_spine_core8songbirdNtB6_14SongbirdClient19advertise_loamspine00B8_
FNDA:0,_RNCNCNvMNtCskrSqHInbZEk_15loam_spine_core8songbirdNtB6_14SongbirdClient19advertise_loamspine0s0_0B8_
FNDA:0,_RNCNCNvMNtCskrSqHInbZEk_15loam_spine_core8songbirdNtB6_14SongbirdClient19advertise_loamspine0s_0B8_
FNDA:0,_RNCNCNvMNtCskrSqHInbZEk_15loam_spine_core8songbirdNtB6_14SongbirdClient19discover_capability00B8_
FNDA:0,_RNCNCNvMNtCskrSqHInbZEk_15loam_spine_core8songbirdNtB6_14SongbirdClient19discover_capability0s_0B8_
FNDA:0,_RNCNvMNtCskrSqHInbZEk_15loam_spine_core8songbirdNtB4_14SongbirdClient10deregister0B6_
FNDA:0,_RNCNvMNtCskrSqHInbZEk_15loam_spine_core8songbirdNtB4_14SongbirdClient12discover_all0B6_
FNDA:0,_RNCNvMNtCskrSqHInbZEk_15loam_spine_core8songbirdNtB4_14SongbirdClient19advertise_loamspine0B6_
FNDA:0,_RNCNvMNtCskrSqHInbZEk_15loam_spine_core8songbirdNtB4_14SongbirdClient19discover_capability0B6_
FNDA:0,_RNvMNtCskrSqHInbZEk_15loam_spine_core8songbirdNtB2_14SongbirdClient10deregister
FNDA:0,_RNvMNtCskrSqHInbZEk_15loam_spine_core8songbirdNtB2_14SongbirdClient12discover_all
FNDA:0,_RNvMNtCskrSqHInbZEk_15loam_spine_core8songbirdNtB2_14SongbirdClient19advertise_loamspine
FNDA:0,_RNvMNtCskrSqHInbZEk_15loam_spine_core8songbirdNtB2_14SongbirdClient19discover_capability
FNDA:0,_RNvMNtCskrSqHInbZEk_15loam_spine_core8songbirdNtB2_14SongbirdClient8endpoint
FNDA:0,_RNvMNtCskrSqHInbZEk_15loam_spine_core8songbirdNtB2_14SongbirdClient9heartbeat
FNDA:0,_RNCNCNvMNtCsiWUamAnYf7P_15loam_spine_core8songbirdNtB6_14SongbirdClient12discover_all00B8_
FNDA:0,_RNCNCNvMNtCsiWUamAnYf7P_15loam_spine_core8songbirdNtB6_14SongbirdClient12discover_all0s_0B8_
FNDA:0,_RNCNCNvMNtCsiWUamAnYf7P_15loam_spine_core8songbirdNtB6_14SongbirdClient19discover_capability00B8_
FNDA:0,_RNCNCNvMNtCsiWUamAnYf7P_15loam_spine_core8songbirdNtB6_14SongbirdClient19discover_capability0s_0B8_
FNDA:0,_RNCNvMNtCsiWUamAnYf7P_15loam_spine_core8songbirdNtB4_14SongbirdClient12discover_all0B6_
FNDA:0,_RNCNvMNtCsiWUamAnYf7P_15loam_spine_core8songbirdNtB4_14SongbirdClient19discover_capability0B6_
FNDA:0,_RNvMNtCsiWUamAnYf7P_15loam_spine_core8songbirdNtB2_14SongbirdClient12discover_all
FNDA:0,_RNvMNtCsiWUamAnYf7P_15loam_spine_core8songbirdNtB2_14SongbirdClient19discover_capability
FNDA:8,_RINvMNtCsiWUamAnYf7P_15loam_spine_core8songbirdNtB3_14SongbirdClient7connectRNtNtCs6bBekJvxEMJ_5alloc6string6StringEB5_
FNDA:8,_RNCINvMNtCsiWUamAnYf7P_15loam_spine_core8songbirdNtB5_14SongbirdClient7connectRNtNtCs6bBekJvxEMJ_5alloc6string6StringE0B7_
FNDA:0,_RNCNCINvMNtCsiWUamAnYf7P_15loam_spine_core8songbirdNtB7_14SongbirdClient7connectRNtNtCs6bBekJvxEMJ_5alloc6string6StringE00B9_
FNDA:8,_RNCNCINvMNtCsiWUamAnYf7P_15loam_spine_core8songbirdNtB7_14SongbirdClient7connectRNtNtCs6bBekJvxEMJ_5alloc6string6StringE0s_0B9_
FNDA:0,_RNCNCNvMNtCsiWUamAnYf7P_15loam_spine_core8songbirdNtB6_14SongbirdClient10deregister00B8_
FNDA:0,_RNCNCNvMNtCsiWUamAnYf7P_15loam_spine_core8songbirdNtB6_14SongbirdClient19advertise_loamspine00B8_
FNDA:0,_RNCNCNvMNtCsiWUamAnYf7P_15loam_spine_core8songbirdNtB6_14SongbirdClient19advertise_loamspine0s0_0B8_
FNDA:0,_RNCNCNvMNtCsiWUamAnYf7P_15loam_spine_core8songbirdNtB6_14SongbirdClient19advertise_loamspine0s_0B8_
FNDA:0,_RNCNCNvMNtCsiWUamAnYf7P_15loam_spine_core8songbirdNtB6_14SongbirdClient9heartbeat00B8_
FNDA:0,_RNCNvMNtCsiWUamAnYf7P_15loam_spine_core8songbirdNtB4_14SongbirdClient10deregister0B6_
FNDA:0,_RNCNvMNtCsiWUamAnYf7P_15loam_spine_core8songbirdNtB4_14SongbirdClient19advertise_loamspine0B6_
FNDA:0,_RNCNvMNtCsiWUamAnYf7P_15loam_spine_core8songbirdNtB4_14SongbirdClient9heartbeat0B6_
FNDA:1,_RNvNtNtCsiWUamAnYf7P_15loam_spine_core8songbird5testss_15client_creation
FNDA:1,_RNvNtNtCsiWUamAnYf7P_15loam_spine_core8songbird5testss_25port_extraction_from_urls
FNDA:1,_RNvNtNtCsiWUamAnYf7P_15loam_spine_core8songbird5testss_28songbird_client_is_cloneable
FNDA:1,_RNvNtNtCsiWUamAnYf7P_15loam_spine_core8songbird5testss_30service_advertisement_metadata
FNDA:1,_RNvNtNtCsiWUamAnYf7P_15loam_spine_core8songbird5testss_30service_endpoint_port_matching
FNDA:1,_RNvNtNtCsiWUamAnYf7P_15loam_spine_core8songbird5testss_30service_endpoint_serialization
FNDA:1,_RNvNtNtCsiWUamAnYf7P_15loam_spine_core8songbird5testss_31discovered_service_healthy_flag
FNDA:1,_RNvNtNtCsiWUamAnYf7P_15loam_spine_core8songbird5testss_31songbird_client_endpoint_getter
FNDA:1,_RNvNtNtCsiWUamAnYf7P_15loam_spine_core8songbird5testss_32discovered_service_serialization
FNDA:1,_RNvNtNtCsiWUamAnYf7P_15loam_spine_core8songbird5testss_32discovered_service_with_metadata
FNDA:1,_RNvNtNtCsiWUamAnYf7P_15loam_spine_core8songbird5testss_33discovered_service_default_fields
FNDA:1,_RNvNtNtCsiWUamAnYf7P_15loam_spine_core8songbird5testss_33discovered_service_json_roundtrip
FNDA:1,_RNvNtNtCsiWUamAnYf7P_15loam_spine_core8songbird5testss_34service_endpoint_with_health_check
FNDA:1,_RNvNtNtCsiWUamAnYf7P_15loam_spine_core8songbird5testss_35service_advertisement_serialization
FNDA:1,_RNvNtNtCsiWUamAnYf7P_15loam_spine_core8songbird5testss_37service_endpoint_without_health_check
FNDA:1,_RNvNtNtCsiWUamAnYf7P_15loam_spine_core8songbird5testss_39service_advertisement_complete_metadata
FNDA:1,_RNvNtNtCsiWUamAnYf7P_15loam_spine_core8songbird5testss_40discovered_service_multiple_capabilities
FNDA:1,_RNvNtNtCsiWUamAnYf7P_15loam_spine_core8songbird5testss_40service_advertisement_empty_capabilities
FNDA:1,_RNvNtNtCsiWUamAnYf7P_15loam_spine_core8songbird5testss_45service_advertisement_with_multiple_endpoints
FNDA:1,_RNCNvNtNtCsiWUamAnYf7P_15loam_spine_core8songbird5testss_25port_extraction_from_urls0B7_
FNDA:1,_RNCNvNtNtCsiWUamAnYf7P_15loam_spine_core8songbird5testss_25port_extraction_from_urlss0_0B7_
FNDA:1,_RNCNvNtNtCsiWUamAnYf7P_15loam_spine_core8songbird5testss_25port_extraction_from_urlss_0B7_
FNDA:0,_RNvMNtCsiWUamAnYf7P_15loam_spine_core8songbirdNtB2_14SongbirdClient10deregister
FNDA:0,_RNvMNtCsiWUamAnYf7P_15loam_spine_core8songbirdNtB2_14SongbirdClient19advertise_loamspine
FNDA:2,_RNvMNtCsiWUamAnYf7P_15loam_spine_core8songbirdNtB2_14SongbirdClient8endpoint
FNDA:0,_RNvMNtCsiWUamAnYf7P_15loam_spine_core8songbirdNtB2_14SongbirdClient9heartbeat
FNDA:1,_RINvMNtCskrSqHInbZEk_15loam_spine_core8songbirdNtB3_14SongbirdClient7connectReECs16Yt6LSKIhV_20songbird_integration
FNDA:1,_RNCINvMNtCskrSqHInbZEk_15loam_spine_core8songbirdNtB5_14SongbirdClient7connectReE0Cs16Yt6LSKIhV_20songbird_integration
FNDA:0,_RNCNCINvMNtCskrSqHInbZEk_15loam_spine_core8songbirdNtB7_14SongbirdClient7connectReE00Cs16Yt6LSKIhV_20songbird_integration
FNDA:1,_RNCNCINvMNtCskrSqHInbZEk_15loam_spine_core8songbirdNtB7_14SongbirdClient7connectReE0s_0Cs16Yt6LSKIhV_20songbird_integration
FNDA:0,_RNCNCNvMNtCskrSqHInbZEk_15loam_spine_core8songbirdNtB6_14SongbirdClient10deregister00Cs16Yt6LSKIhV_20songbird_integration
FNDA:0,_RNCNCNvMNtCskrSqHInbZEk_15loam_spine_core8songbirdNtB6_14SongbirdClient12discover_all00Cs16Yt6LSKIhV_20songbird_integration
FNDA:0,_RNCNCNvMNtCskrSqHInbZEk_15loam_spine_core8songbirdNtB6_14SongbirdClient12discover_all0s_0Cs16Yt6LSKIhV_20songbird_integration
FNDA:0,_RNCNCNvMNtCskrSqHInbZEk_15loam_spine_core8songbirdNtB6_14SongbirdClient19advertise_loamspine00Cs16Yt6LSKIhV_20songbird_integration
FNDA:0,_RNCNCNvMNtCskrSqHInbZEk_15loam_spine_core8songbirdNtB6_14SongbirdClient19advertise_loamspine0s0_0Cs16Yt6LSKIhV_20songbird_integration
FNDA:0,_RNCNCNvMNtCskrSqHInbZEk_15loam_spine_core8songbirdNtB6_14SongbirdClient19advertise_loamspine0s_0Cs16Yt6LSKIhV_20songbird_integration
FNDA:0,_RNCNCNvMNtCskrSqHInbZEk_15loam_spine_core8songbirdNtB6_14SongbirdClient19discover_capability00Cs16Yt6LSKIhV_20songbird_integration
FNDA:0,_RNCNCNvMNtCskrSqHInbZEk_15loam_spine_core8songbirdNtB6_14SongbirdClient19discover_capability0s_0Cs16Yt6LSKIhV_20songbird_integration
FNDA:0,_RNCNvMNtCskrSqHInbZEk_15loam_spine_core8songbirdNtB4_14SongbirdClient10deregister0Cs16Yt6LSKIhV_20songbird_integration
FNDA:0,_RNCNvMNtCskrSqHInbZEk_15loam_spine_core8songbirdNtB4_14SongbirdClient12discover_all0Cs16Yt6LSKIhV_20songbird_integration
FNDA:0,_RNCNvMNtCskrSqHInbZEk_15loam_spine_core8songbirdNtB4_14SongbirdClient19advertise_loamspine0Cs16Yt6LSKIhV_20songbird_integration
FNDA:0,_RNCNvMNtCskrSqHInbZEk_15loam_spine_core8songbirdNtB4_14SongbirdClient19discover_capability0Cs16Yt6LSKIhV_20songbird_integration
FNF:46
FNH:26
DA:92,9
DA:93,9
DA:94,9
DA:95,9
DA:96,9
DA:97,9
DA:100,9
DA:101,9
DA:102,9
DA:103,9
DA:104,9
DA:105,9
DA:107,0
DA:108,9
DA:115,0
DA:116,0
DA:117,0
DA:118,0
DA:119,0
DA:120,0
DA:121,0
DA:122,0
DA:123,0
DA:124,0
DA:125,0
DA:126,0
DA:128,0
DA:129,0
DA:130,0
DA:131,0
DA:132,0
DA:133,0
DA:135,0
DA:136,0
DA:137,0
DA:139,0
DA:140,0
DA:147,0
DA:148,0
DA:149,0
DA:150,0
DA:151,0
DA:152,0
DA:153,0
DA:154,0
DA:156,0
DA:157,0
DA:158,0
DA:159,0
DA:160,0
DA:161,0
DA:163,0
DA:164,0
DA:165,0
DA:167,0
DA:168,0
DA:175,0
DA:176,0
DA:177,0
DA:178,0
DA:179,0
DA:180,0
DA:181,0
DA:182,0
DA:183,0
DA:184,0
DA:185,0
DA:186,0
DA:187,0
DA:188,0
DA:189,0
DA:190,0
DA:191,0
DA:192,0
DA:193,0
DA:194,0
DA:195,0
DA:196,0
DA:197,0
DA:198,0
DA:199,0
DA:200,0
DA:201,0
DA:202,0
DA:203,0
DA:204,0
DA:205,0
DA:206,0
DA:207,0
DA:208,0
DA:209,0
DA:210,0
DA:211,0
DA:212,0
DA:213,0
DA:214,0
DA:215,0
DA:216,0
DA:217,0
DA:218,0
DA:219,0
DA:220,0
DA:221,0
DA:222,0
DA:223,0
DA:224,0
DA:225,0
DA:226,0
DA:227,0
DA:228,0
DA:229,0
DA:230,0
DA:231,0
DA:232,0
DA:233,0
DA:234,0
DA:235,0
DA:236,0
DA:237,0
DA:239,0
DA:240,0
DA:241,0
DA:242,0
DA:243,0
DA:244,0
DA:245,0
DA:246,0
DA:247,0
DA:254,0
DA:255,0
DA:256,0
DA:257,0
DA:258,0
DA:259,0
DA:260,0
DA:261,0
DA:262,0
DA:264,0
DA:265,0
DA:266,0
DA:267,0
DA:268,0
DA:269,0
DA:270,0
DA:271,0
DA:272,0
DA:279,0
DA:280,0
DA:281,0
DA:282,0
DA:283,0
DA:284,0
DA:285,0
DA:286,0
DA:287,0
DA:289,0
DA:290,0
DA:291,0
DA:292,0
DA:293,0
DA:294,0
DA:295,0
DA:296,0
DA:297,0
DA:301,2
DA:302,2
DA:303,2
DA:312,1
DA:313,1
DA:314,1
DA:315,1
DA:316,1
DA:319,1
DA:320,1
DA:321,1
DA:322,1
DA:323,1
DA:324,1
DA:325,1
DA:326,1
DA:327,1
DA:328,1
DA:329,1
DA:330,1
DA:331,1
DA:332,1
DA:333,1
DA:336,1
DA:337,1
DA:338,1
DA:339,1
DA:340,1
DA:341,1
DA:342,1
DA:343,1
DA:344,1
DA:345,1
DA:348,1
DA:349,1
DA:350,1
DA:351,1
DA:352,1
DA:353,1
DA:354,1
DA:355,1
DA:356,1
DA:357,1
DA:358,1
DA:359,1
DA:360,1
DA:361,1
DA:362,1
DA:363,1
DA:364,1
DA:365,1
DA:366,1
DA:369,1
DA:370,1
DA:371,1
DA:372,1
DA:373,1
DA:374,1
DA:375,1
DA:376,1
DA:377,1
DA:378,1
DA:379,1
DA:380,1
DA:381,1
DA:382,1
DA:383,1
DA:384,1
DA:387,1
DA:388,1
DA:389,1
DA:390,1
DA:391,1
DA:392,1
DA:393,1
DA:394,1
DA:395,1
DA:398,1
DA:399,1
DA:400,1
DA:401,1
DA:402,1
DA:403,1
DA:404,1
DA:405,1
DA:406,1
DA:407,1
DA:408,1
DA:411,1
DA:412,1
DA:413,1
DA:414,1
DA:415,1
DA:416,1
DA:417,1
DA:418,1
DA:419,1
DA:420,1
DA:421,1
DA:422,1
DA:423,1
DA:424,1
DA:425,1
DA:426,1
DA:427,1
DA:430,1
DA:431,1
DA:432,1
DA:433,1
DA:434,1
DA:435,1
DA:436,1
DA:437,1
DA:438,1
DA:439,1
DA:440,1
DA:441,1
DA:442,1
DA:443,1
DA:444,1
DA:445,1
DA:446,1
DA:447,1
DA:450,1
DA:451,1
DA:452,1
DA:453,1
DA:454,1
DA:455,1
DA:456,1
DA:457,1
DA:458,1
DA:459,1
DA:462,1
DA:463,1
DA:464,1
DA:465,1
DA:466,1
DA:467,1
DA:468,1
DA:469,1
DA:470,1
DA:471,1
DA:472,1
DA:475,1
DA:476,1
DA:477,1
DA:478,1
DA:479,1
DA:480,1
DA:481,1
DA:482,1
DA:483,1
DA:484,1
DA:485,1
DA:486,1
DA:487,1
DA:488,1
DA:489,1
DA:490,1
DA:491,1
DA:492,1
DA:493,1
DA:494,1
DA:495,1
DA:496,1
DA:497,1
DA:498,1
DA:499,1
DA:500,1
DA:503,1
DA:504,1
DA:505,1
DA:506,1
DA:507,1
DA:508,1
DA:509,1
DA:510,1
DA:511,1
DA:512,1
DA:513,1
DA:514,1
DA:515,1
DA:516,1
DA:517,1
DA:518,1
DA:519,1
DA:520,1
DA:521,1
DA:522,1
DA:525,1
DA:526,1
DA:527,1
DA:528,1
DA:529,1
DA:530,1
DA:531,1
DA:532,1
DA:533,1
DA:535,1
DA:536,1
DA:537,1
DA:538,1
DA:539,1
DA:540,1
DA:541,1
DA:544,1
DA:545,1
DA:546,1
DA:547,1
DA:548,1
DA:549,1
DA:550,1
DA:551,1
DA:554,1
DA:555,1
DA:556,1
DA:557,1
DA:558,1
DA:559,1
DA:560,1
DA:561,1
DA:562,1
DA:563,1
DA:564,1
DA:565,1
DA:566,1
DA:567,1
DA:568,1
DA:569,1
DA:570,1
DA:571,1
DA:572,1
DA:573,1
DA:576,1
DA:577,1
DA:578,1
DA:579,1
DA:580,1
DA:581,1
DA:582,1
DA:583,1
DA:584,1
DA:585,1
DA:586,1
DA:587,1
DA:588,1
DA:591,1
DA:592,1
DA:593,1
DA:594,1
DA:595,1
DA:596,1
DA:597,1
DA:598,1
DA:599,1
DA:600,1
DA:601,1
DA:602,1
DA:605,1
DA:606,1
DA:607,1
DA:608,1
DA:609,1
DA:610,1
DA:611,1
DA:612,1
DA:613,1
DA:614,1
DA:615,1
DA:616,1
DA:617,1
DA:618,1
DA:619,1
DA:620,1
DA:621,1
DA:622,1
DA:623,1
DA:624,1
DA:625,1
DA:626,1
DA:627,1
DA:630,1
DA:631,1
DA:632,1
DA:633,1
DA:634,1
DA:635,1
DA:636,1
DA:637,1
DA:638,1
DA:639,1
DA:640,1
DA:641,1
DA:642,1
DA:643,1
DA:644,1
DA:645,1
DA:646,1
DA:647,1
DA:648,1
DA:649,1
DA:650,1
DA:651,1
DA:652,1
DA:653,1
DA:654,1
DA:655,1
DA:656,1
DA:657,1
DA:658,1
DA:659,1
DA:660,1
DA:661,1
DA:662,1
DA:663,1
DA:664,1
DA:665,1
DA:666,1
DA:667,1
DA:668,1
DA:669,1
DA:670,1
BRF:0
BRH:0
LF:510
LH:342
end_of_record
SF:/path/to/ecoPrimals/phase2/loamSpine/crates/loam-spine-core/src/spine.rs
FN:168,_RNvMNtCskrSqHInbZEk_15loam_spine_core5spineNtB2_5Spine12create_entry
FN:95,_RNvMNtCskrSqHInbZEk_15loam_spine_core5spineNtB2_5Spine13genesis_entry
FN:62,_RNvMNtCskrSqHInbZEk_15loam_spine_core5spineNtB2_5Spine3new
FN:178,_RNvMNtCskrSqHInbZEk_15loam_spine_core5spineNtB2_5Spine4seal
FN:136,_RNvMNtCskrSqHInbZEk_15loam_spine_core5spineNtB2_5Spine6append
FN:196,_RNvMNtCskrSqHInbZEk_15loam_spine_core5spineNtB2_5Spine6verify
FN:89,_RNvMNtCskrSqHInbZEk_15loam_spine_core5spineNtB2_5Spine7builder
FN:115,_RNvMNtCskrSqHInbZEk_15loam_spine_core5spineNtB2_5Spine7entries
FN:107,_RNvMNtCskrSqHInbZEk_15loam_spine_core5spineNtB2_5Spine9get_entry
FN:121,_RNvMNtCskrSqHInbZEk_15loam_spine_core5spineNtB2_5Spine9is_active
FN:127,_RNvMNtCskrSqHInbZEk_15loam_spine_core5spineNtB2_5Spine9is_sealed
FN:101,_RNvMNtCskrSqHInbZEk_15loam_spine_core5spineNtB2_5Spine9tip_entry
FN:365,_RNvMs0_NtCskrSqHInbZEk_15loam_spine_core5spineNtB5_10SpineState11is_terminal
FN:353,_RNvMs0_NtCskrSqHInbZEk_15loam_spine_core5spineNtB5_10SpineState9is_active
FN:359,_RNvMs0_NtCskrSqHInbZEk_15loam_spine_core5spineNtB5_10SpineState9is_sealed
FN:288,_RNvMs_NtCskrSqHInbZEk_15loam_spine_core5spineNtB4_12SpineBuilder16with_auto_rollup
FN:295,_RNvMs_NtCskrSqHInbZEk_15loam_spine_core5spineNtB4_12SpineBuilder16with_replication
FN:242,_RNvMs_NtCskrSqHInbZEk_15loam_spine_core5spineNtB4_12SpineBuilder3new
FN:312,_RNvMs_NtCskrSqHInbZEk_15loam_spine_core5spineNtB4_12SpineBuilder5build
FN:269,_RNvMs_NtCskrSqHInbZEk_15loam_spine_core5spineNtB4_12SpineBuilder8personal
FN:277,_RNvMs_NtCskrSqHInbZEk_15loam_spine_core5spineNtB4_12SpineBuilder8waypoint
FN:261,_RNvMs_NtCskrSqHInbZEk_15loam_spine_core5spineNtB4_12SpineBuilder9with_type
FN:371,_RNvXs1_NtCskrSqHInbZEk_15loam_spine_core5spineNtB5_10SpineStateNtNtCs9sjCchOt1K7_4core7default7Default7default
FN:110,_RNCNvMNtCskrSqHInbZEk_15loam_spine_core5spineNtB4_5Spine9get_entry0B6_
FN:302,_RINvMs_NtCskrSqHInbZEk_15loam_spine_core5spineNtB5_12SpineBuilder13with_metadatappEB7_
FN:254,_RINvMs_NtCskrSqHInbZEk_15loam_spine_core5spineNtB5_12SpineBuilder9with_namepEB7_
FN:471,_RNvNtNtCsiWUamAnYf7P_15loam_spine_core5spine5testss_10spine_seal
FN:454,_RNvNtNtCsiWUamAnYf7P_15loam_spine_core5spine5testss_12spine_append
FN:487,_RNvNtNtCsiWUamAnYf7P_15loam_spine_core5spine5testss_12spine_verify
FN:436,_RNvNtNtCsiWUamAnYf7P_15loam_spine_core5spine5testss_13spine_builder
FN:422,_RNvNtNtCsiWUamAnYf7P_15loam_spine_core5spine5testss_14spine_creation
FN:509,_RNvNtNtCsiWUamAnYf7P_15loam_spine_core5spine5testss_14waypoint_spine
FN:528,_RNvNtNtCsiWUamAnYf7P_15loam_spine_core5spine5testss_18spine_state_checks
FN:115,_RNvMNtCsiWUamAnYf7P_15loam_spine_core5spineNtB2_5Spine7entries
FN:295,_RNvMs_NtCsiWUamAnYf7P_15loam_spine_core5spineNtB4_12SpineBuilder16with_replication
FN:261,_RNvMs_NtCsiWUamAnYf7P_15loam_spine_core5spineNtB4_12SpineBuilder9with_type
FN:371,_RNvXs1_NtCsiWUamAnYf7P_15loam_spine_core5spineNtB5_10SpineStateNtNtCs9sjCchOt1K7_4core7default7Default7default
FN:302,_RINvMs_NtCsiWUamAnYf7P_15loam_spine_core5spineNtB5_12SpineBuilder13with_metadataReB1g_EB7_
FN:254,_RINvMs_NtCsiWUamAnYf7P_15loam_spine_core5spineNtB5_12SpineBuilder9with_nameNtNtCs6bBekJvxEMJ_5alloc6string6StringEB7_
FN:254,_RINvMs_NtCsiWUamAnYf7P_15loam_spine_core5spineNtB5_12SpineBuilder9with_nameReEB7_
FN:110,_RNCNvMNtCsiWUamAnYf7P_15loam_spine_core5spineNtB4_5Spine9get_entry0B6_
FN:168,_RNvMNtCsiWUamAnYf7P_15loam_spine_core5spineNtB2_5Spine12create_entry
FN:95,_RNvMNtCsiWUamAnYf7P_15loam_spine_core5spineNtB2_5Spine13genesis_entry
FN:62,_RNvMNtCsiWUamAnYf7P_15loam_spine_core5spineNtB2_5Spine3new
FN:178,_RNvMNtCsiWUamAnYf7P_15loam_spine_core5spineNtB2_5Spine4seal
FN:136,_RNvMNtCsiWUamAnYf7P_15loam_spine_core5spineNtB2_5Spine6append
FN:196,_RNvMNtCsiWUamAnYf7P_15loam_spine_core5spineNtB2_5Spine6verify
FN:89,_RNvMNtCsiWUamAnYf7P_15loam_spine_core5spineNtB2_5Spine7builder
FN:107,_RNvMNtCsiWUamAnYf7P_15loam_spine_core5spineNtB2_5Spine9get_entry
FN:121,_RNvMNtCsiWUamAnYf7P_15loam_spine_core5spineNtB2_5Spine9is_active
FN:127,_RNvMNtCsiWUamAnYf7P_15loam_spine_core5spineNtB2_5Spine9is_sealed
FN:101,_RNvMNtCsiWUamAnYf7P_15loam_spine_core5spineNtB2_5Spine9tip_entry
FN:365,_RNvMs0_NtCsiWUamAnYf7P_15loam_spine_core5spineNtB5_10SpineState11is_terminal
FN:353,_RNvMs0_NtCsiWUamAnYf7P_15loam_spine_core5spineNtB5_10SpineState9is_active
FN:359,_RNvMs0_NtCsiWUamAnYf7P_15loam_spine_core5spineNtB5_10SpineState9is_sealed
FN:288,_RNvMs_NtCsiWUamAnYf7P_15loam_spine_core5spineNtB4_12SpineBuilder16with_auto_rollup
FN:242,_RNvMs_NtCsiWUamAnYf7P_15loam_spine_core5spineNtB4_12SpineBuilder3new
FN:312,_RNvMs_NtCsiWUamAnYf7P_15loam_spine_core5spineNtB4_12SpineBuilder5build
FN:269,_RNvMs_NtCsiWUamAnYf7P_15loam_spine_core5spineNtB4_12SpineBuilder8personal
FN:277,_RNvMs_NtCsiWUamAnYf7P_15loam_spine_core5spineNtB4_12SpineBuilder8waypoint
FNDA:3746,_RNvMNtCskrSqHInbZEk_15loam_spine_core5spineNtB2_5Spine12create_entry
FNDA:1453,_RNvMNtCskrSqHInbZEk_15loam_spine_core5spineNtB2_5Spine13genesis_entry
FNDA:1453,_RNvMNtCskrSqHInbZEk_15loam_spine_core5spineNtB2_5Spine3new
FNDA:118,_RNvMNtCskrSqHInbZEk_15loam_spine_core5spineNtB2_5Spine4seal
FNDA:3746,_RNvMNtCskrSqHInbZEk_15loam_spine_core5spineNtB2_5Spine6append
FNDA:0,_RNvMNtCskrSqHInbZEk_15loam_spine_core5spineNtB2_5Spine6verify
FNDA:0,_RNvMNtCskrSqHInbZEk_15loam_spine_core5spineNtB2_5Spine7builder
FNDA:0,_RNvMNtCskrSqHInbZEk_15loam_spine_core5spineNtB2_5Spine7entries
FNDA:2,_RNvMNtCskrSqHInbZEk_15loam_spine_core5spineNtB2_5Spine9get_entry
FNDA:3746,_RNvMNtCskrSqHInbZEk_15loam_spine_core5spineNtB2_5Spine9is_active
FNDA:119,_RNvMNtCskrSqHInbZEk_15loam_spine_core5spineNtB2_5Spine9is_sealed
FNDA:108,_RNvMNtCskrSqHInbZEk_15loam_spine_core5spineNtB2_5Spine9tip_entry
FNDA:0,_RNvMs0_NtCskrSqHInbZEk_15loam_spine_core5spineNtB5_10SpineState11is_terminal
FNDA:3746,_RNvMs0_NtCskrSqHInbZEk_15loam_spine_core5spineNtB5_10SpineState9is_active
FNDA:119,_RNvMs0_NtCskrSqHInbZEk_15loam_spine_core5spineNtB5_10SpineState9is_sealed
FNDA:0,_RNvMs_NtCskrSqHInbZEk_15loam_spine_core5spineNtB4_12SpineBuilder16with_auto_rollup
FNDA:0,_RNvMs_NtCskrSqHInbZEk_15loam_spine_core5spineNtB4_12SpineBuilder16with_replication
FNDA:0,_RNvMs_NtCskrSqHInbZEk_15loam_spine_core5spineNtB4_12SpineBuilder3new
FNDA:0,_RNvMs_NtCskrSqHInbZEk_15loam_spine_core5spineNtB4_12SpineBuilder5build
FNDA:0,_RNvMs_NtCskrSqHInbZEk_15loam_spine_core5spineNtB4_12SpineBuilder8personal
FNDA:0,_RNvMs_NtCskrSqHInbZEk_15loam_spine_core5spineNtB4_12SpineBuilder8waypoint
FNDA:0,_RNvMs_NtCskrSqHInbZEk_15loam_spine_core5spineNtB4_12SpineBuilder9with_type
FNDA:0,_RNvXs1_NtCskrSqHInbZEk_15loam_spine_core5spineNtB5_10SpineStateNtNtCs9sjCchOt1K7_4core7default7Default7default
FNDA:2,_RNCNvMNtCskrSqHInbZEk_15loam_spine_core5spineNtB4_5Spine9get_entry0B6_
FNDA:0,_RINvMs_NtCskrSqHInbZEk_15loam_spine_core5spineNtB5_12SpineBuilder13with_metadatappEB7_
FNDA:0,_RINvMs_NtCskrSqHInbZEk_15loam_spine_core5spineNtB5_12SpineBuilder9with_namepEB7_
FNDA:1,_RNvNtNtCsiWUamAnYf7P_15loam_spine_core5spine5testss_10spine_seal
FNDA:1,_RNvNtNtCsiWUamAnYf7P_15loam_spine_core5spine5testss_12spine_append
FNDA:1,_RNvNtNtCsiWUamAnYf7P_15loam_spine_core5spine5testss_12spine_verify
FNDA:1,_RNvNtNtCsiWUamAnYf7P_15loam_spine_core5spine5testss_13spine_builder
FNDA:1,_RNvNtNtCsiWUamAnYf7P_15loam_spine_core5spine5testss_14spine_creation
FNDA:1,_RNvNtNtCsiWUamAnYf7P_15loam_spine_core5spine5testss_14waypoint_spine
FNDA:1,_RNvNtNtCsiWUamAnYf7P_15loam_spine_core5spine5testss_18spine_state_checks
FNDA:0,_RNvMNtCsiWUamAnYf7P_15loam_spine_core5spineNtB2_5Spine7entries
FNDA:0,_RNvMs_NtCsiWUamAnYf7P_15loam_spine_core5spineNtB4_12SpineBuilder16with_replication
FNDA:0,_RNvMs_NtCsiWUamAnYf7P_15loam_spine_core5spineNtB4_12SpineBuilder9with_type
FNDA:0,_RNvXs1_NtCsiWUamAnYf7P_15loam_spine_core5spineNtB5_10SpineStateNtNtCs9sjCchOt1K7_4core7default7Default7default
FNDA:1,_RINvMs_NtCsiWUamAnYf7P_15loam_spine_core5spineNtB5_12SpineBuilder13with_metadataReB1g_EB7_
FNDA:10,_RINvMs_NtCsiWUamAnYf7P_15loam_spine_core5spineNtB5_12SpineBuilder9with_nameNtNtCs6bBekJvxEMJ_5alloc6string6StringEB7_
FNDA:22,_RINvMs_NtCsiWUamAnYf7P_15loam_spine_core5spineNtB5_12SpineBuilder9with_nameReEB7_
FNDA:1,_RNCNvMNtCsiWUamAnYf7P_15loam_spine_core5spineNtB4_5Spine9get_entry0B6_
FNDA:51,_RNvMNtCsiWUamAnYf7P_15loam_spine_core5spineNtB2_5Spine12create_entry
FNDA:54,_RNvMNtCsiWUamAnYf7P_15loam_spine_core5spineNtB2_5Spine13genesis_entry
FNDA:108,_RNvMNtCsiWUamAnYf7P_15loam_spine_core5spineNtB2_5Spine3new
FNDA:2,_RNvMNtCsiWUamAnYf7P_15loam_spine_core5spineNtB2_5Spine4seal
FNDA:51,_RNvMNtCsiWUamAnYf7P_15loam_spine_core5spineNtB2_5Spine6append
FNDA:1,_RNvMNtCsiWUamAnYf7P_15loam_spine_core5spineNtB2_5Spine6verify
FNDA:2,_RNvMNtCsiWUamAnYf7P_15loam_spine_core5spineNtB2_5Spine7builder
FNDA:1,_RNvMNtCsiWUamAnYf7P_15loam_spine_core5spineNtB2_5Spine9get_entry
FNDA:52,_RNvMNtCsiWUamAnYf7P_15loam_spine_core5spineNtB2_5Spine9is_active
FNDA:3,_RNvMNtCsiWUamAnYf7P_15loam_spine_core5spineNtB2_5Spine9is_sealed
FNDA:2,_RNvMNtCsiWUamAnYf7P_15loam_spine_core5spineNtB2_5Spine9tip_entry
FNDA:2,_RNvMs0_NtCsiWUamAnYf7P_15loam_spine_core5spineNtB5_10SpineState11is_terminal
FNDA:54,_RNvMs0_NtCsiWUamAnYf7P_15loam_spine_core5spineNtB5_10SpineState9is_active
FNDA:5,_RNvMs0_NtCsiWUamAnYf7P_15loam_spine_core5spineNtB5_10SpineState9is_sealed
FNDA:1,_RNvMs_NtCsiWUamAnYf7P_15loam_spine_core5spineNtB4_12SpineBuilder16with_auto_rollup
FNDA:32,_RNvMs_NtCsiWUamAnYf7P_15loam_spine_core5spineNtB4_12SpineBuilder3new
FNDA:32,_RNvMs_NtCsiWUamAnYf7P_15loam_spine_core5spineNtB4_12SpineBuilder5build
FNDA:1,_RNvMs_NtCsiWUamAnYf7P_15loam_spine_core5spineNtB4_12SpineBuilder8personal
FNDA:1,_RNvMs_NtCsiWUamAnYf7P_15loam_spine_core5spineNtB4_12SpineBuilder8waypoint
FNF:33
FNH:29
DA:62,1561
DA:63,1561
DA:64,1561
DA:65,1561
DA:66,1561
DA:67,1561
DA:68,1561
DA:69,1561
DA:70,1561
DA:71,1561
DA:72,1561
DA:73,1561
DA:74,1561
DA:75,1561
DA:76,1561
DA:77,1561
DA:78,1561
DA:79,1561
DA:80,1561
DA:81,1561
DA:82,1561
DA:83,1561
DA:84,1561
DA:85,1561
DA:89,2
DA:90,2
DA:91,2
DA:95,1507
DA:96,1507
DA:97,1507
DA:101,110
DA:102,110
DA:103,110
DA:107,3
DA:108,3
DA:109,3
DA:110,3
DA:111,3
DA:115,0
DA:116,0
DA:117,0
DA:121,3798
DA:122,3798
DA:123,3798
DA:127,122
DA:128,122
DA:129,122
DA:136,3797
DA:137,3797
DA:138,2
DA:139,3795
DA:140,3795
DA:141,3795
DA:142,3795
DA:143,0
DA:144,0
DA:145,0
DA:146,0
DA:147,3795
DA:148,3795
DA:149,3795
DA:150,0
DA:151,0
DA:152,0
DA:153,0
DA:154,3795
DA:155,3795
DA:156,3795
DA:157,3795
DA:158,3795
DA:159,3795
DA:160,3795
DA:161,3795
DA:162,3795
DA:163,3795
DA:164,3797
DA:168,3797
DA:169,3797
DA:170,3797
DA:171,3797
DA:178,120
DA:179,120
DA:180,11
DA:181,109
DA:182,109
DA:183,109
DA:184,109
DA:186,109
DA:187,109
DA:188,109
DA:189,109
DA:190,109
DA:191,109
DA:192,120
DA:196,1
DA:197,1
DA:198,1
DA:200,6
DA:202,6
DA:203,0
DA:204,0
DA:205,0
DA:206,0
DA:207,6
DA:210,6
DA:211,0
DA:212,0
DA:213,0
DA:214,0
DA:215,0
DA:216,6
DA:218,6
DA:221,1
DA:222,1
DA:223,1
DA:224,1
DA:225,1
DA:226,1
DA:227,1
DA:242,32
DA:243,32
DA:244,32
DA:245,32
DA:246,32
DA:247,32
DA:248,32
DA:249,32
DA:250,32
DA:254,32
DA:255,32
DA:256,32
DA:257,32
DA:261,0
DA:262,0
DA:263,0
DA:264,0
DA:265,0
DA:269,1
DA:270,1
DA:271,1
DA:272,1
DA:273,1
DA:277,1
DA:278,1
DA:279,1
DA:280,1
DA:281,1
DA:282,1
DA:283,1
DA:284,1
DA:288,1
DA:289,1
DA:290,1
DA:291,1
DA:295,0
DA:296,0
DA:297,0
DA:298,0
DA:302,1
DA:303,1
DA:304,1
DA:305,1
DA:312,32
DA:313,32
DA:314,32
DA:315,32
DA:316,32
DA:353,3800
DA:354,3800
DA:355,3800
DA:359,124
DA:360,124
DA:361,124
DA:365,2
DA:366,2
DA:367,2
DA:371,0
DA:372,0
DA:373,0
DA:422,1
DA:423,1
DA:424,1
DA:425,1
DA:426,1
DA:427,1
DA:428,1
DA:429,1
DA:430,1
DA:431,1
DA:432,1
DA:433,1
DA:436,1
DA:437,1
DA:438,1
DA:439,1
DA:440,1
DA:441,1
DA:442,1
DA:443,1
DA:444,1
DA:445,1
DA:446,1
DA:447,1
DA:448,1
DA:449,1
DA:450,1
DA:451,1
DA:454,1
DA:455,1
DA:456,1
DA:457,1
DA:458,1
DA:459,1
DA:460,1
DA:461,1
DA:462,1
DA:463,1
DA:464,1
DA:465,1
DA:466,1
DA:467,1
DA:468,1
DA:471,1
DA:472,1
DA:473,1
DA:474,1
DA:475,1
DA:476,1
DA:477,1
DA:478,1
DA:481,1
DA:482,1
DA:483,1
DA:484,1
DA:487,1
DA:488,1
DA:489,1
DA:490,1
DA:493,6
DA:494,5
DA:495,5
DA:496,5
DA:497,5
DA:498,5
DA:499,5
DA:500,5
DA:502,1
DA:503,1
DA:504,1
DA:505,1
DA:506,1
DA:509,1
DA:510,1
DA:511,1
DA:512,1
DA:513,1
DA:514,1
DA:515,1
DA:516,1
DA:517,1
DA:518,1
DA:519,1
DA:520,1
DA:525,1
DA:528,1
DA:529,1
DA:530,1
DA:531,1
DA:533,1
DA:534,1
DA:535,1
DA:536,1
DA:537,1
DA:538,1
DA:539,1
DA:540,1
BRF:0
BRH:0
LF:277
LH:245
end_of_record
SF:/path/to/ecoPrimals/phase2/loamSpine/crates/loam-spine-core/src/storage/memory.rs
FN:36,_RNCNvMNtNtCskrSqHInbZEk_15loam_spine_core7storage6memoryNtB4_20InMemorySpineStorage11spine_count0Cs4SaE2cvVVUV_14loam_spine_api
FN:95,_RNCNvXs1_NtNtCskrSqHInbZEk_15loam_spine_core7storage6memoryNtB7_20InMemoryEntryStorageNtB9_12EntryStorage10save_entry0Cs4SaE2cvVVUV_14loam_spine_api
FN:90,_RNCNvXs1_NtNtCskrSqHInbZEk_15loam_spine_core7storage6memoryNtB7_20InMemoryEntryStorageNtB9_12EntryStorage9get_entry0Cs4SaE2cvVVUV_14loam_spine_api
FN:47,_RNCNvXs_NtNtCskrSqHInbZEk_15loam_spine_core7storage6memoryNtB6_20InMemorySpineStorageNtB8_12SpineStorage10save_spine0Cs4SaE2cvVVUV_14loam_spine_api
FN:57,_RNCNvXs_NtNtCskrSqHInbZEk_15loam_spine_core7storage6memoryNtB6_20InMemorySpineStorageNtB8_12SpineStorage11list_spines0Cs4SaE2cvVVUV_14loam_spine_api
FN:42,_RNCNvXs_NtNtCskrSqHInbZEk_15loam_spine_core7storage6memoryNtB6_20InMemorySpineStorageNtB8_12SpineStorage9get_spine0Cs4SaE2cvVVUV_14loam_spine_api
FN:36,_RNvMNtNtCskrSqHInbZEk_15loam_spine_core7storage6memoryNtB2_20InMemorySpineStorage11spine_count
FN:29,_RNvMNtNtCskrSqHInbZEk_15loam_spine_core7storage6memoryNtB2_20InMemorySpineStorage3new
FN:84,_RNvMs0_NtNtCskrSqHInbZEk_15loam_spine_core7storage6memoryNtB5_20InMemoryEntryStorage11entry_count
FN:77,_RNvMs0_NtNtCskrSqHInbZEk_15loam_spine_core7storage6memoryNtB5_20InMemoryEntryStorage3new
FN:175,_RNvMs2_NtNtCskrSqHInbZEk_15loam_spine_core7storage6memoryNtB5_15InMemoryStorage3new
FN:95,_RNvXs1_NtNtCskrSqHInbZEk_15loam_spine_core7storage6memoryNtB5_20InMemoryEntryStorageNtB7_12EntryStorage10save_entry
FN:114,_RNvXs1_NtNtCskrSqHInbZEk_15loam_spine_core7storage6memoryNtB5_20InMemoryEntryStorageNtB7_12EntryStorage12entry_exists
FN:119,_RNvXs1_NtNtCskrSqHInbZEk_15loam_spine_core7storage6memoryNtB5_20InMemoryEntryStorageNtB7_12EntryStorage21get_entries_for_spine
FN:90,_RNvXs1_NtNtCskrSqHInbZEk_15loam_spine_core7storage6memoryNtB5_20InMemoryEntryStorageNtB7_12EntryStorage9get_entry
FN:47,_RNvXs_NtNtCskrSqHInbZEk_15loam_spine_core7storage6memoryNtB4_20InMemorySpineStorageNtB6_12SpineStorage10save_spine
FN:57,_RNvXs_NtNtCskrSqHInbZEk_15loam_spine_core7storage6memoryNtB4_20InMemorySpineStorageNtB6_12SpineStorage11list_spines
FN:52,_RNvXs_NtNtCskrSqHInbZEk_15loam_spine_core7storage6memoryNtB4_20InMemorySpineStorageNtB6_12SpineStorage12delete_spine
FN:42,_RNvXs_NtNtCskrSqHInbZEk_15loam_spine_core7storage6memoryNtB4_20InMemorySpineStorageNtB6_12SpineStorage9get_spine
FN:139,_RNCNCNvXs1_NtNtCskrSqHInbZEk_15loam_spine_core7storage6memoryNtB9_20InMemoryEntryStorageNtBb_12EntryStorage21get_entries_for_spine00Bd_
FN:36,_RNCNvMNtNtCskrSqHInbZEk_15loam_spine_core7storage6memoryNtB4_20InMemorySpineStorage11spine_count0B8_
FN:84,_RNCNvMs0_NtNtCskrSqHInbZEk_15loam_spine_core7storage6memoryNtB7_20InMemoryEntryStorage11entry_count0Bb_
FN:95,_RNCNvXs1_NtNtCskrSqHInbZEk_15loam_spine_core7storage6memoryNtB7_20InMemoryEntryStorageNtB9_12EntryStorage10save_entry0Bb_
FN:114,_RNCNvXs1_NtNtCskrSqHInbZEk_15loam_spine_core7storage6memoryNtB7_20InMemoryEntryStorageNtB9_12EntryStorage12entry_exists0Bb_
FN:124,_RNCNvXs1_NtNtCskrSqHInbZEk_15loam_spine_core7storage6memoryNtB7_20InMemoryEntryStorageNtB9_12EntryStorage21get_entries_for_spine0Bb_
FN:90,_RNCNvXs1_NtNtCskrSqHInbZEk_15loam_spine_core7storage6memoryNtB7_20InMemoryEntryStorageNtB9_12EntryStorage9get_entry0Bb_
FN:47,_RNCNvXs_NtNtCskrSqHInbZEk_15loam_spine_core7storage6memoryNtB6_20InMemorySpineStorageNtB8_12SpineStorage10save_spine0Ba_
FN:57,_RNCNvXs_NtNtCskrSqHInbZEk_15loam_spine_core7storage6memoryNtB6_20InMemorySpineStorageNtB8_12SpineStorage11list_spines0Ba_
FN:52,_RNCNvXs_NtNtCskrSqHInbZEk_15loam_spine_core7storage6memoryNtB6_20InMemorySpineStorageNtB8_12SpineStorage12delete_spine0Ba_
FN:42,_RNCNvXs_NtNtCskrSqHInbZEk_15loam_spine_core7storage6memoryNtB6_20InMemorySpineStorageNtB8_12SpineStorage9get_spine0Ba_
FN:139,_RNCNCNvXs1_NtNtCskrSqHInbZEk_15loam_spine_core7storage6memoryNtB9_20InMemoryEntryStorageNtBb_12EntryStorage21get_entries_for_spine00Csd5Jd4nU1YRX_5chaos
FN:36,_RNCNvMNtNtCskrSqHInbZEk_15loam_spine_core7storage6memoryNtB4_20InMemorySpineStorage11spine_count0Csd5Jd4nU1YRX_5chaos
FN:95,_RNCNvXs1_NtNtCskrSqHInbZEk_15loam_spine_core7storage6memoryNtB7_20InMemoryEntryStorageNtB9_12EntryStorage10save_entry0Csd5Jd4nU1YRX_5chaos
FN:124,_RNCNvXs1_NtNtCskrSqHInbZEk_15loam_spine_core7storage6memoryNtB7_20InMemoryEntryStorageNtB9_12EntryStorage21get_entries_for_spine0Csd5Jd4nU1YRX_5chaos
FN:90,_RNCNvXs1_NtNtCskrSqHInbZEk_15loam_spine_core7storage6memoryNtB7_20InMemoryEntryStorageNtB9_12EntryStorage9get_entry0Csd5Jd4nU1YRX_5chaos
FN:47,_RNCNvXs_NtNtCskrSqHInbZEk_15loam_spine_core7storage6memoryNtB6_20InMemorySpineStorageNtB8_12SpineStorage10save_spine0Csd5Jd4nU1YRX_5chaos
FN:57,_RNCNvXs_NtNtCskrSqHInbZEk_15loam_spine_core7storage6memoryNtB6_20InMemorySpineStorageNtB8_12SpineStorage11list_spines0Csd5Jd4nU1YRX_5chaos
FN:42,_RNCNvXs_NtNtCskrSqHInbZEk_15loam_spine_core7storage6memoryNtB6_20InMemorySpineStorageNtB8_12SpineStorage9get_spine0Csd5Jd4nU1YRX_5chaos
FN:139,_RNCNCNvXs1_NtNtCskrSqHInbZEk_15loam_spine_core7storage6memoryNtB9_20InMemoryEntryStorageNtBb_12EntryStorage21get_entries_for_spine00Cslk0Lj0FVdsD_3e2e
FN:95,_RNCNvXs1_NtNtCskrSqHInbZEk_15loam_spine_core7storage6memoryNtB7_20InMemoryEntryStorageNtB9_12EntryStorage10save_entry0Cslk0Lj0FVdsD_3e2e
FN:114,_RNCNvXs1_NtNtCskrSqHInbZEk_15loam_spine_core7storage6memoryNtB7_20InMemoryEntryStorageNtB9_12EntryStorage12entry_exists0Cslk0Lj0FVdsD_3e2e
FN:124,_RNCNvXs1_NtNtCskrSqHInbZEk_15loam_spine_core7storage6memoryNtB7_20InMemoryEntryStorageNtB9_12EntryStorage21get_entries_for_spine0Cslk0Lj0FVdsD_3e2e
FN:90,_RNCNvXs1_NtNtCskrSqHInbZEk_15loam_spine_core7storage6memoryNtB7_20InMemoryEntryStorageNtB9_12EntryStorage9get_entry0Cslk0Lj0FVdsD_3e2e
FN:47,_RNCNvXs_NtNtCskrSqHInbZEk_15loam_spine_core7storage6memoryNtB6_20InMemorySpineStorageNtB8_12SpineStorage10save_spine0Cslk0Lj0FVdsD_3e2e
FN:57,_RNCNvXs_NtNtCskrSqHInbZEk_15loam_spine_core7storage6memoryNtB6_20InMemorySpineStorageNtB8_12SpineStorage11list_spines0Cslk0Lj0FVdsD_3e2e
FN:42,_RNCNvXs_NtNtCskrSqHInbZEk_15loam_spine_core7storage6memoryNtB6_20InMemorySpineStorageNtB8_12SpineStorage9get_spine0Cslk0Lj0FVdsD_3e2e
FN:36,_RNCNvMNtNtCskrSqHInbZEk_15loam_spine_core7storage6memoryNtB4_20InMemorySpineStorage11spine_count0Cs4S1xE8DPCBn_14loam_spine_api
FN:95,_RNCNvXs1_NtNtCskrSqHInbZEk_15loam_spine_core7storage6memoryNtB7_20InMemoryEntryStorageNtB9_12EntryStorage10save_entry0Cs4S1xE8DPCBn_14loam_spine_api
FN:90,_RNCNvXs1_NtNtCskrSqHInbZEk_15loam_spine_core7storage6memoryNtB7_20InMemoryEntryStorageNtB9_12EntryStorage9get_entry0Cs4S1xE8DPCBn_14loam_spine_api
FN:47,_RNCNvXs_NtNtCskrSqHInbZEk_15loam_spine_core7storage6memoryNtB6_20InMemorySpineStorageNtB8_12SpineStorage10save_spine0Cs4S1xE8DPCBn_14loam_spine_api
FN:57,_RNCNvXs_NtNtCskrSqHInbZEk_15loam_spine_core7storage6memoryNtB6_20InMemorySpineStorageNtB8_12SpineStorage11list_spines0Cs4S1xE8DPCBn_14loam_spine_api
FN:42,_RNCNvXs_NtNtCskrSqHInbZEk_15loam_spine_core7storage6memoryNtB6_20InMemorySpineStorageNtB8_12SpineStorage9get_spine0Cs4S1xE8DPCBn_14loam_spine_api
FN:175,_RNvMs2_NtNtCsiWUamAnYf7P_15loam_spine_core7storage6memoryNtB5_15InMemoryStorage3new
FN:139,_RNCNCNvXs1_NtNtCsiWUamAnYf7P_15loam_spine_core7storage6memoryNtB9_20InMemoryEntryStorageNtBb_12EntryStorage21get_entries_for_spine00Bd_
FN:36,_RNCNvMNtNtCsiWUamAnYf7P_15loam_spine_core7storage6memoryNtB4_20InMemorySpineStorage11spine_count0B8_
FN:84,_RNCNvMs0_NtNtCsiWUamAnYf7P_15loam_spine_core7storage6memoryNtB7_20InMemoryEntryStorage11entry_count0Bb_
FN:95,_RNCNvXs1_NtNtCsiWUamAnYf7P_15loam_spine_core7storage6memoryNtB7_20InMemoryEntryStorageNtB9_12EntryStorage10save_entry0Bb_
FN:114,_RNCNvXs1_NtNtCsiWUamAnYf7P_15loam_spine_core7storage6memoryNtB7_20InMemoryEntryStorageNtB9_12EntryStorage12entry_exists0Bb_
FN:124,_RNCNvXs1_NtNtCsiWUamAnYf7P_15loam_spine_core7storage6memoryNtB7_20InMemoryEntryStorageNtB9_12EntryStorage21get_entries_for_spine0Bb_
FN:90,_RNCNvXs1_NtNtCsiWUamAnYf7P_15loam_spine_core7storage6memoryNtB7_20InMemoryEntryStorageNtB9_12EntryStorage9get_entry0Bb_
FN:47,_RNCNvXs_NtNtCsiWUamAnYf7P_15loam_spine_core7storage6memoryNtB6_20InMemorySpineStorageNtB8_12SpineStorage10save_spine0Ba_
FN:57,_RNCNvXs_NtNtCsiWUamAnYf7P_15loam_spine_core7storage6memoryNtB6_20InMemorySpineStorageNtB8_12SpineStorage11list_spines0Ba_
FN:52,_RNCNvXs_NtNtCsiWUamAnYf7P_15loam_spine_core7storage6memoryNtB6_20InMemorySpineStorageNtB8_12SpineStorage12delete_spine0Ba_
FN:42,_RNCNvXs_NtNtCsiWUamAnYf7P_15loam_spine_core7storage6memoryNtB6_20InMemorySpineStorageNtB8_12SpineStorage9get_spine0Ba_
FN:36,_RNvMNtNtCsiWUamAnYf7P_15loam_spine_core7storage6memoryNtB2_20InMemorySpineStorage11spine_count
FN:29,_RNvMNtNtCsiWUamAnYf7P_15loam_spine_core7storage6memoryNtB2_20InMemorySpineStorage3new
FN:84,_RNvMs0_NtNtCsiWUamAnYf7P_15loam_spine_core7storage6memoryNtB5_20InMemoryEntryStorage11entry_count
FN:77,_RNvMs0_NtNtCsiWUamAnYf7P_15loam_spine_core7storage6memoryNtB5_20InMemoryEntryStorage3new
FN:95,_RNvXs1_NtNtCsiWUamAnYf7P_15loam_spine_core7storage6memoryNtB5_20InMemoryEntryStorageNtB7_12EntryStorage10save_entry
FN:114,_RNvXs1_NtNtCsiWUamAnYf7P_15loam_spine_core7storage6memoryNtB5_20InMemoryEntryStorageNtB7_12EntryStorage12entry_exists
FN:119,_RNvXs1_NtNtCsiWUamAnYf7P_15loam_spine_core7storage6memoryNtB5_20InMemoryEntryStorageNtB7_12EntryStorage21get_entries_for_spine
FN:90,_RNvXs1_NtNtCsiWUamAnYf7P_15loam_spine_core7storage6memoryNtB5_20InMemoryEntryStorageNtB7_12EntryStorage9get_entry
FN:47,_RNvXs_NtNtCsiWUamAnYf7P_15loam_spine_core7storage6memoryNtB4_20InMemorySpineStorageNtB6_12SpineStorage10save_spine
FN:57,_RNvXs_NtNtCsiWUamAnYf7P_15loam_spine_core7storage6memoryNtB4_20InMemorySpineStorageNtB6_12SpineStorage11list_spines
FN:52,_RNvXs_NtNtCsiWUamAnYf7P_15loam_spine_core7storage6memoryNtB4_20InMemorySpineStorageNtB6_12SpineStorage12delete_spine
FN:42,_RNvXs_NtNtCsiWUamAnYf7P_15loam_spine_core7storage6memoryNtB4_20InMemorySpineStorageNtB6_12SpineStorage9get_spine
FNDA:1,_RNCNvMNtNtCskrSqHInbZEk_15loam_spine_core7storage6memoryNtB4_20InMemorySpineStorage11spine_count0Cs4SaE2cvVVUV_14loam_spine_api
FNDA:25,_RNCNvXs1_NtNtCskrSqHInbZEk_15loam_spine_core7storage6memoryNtB7_20InMemoryEntryStorageNtB9_12EntryStorage10save_entry0Cs4SaE2cvVVUV_14loam_spine_api
FNDA:3,_RNCNvXs1_NtNtCskrSqHInbZEk_15loam_spine_core7storage6memoryNtB7_20InMemoryEntryStorageNtB9_12EntryStorage9get_entry0Cs4SaE2cvVVUV_14loam_spine_api
FNDA:25,_RNCNvXs_NtNtCskrSqHInbZEk_15loam_spine_core7storage6memoryNtB6_20InMemorySpineStorageNtB8_12SpineStorage10save_spine0Cs4SaE2cvVVUV_14loam_spine_api
FNDA:21,_RNCNvXs_NtNtCskrSqHInbZEk_15loam_spine_core7storage6memoryNtB6_20InMemorySpineStorageNtB8_12SpineStorage11list_spines0Cs4SaE2cvVVUV_14loam_spine_api
FNDA:57,_RNCNvXs_NtNtCskrSqHInbZEk_15loam_spine_core7storage6memoryNtB6_20InMemorySpineStorageNtB8_12SpineStorage9get_spine0Cs4SaE2cvVVUV_14loam_spine_api
FNDA:8,_RNvMNtNtCskrSqHInbZEk_15loam_spine_core7storage6memoryNtB2_20InMemorySpineStorage11spine_count
FNDA:73,_RNvMNtNtCskrSqHInbZEk_15loam_spine_core7storage6memoryNtB2_20InMemorySpineStorage3new
FNDA:0,_RNvMs0_NtNtCskrSqHInbZEk_15loam_spine_core7storage6memoryNtB5_20InMemoryEntryStorage11entry_count
FNDA:73,_RNvMs0_NtNtCskrSqHInbZEk_15loam_spine_core7storage6memoryNtB5_20InMemoryEntryStorage3new
FNDA:0,_RNvMs2_NtNtCskrSqHInbZEk_15loam_spine_core7storage6memoryNtB5_15InMemoryStorage3new
FNDA:5199,_RNvXs1_NtNtCskrSqHInbZEk_15loam_spine_core7storage6memoryNtB5_20InMemoryEntryStorageNtB7_12EntryStorage10save_entry
FNDA:5,_RNvXs1_NtNtCskrSqHInbZEk_15loam_spine_core7storage6memoryNtB5_20InMemoryEntryStorageNtB7_12EntryStorage12entry_exists
FNDA:3,_RNvXs1_NtNtCskrSqHInbZEk_15loam_spine_core7storage6memoryNtB5_20InMemoryEntryStorageNtB7_12EntryStorage21get_entries_for_spine
FNDA:7,_RNvXs1_NtNtCskrSqHInbZEk_15loam_spine_core7storage6memoryNtB5_20InMemoryEntryStorageNtB7_12EntryStorage9get_entry
FNDA:5199,_RNvXs_NtNtCskrSqHInbZEk_15loam_spine_core7storage6memoryNtB4_20InMemorySpineStorageNtB6_12SpineStorage10save_spine
FNDA:1466,_RNvXs_NtNtCskrSqHInbZEk_15loam_spine_core7storage6memoryNtB4_20InMemorySpineStorageNtB6_12SpineStorage11list_spines
FNDA:0,_RNvXs_NtNtCskrSqHInbZEk_15loam_spine_core7storage6memoryNtB4_20InMemorySpineStorageNtB6_12SpineStorage12delete_spine
FNDA:150912,_RNvXs_NtNtCskrSqHInbZEk_15loam_spine_core7storage6memoryNtB4_20InMemorySpineStorageNtB6_12SpineStorage9get_spine
FNDA:0,_RNCNCNvXs1_NtNtCskrSqHInbZEk_15loam_spine_core7storage6memoryNtB9_20InMemoryEntryStorageNtBb_12EntryStorage21get_entries_for_spine00Bd_
FNDA:0,_RNCNvMNtNtCskrSqHInbZEk_15loam_spine_core7storage6memoryNtB4_20InMemorySpineStorage11spine_count0B8_
FNDA:0,_RNCNvMs0_NtNtCskrSqHInbZEk_15loam_spine_core7storage6memoryNtB7_20InMemoryEntryStorage11entry_count0Bb_
FNDA:0,_RNCNvXs1_NtNtCskrSqHInbZEk_15loam_spine_core7storage6memoryNtB7_20InMemoryEntryStorageNtB9_12EntryStorage10save_entry0Bb_
FNDA:0,_RNCNvXs1_NtNtCskrSqHInbZEk_15loam_spine_core7storage6memoryNtB7_20InMemoryEntryStorageNtB9_12EntryStorage12entry_exists0Bb_
FNDA:0,_RNCNvXs1_NtNtCskrSqHInbZEk_15loam_spine_core7storage6memoryNtB7_20InMemoryEntryStorageNtB9_12EntryStorage21get_entries_for_spine0Bb_
FNDA:0,_RNCNvXs1_NtNtCskrSqHInbZEk_15loam_spine_core7storage6memoryNtB7_20InMemoryEntryStorageNtB9_12EntryStorage9get_entry0Bb_
FNDA:0,_RNCNvXs_NtNtCskrSqHInbZEk_15loam_spine_core7storage6memoryNtB6_20InMemorySpineStorageNtB8_12SpineStorage10save_spine0Ba_
FNDA:0,_RNCNvXs_NtNtCskrSqHInbZEk_15loam_spine_core7storage6memoryNtB6_20InMemorySpineStorageNtB8_12SpineStorage11list_spines0Ba_
FNDA:0,_RNCNvXs_NtNtCskrSqHInbZEk_15loam_spine_core7storage6memoryNtB6_20InMemorySpineStorageNtB8_12SpineStorage12delete_spine0Ba_
FNDA:0,_RNCNvXs_NtNtCskrSqHInbZEk_15loam_spine_core7storage6memoryNtB6_20InMemorySpineStorageNtB8_12SpineStorage9get_spine0Ba_
FNDA:50,_RNCNCNvXs1_NtNtCskrSqHInbZEk_15loam_spine_core7storage6memoryNtB9_20InMemoryEntryStorageNtBb_12EntryStorage21get_entries_for_spine00Csd5Jd4nU1YRX_5chaos
FNDA:4,_RNCNvMNtNtCskrSqHInbZEk_15loam_spine_core7storage6memoryNtB4_20InMemorySpineStorage11spine_count0Csd5Jd4nU1YRX_5chaos
FNDA:5111,_RNCNvXs1_NtNtCskrSqHInbZEk_15loam_spine_core7storage6memoryNtB7_20InMemoryEntryStorageNtB9_12EntryStorage10save_entry0Csd5Jd4nU1YRX_5chaos
FNDA:1,_RNCNvXs1_NtNtCskrSqHInbZEk_15loam_spine_core7storage6memoryNtB7_20InMemoryEntryStorageNtB9_12EntryStorage21get_entries_for_spine0Csd5Jd4nU1YRX_5chaos
FNDA:1,_RNCNvXs1_NtNtCskrSqHInbZEk_15loam_spine_core7storage6memoryNtB7_20InMemoryEntryStorageNtB9_12EntryStorage9get_entry0Csd5Jd4nU1YRX_5chaos
FNDA:5111,_RNCNvXs_NtNtCskrSqHInbZEk_15loam_spine_core7storage6memoryNtB6_20InMemorySpineStorageNtB8_12SpineStorage10save_spine0Csd5Jd4nU1YRX_5chaos
FNDA:1419,_RNCNvXs_NtNtCskrSqHInbZEk_15loam_spine_core7storage6memoryNtB6_20InMemorySpineStorageNtB8_12SpineStorage11list_spines0Csd5Jd4nU1YRX_5chaos
FNDA:150784,_RNCNvXs_NtNtCskrSqHInbZEk_15loam_spine_core7storage6memoryNtB6_20InMemorySpineStorageNtB8_12SpineStorage9get_spine0Csd5Jd4nU1YRX_5chaos
FNDA:4,_RNCNCNvXs1_NtNtCskrSqHInbZEk_15loam_spine_core7storage6memoryNtB9_20InMemoryEntryStorageNtBb_12EntryStorage21get_entries_for_spine00Cslk0Lj0FVdsD_3e2e
FNDA:27,_RNCNvXs1_NtNtCskrSqHInbZEk_15loam_spine_core7storage6memoryNtB7_20InMemoryEntryStorageNtB9_12EntryStorage10save_entry0Cslk0Lj0FVdsD_3e2e
FNDA:5,_RNCNvXs1_NtNtCskrSqHInbZEk_15loam_spine_core7storage6memoryNtB7_20InMemoryEntryStorageNtB9_12EntryStorage12entry_exists0Cslk0Lj0FVdsD_3e2e
FNDA:2,_RNCNvXs1_NtNtCskrSqHInbZEk_15loam_spine_core7storage6memoryNtB7_20InMemoryEntryStorageNtB9_12EntryStorage21get_entries_for_spine0Cslk0Lj0FVdsD_3e2e
FNDA:1,_RNCNvXs1_NtNtCskrSqHInbZEk_15loam_spine_core7storage6memoryNtB7_20InMemoryEntryStorageNtB9_12EntryStorage9get_entry0Cslk0Lj0FVdsD_3e2e
FNDA:27,_RNCNvXs_NtNtCskrSqHInbZEk_15loam_spine_core7storage6memoryNtB6_20InMemorySpineStorageNtB8_12SpineStorage10save_spine0Cslk0Lj0FVdsD_3e2e
FNDA:7,_RNCNvXs_NtNtCskrSqHInbZEk_15loam_spine_core7storage6memoryNtB6_20InMemorySpineStorageNtB8_12SpineStorage11list_spines0Cslk0Lj0FVdsD_3e2e
FNDA:25,_RNCNvXs_NtNtCskrSqHInbZEk_15loam_spine_core7storage6memoryNtB6_20InMemorySpineStorageNtB8_12SpineStorage9get_spine0Cslk0Lj0FVdsD_3e2e
FNDA:3,_RNCNvMNtNtCskrSqHInbZEk_15loam_spine_core7storage6memoryNtB4_20InMemorySpineStorage11spine_count0Cs4S1xE8DPCBn_14loam_spine_api
FNDA:36,_RNCNvXs1_NtNtCskrSqHInbZEk_15loam_spine_core7storage6memoryNtB7_20InMemoryEntryStorageNtB9_12EntryStorage10save_entry0Cs4S1xE8DPCBn_14loam_spine_api
FNDA:2,_RNCNvXs1_NtNtCskrSqHInbZEk_15loam_spine_core7storage6memoryNtB7_20InMemoryEntryStorageNtB9_12EntryStorage9get_entry0Cs4S1xE8DPCBn_14loam_spine_api
FNDA:36,_RNCNvXs_NtNtCskrSqHInbZEk_15loam_spine_core7storage6memoryNtB6_20InMemorySpineStorageNtB8_12SpineStorage10save_spine0Cs4S1xE8DPCBn_14loam_spine_api
FNDA:19,_RNCNvXs_NtNtCskrSqHInbZEk_15loam_spine_core7storage6memoryNtB6_20InMemorySpineStorageNtB8_12SpineStorage11list_spines0Cs4S1xE8DPCBn_14loam_spine_api
FNDA:46,_RNCNvXs_NtNtCskrSqHInbZEk_15loam_spine_core7storage6memoryNtB6_20InMemorySpineStorageNtB8_12SpineStorage9get_spine0Cs4S1xE8DPCBn_14loam_spine_api
FNDA:0,_RNvMs2_NtNtCsiWUamAnYf7P_15loam_spine_core7storage6memoryNtB5_15InMemoryStorage3new
FNDA:1031,_RNCNCNvXs1_NtNtCsiWUamAnYf7P_15loam_spine_core7storage6memoryNtB9_20InMemoryEntryStorageNtBb_12EntryStorage21get_entries_for_spine00Bd_
FNDA:7,_RNCNvMNtNtCsiWUamAnYf7P_15loam_spine_core7storage6memoryNtB4_20InMemorySpineStorage11spine_count0B8_
FNDA:5,_RNCNvMs0_NtNtCsiWUamAnYf7P_15loam_spine_core7storage6memoryNtB7_20InMemoryEntryStorage11entry_count0Bb_
FNDA:1073,_RNCNvXs1_NtNtCsiWUamAnYf7P_15loam_spine_core7storage6memoryNtB7_20InMemoryEntryStorageNtB9_12EntryStorage10save_entry0Bb_
FNDA:4,_RNCNvXs1_NtNtCsiWUamAnYf7P_15loam_spine_core7storage6memoryNtB7_20InMemoryEntryStorageNtB9_12EntryStorage12entry_exists0Bb_
FNDA:14,_RNCNvXs1_NtNtCsiWUamAnYf7P_15loam_spine_core7storage6memoryNtB7_20InMemoryEntryStorageNtB9_12EntryStorage21get_entries_for_spine0Bb_
FNDA:8,_RNCNvXs1_NtNtCsiWUamAnYf7P_15loam_spine_core7storage6memoryNtB7_20InMemoryEntryStorageNtB9_12EntryStorage9get_entry0Bb_
FNDA:60,_RNCNvXs_NtNtCsiWUamAnYf7P_15loam_spine_core7storage6memoryNtB6_20InMemorySpineStorageNtB8_12SpineStorage10save_spine0Ba_
FNDA:26,_RNCNvXs_NtNtCsiWUamAnYf7P_15loam_spine_core7storage6memoryNtB6_20InMemorySpineStorageNtB8_12SpineStorage11list_spines0Ba_
FNDA:2,_RNCNvXs_NtNtCsiWUamAnYf7P_15loam_spine_core7storage6memoryNtB6_20InMemorySpineStorageNtB8_12SpineStorage12delete_spine0Ba_
FNDA:32,_RNCNvXs_NtNtCsiWUamAnYf7P_15loam_spine_core7storage6memoryNtB6_20InMemorySpineStorageNtB8_12SpineStorage9get_spine0Ba_
FNDA:7,_RNvMNtNtCsiWUamAnYf7P_15loam_spine_core7storage6memoryNtB2_20InMemorySpineStorage11spine_count
FNDA:37,_RNvMNtNtCsiWUamAnYf7P_15loam_spine_core7storage6memoryNtB2_20InMemorySpineStorage3new
FNDA:5,_RNvMs0_NtNtCsiWUamAnYf7P_15loam_spine_core7storage6memoryNtB5_20InMemoryEntryStorage11entry_count
FNDA:38,_RNvMs0_NtNtCsiWUamAnYf7P_15loam_spine_core7storage6memoryNtB5_20InMemoryEntryStorage3new
FNDA:1073,_RNvXs1_NtNtCsiWUamAnYf7P_15loam_spine_core7storage6memoryNtB5_20InMemoryEntryStorageNtB7_12EntryStorage10save_entry
FNDA:4,_RNvXs1_NtNtCsiWUamAnYf7P_15loam_spine_core7storage6memoryNtB5_20InMemoryEntryStorageNtB7_12EntryStorage12entry_exists
FNDA:14,_RNvXs1_NtNtCsiWUamAnYf7P_15loam_spine_core7storage6memoryNtB5_20InMemoryEntryStorageNtB7_12EntryStorage21get_entries_for_spine
FNDA:8,_RNvXs1_NtNtCsiWUamAnYf7P_15loam_spine_core7storage6memoryNtB5_20InMemoryEntryStorageNtB7_12EntryStorage9get_entry
FNDA:60,_RNvXs_NtNtCsiWUamAnYf7P_15loam_spine_core7storage6memoryNtB4_20InMemorySpineStorageNtB6_12SpineStorage10save_spine
FNDA:26,_RNvXs_NtNtCsiWUamAnYf7P_15loam_spine_core7storage6memoryNtB4_20InMemorySpineStorageNtB6_12SpineStorage11list_spines
FNDA:2,_RNvXs_NtNtCsiWUamAnYf7P_15loam_spine_core7storage6memoryNtB4_20InMemorySpineStorageNtB6_12SpineStorage12delete_spine
FNDA:32,_RNvXs_NtNtCsiWUamAnYf7P_15loam_spine_core7storage6memoryNtB4_20InMemorySpineStorageNtB6_12SpineStorage9get_spine
FNF:24
FNH:23
DA:29,110
DA:30,110
DA:31,110
DA:36,15
DA:37,15
DA:38,15
DA:42,150944
DA:43,150944
DA:44,150944
DA:45,150944
DA:47,5259
DA:48,5259
DA:49,5259
DA:50,5259
DA:52,2
DA:53,2
DA:54,2
DA:55,2
DA:57,1492
DA:58,1492
DA:59,1492
DA:60,1492
DA:77,111
DA:78,111
DA:79,111
DA:84,5
DA:85,5
DA:86,5
DA:90,15
DA:91,15
DA:92,15
DA:93,15
DA:95,6272
DA:96,6272
DA:97,6272
DA:98,6272
DA:99,6272
DA:100,6272
DA:104,6272
DA:105,6272
DA:106,6272
DA:107,6272
DA:108,6272
DA:111,6272
DA:112,6272
DA:114,9
DA:115,9
DA:116,9
DA:117,9
DA:119,17
DA:120,17
DA:121,17
DA:122,17
DA:123,17
DA:124,17
DA:125,17
DA:126,17
DA:128,17
DA:129,1
DA:132,16
DA:133,16
DA:134,16
DA:135,16
DA:136,16
DA:137,16
DA:138,16
DA:139,1085
DA:140,16
DA:141,16
DA:142,16
DA:143,17
DA:175,0
DA:176,0
DA:177,0
BRF:0
BRH:0
LF:85
LH:82
end_of_record
SF:/path/to/ecoPrimals/phase2/loamSpine/crates/loam-spine-core/src/storage/mod.rs
FN:138,_RNvXNtCsiWUamAnYf7P_15loam_spine_core7storageNtB2_14StorageBackendNtNtCs9sjCchOt1K7_4core7default7Default7default
FNDA:0,_RNvXNtCsiWUamAnYf7P_15loam_spine_core7storageNtB2_14StorageBackendNtNtCs9sjCchOt1K7_4core7default7Default7default
FNF:1
FNH:0
DA:138,0
DA:139,0
DA:140,0
BRF:0
BRH:0
LF:3
LH:0
end_of_record
SF:/path/to/ecoPrimals/phase2/loamSpine/crates/loam-spine-core/src/storage/sled.rs
FN:97,_RNCNvMNtNtCskrSqHInbZEk_15loam_spine_core7storage4sledNtB4_16SledSpineStorage5flush0B8_
FN:72,_RNCNvMNtNtCskrSqHInbZEk_15loam_spine_core7storage4sledNtB4_16SledSpineStorage9temporary0B8_
FN:75,_RNCNvMNtNtCskrSqHInbZEk_15loam_spine_core7storage4sledNtB4_16SledSpineStorage9temporarys_0B8_
FN:226,_RNCNvMs0_NtNtCskrSqHInbZEk_15loam_spine_core7storage4sledNtB7_16SledEntryStorage5flush0Bb_
FN:194,_RNCNvMs0_NtNtCskrSqHInbZEk_15loam_spine_core7storage4sledNtB7_16SledEntryStorage9temporary0Bb_
FN:200,_RNCNvMs0_NtNtCskrSqHInbZEk_15loam_spine_core7storage4sledNtB7_16SledEntryStorage9temporarys0_0Bb_
FN:197,_RNCNvMs0_NtNtCskrSqHInbZEk_15loam_spine_core7storage4sledNtB7_16SledEntryStorage9temporarys_0Bb_
FN:53,_RINvMNtNtCskrSqHInbZEk_15loam_spine_core7storage4sledNtB3_16SledSpineStorage4openpEB7_
FN:168,_RINvMs0_NtNtCskrSqHInbZEk_15loam_spine_core7storage4sledNtB6_16SledEntryStorage4openpEBa_
FN:359,_RINvMs2_NtNtCskrSqHInbZEk_15loam_spine_core7storage4sledNtB6_11SledStorage4openpEBa_
FN:54,_RNCINvMNtNtCskrSqHInbZEk_15loam_spine_core7storage4sledNtB5_16SledSpineStorage4openpE0B9_
FN:57,_RNCINvMNtNtCskrSqHInbZEk_15loam_spine_core7storage4sledNtB5_16SledSpineStorage4openpEs_0B9_
FN:169,_RNCINvMs0_NtNtCskrSqHInbZEk_15loam_spine_core7storage4sledNtB8_16SledEntryStorage4openpE0Bc_
FN:175,_RNCINvMs0_NtNtCskrSqHInbZEk_15loam_spine_core7storage4sledNtB8_16SledEntryStorage4openpEs0_0Bc_
FN:172,_RNCINvMs0_NtNtCskrSqHInbZEk_15loam_spine_core7storage4sledNtB8_16SledEntryStorage4openpEs_0Bc_
FN:259,_RNCNCNvXs1_NtNtCskrSqHInbZEk_15loam_spine_core7storage4sledNtB9_16SledEntryStorageNtBb_12EntryStorage10save_entry00Bd_
FN:270,_RNCNCNvXs1_NtNtCskrSqHInbZEk_15loam_spine_core7storage4sledNtB9_16SledEntryStorageNtBb_12EntryStorage10save_entry0s0_0Bd_
FN:264,_RNCNCNvXs1_NtNtCskrSqHInbZEk_15loam_spine_core7storage4sledNtB9_16SledEntryStorageNtBb_12EntryStorage10save_entry0s_0Bd_
FN:278,_RNCNCNvXs1_NtNtCskrSqHInbZEk_15loam_spine_core7storage4sledNtB9_16SledEntryStorageNtBb_12EntryStorage12entry_exists00Bd_
FN:296,_RNCNCNvXs1_NtNtCskrSqHInbZEk_15loam_spine_core7storage4sledNtB9_16SledEntryStorageNtBb_12EntryStorage21get_entries_for_spine00Bd_
FN:310,_RNCNCNvXs1_NtNtCskrSqHInbZEk_15loam_spine_core7storage4sledNtB9_16SledEntryStorageNtBb_12EntryStorage21get_entries_for_spine0s0_0Bd_
FN:307,_RNCNCNvXs1_NtNtCskrSqHInbZEk_15loam_spine_core7storage4sledNtB9_16SledEntryStorageNtBb_12EntryStorage21get_entries_for_spine0s_0Bd_
FN:248,_RNCNCNvXs1_NtNtCskrSqHInbZEk_15loam_spine_core7storage4sledNtB9_16SledEntryStorageNtBb_12EntryStorage9get_entry00Bd_
FN:119,_RNCNCNvXs_NtNtCskrSqHInbZEk_15loam_spine_core7storage4sledNtB8_16SledSpineStorageNtBa_12SpineStorage10save_spine00Bc_
FN:122,_RNCNCNvXs_NtNtCskrSqHInbZEk_15loam_spine_core7storage4sledNtB8_16SledSpineStorageNtBa_12SpineStorage10save_spine0s_0Bc_
FN:137,_RNCNCNvXs_NtNtCskrSqHInbZEk_15loam_spine_core7storage4sledNtB8_16SledSpineStorageNtBa_12SpineStorage11list_spines00Bc_
FN:130,_RNCNCNvXs_NtNtCskrSqHInbZEk_15loam_spine_core7storage4sledNtB8_16SledSpineStorageNtBa_12SpineStorage12delete_spine00Bc_
FN:108,_RNCNCNvXs_NtNtCskrSqHInbZEk_15loam_spine_core7storage4sledNtB8_16SledSpineStorageNtBa_12SpineStorage9get_spine00Bc_
FN:256,_RNCNvXs1_NtNtCskrSqHInbZEk_15loam_spine_core7storage4sledNtB7_16SledEntryStorageNtB9_12EntryStorage10save_entry0Bb_
FN:275,_RNCNvXs1_NtNtCskrSqHInbZEk_15loam_spine_core7storage4sledNtB7_16SledEntryStorageNtB9_12EntryStorage12entry_exists0Bb_
FN:286,_RNCNvXs1_NtNtCskrSqHInbZEk_15loam_spine_core7storage4sledNtB7_16SledEntryStorageNtB9_12EntryStorage21get_entries_for_spine0Bb_
FN:244,_RNCNvXs1_NtNtCskrSqHInbZEk_15loam_spine_core7storage4sledNtB7_16SledEntryStorageNtB9_12EntryStorage9get_entry0Bb_
FN:116,_RNCNvXs_NtNtCskrSqHInbZEk_15loam_spine_core7storage4sledNtB6_16SledSpineStorageNtB8_12SpineStorage10save_spine0Ba_
FN:134,_RNCNvXs_NtNtCskrSqHInbZEk_15loam_spine_core7storage4sledNtB6_16SledSpineStorageNtB8_12SpineStorage11list_spines0Ba_
FN:126,_RNCNvXs_NtNtCskrSqHInbZEk_15loam_spine_core7storage4sledNtB6_16SledSpineStorageNtB8_12SpineStorage12delete_spine0Ba_
FN:103,_RNCNvXs_NtNtCskrSqHInbZEk_15loam_spine_core7storage4sledNtB6_16SledSpineStorageNtB8_12SpineStorage9get_spine0Ba_
FN:83,_RNvMNtNtCsiWUamAnYf7P_15loam_spine_core7storage4sledNtB2_16SledSpineStorage11spine_count
FN:94,_RNvMNtNtCsiWUamAnYf7P_15loam_spine_core7storage4sledNtB2_16SledSpineStorage5flush
FN:68,_RNvMNtNtCsiWUamAnYf7P_15loam_spine_core7storage4sledNtB2_16SledSpineStorage9temporary
FN:212,_RNvMs0_NtNtCsiWUamAnYf7P_15loam_spine_core7storage4sledNtB5_16SledEntryStorage11entry_count
FN:235,_RNvMs0_NtNtCsiWUamAnYf7P_15loam_spine_core7storage4sledNtB5_16SledEntryStorage14make_index_key
FN:223,_RNvMs0_NtNtCsiWUamAnYf7P_15loam_spine_core7storage4sledNtB5_16SledEntryStorage5flush
FN:190,_RNvMs0_NtNtCsiWUamAnYf7P_15loam_spine_core7storage4sledNtB5_16SledEntryStorage9temporary
FN:387,_RNvMs2_NtNtCsiWUamAnYf7P_15loam_spine_core7storage4sledNtB5_11SledStorage5flush
FN:373,_RNvMs2_NtNtCsiWUamAnYf7P_15loam_spine_core7storage4sledNtB5_11SledStorage9temporary
FN:256,_RNvXs1_NtNtCsiWUamAnYf7P_15loam_spine_core7storage4sledNtB5_16SledEntryStorageNtB7_12EntryStorage10save_entry
FN:275,_RNvXs1_NtNtCsiWUamAnYf7P_15loam_spine_core7storage4sledNtB5_16SledEntryStorageNtB7_12EntryStorage12entry_exists
FN:281,_RNvXs1_NtNtCsiWUamAnYf7P_15loam_spine_core7storage4sledNtB5_16SledEntryStorageNtB7_12EntryStorage21get_entries_for_spine
FN:244,_RNvXs1_NtNtCsiWUamAnYf7P_15loam_spine_core7storage4sledNtB5_16SledEntryStorageNtB7_12EntryStorage9get_entry
FN:116,_RNvXs_NtNtCsiWUamAnYf7P_15loam_spine_core7storage4sledNtB4_16SledSpineStorageNtB6_12SpineStorage10save_spine
FN:134,_RNvXs_NtNtCsiWUamAnYf7P_15loam_spine_core7storage4sledNtB4_16SledSpineStorageNtB6_12SpineStorage11list_spines
FN:126,_RNvXs_NtNtCsiWUamAnYf7P_15loam_spine_core7storage4sledNtB4_16SledSpineStorageNtB6_12SpineStorage12delete_spine
FN:103,_RNvXs_NtNtCsiWUamAnYf7P_15loam_spine_core7storage4sledNtB4_16SledSpineStorageNtB6_12SpineStorage9get_spine
FN:53,_RINvMNtNtCsiWUamAnYf7P_15loam_spine_core7storage4sledNtB3_16SledSpineStorage4openNtNtCseJswNlh1fGO_3std4path7PathBufEB7_
FN:168,_RINvMs0_NtNtCsiWUamAnYf7P_15loam_spine_core7storage4sledNtB6_16SledEntryStorage4openNtNtCseJswNlh1fGO_3std4path7PathBufEBa_
FN:359,_RINvMs2_NtNtCsiWUamAnYf7P_15loam_spine_core7storage4sledNtB6_11SledStorage4openRNtNtCseJswNlh1fGO_3std4path7PathBufEBa_
FN:54,_RNCINvMNtNtCsiWUamAnYf7P_15loam_spine_core7storage4sledNtB5_16SledSpineStorage4openNtNtCseJswNlh1fGO_3std4path7PathBufE0B9_
FN:57,_RNCINvMNtNtCsiWUamAnYf7P_15loam_spine_core7storage4sledNtB5_16SledSpineStorage4openNtNtCseJswNlh1fGO_3std4path7PathBufEs_0B9_
FN:169,_RNCINvMs0_NtNtCsiWUamAnYf7P_15loam_spine_core7storage4sledNtB8_16SledEntryStorage4openNtNtCseJswNlh1fGO_3std4path7PathBufE0Bc_
FN:175,_RNCINvMs0_NtNtCsiWUamAnYf7P_15loam_spine_core7storage4sledNtB8_16SledEntryStorage4openNtNtCseJswNlh1fGO_3std4path7PathBufEs0_0Bc_
FN:172,_RNCINvMs0_NtNtCsiWUamAnYf7P_15loam_spine_core7storage4sledNtB8_16SledEntryStorage4openNtNtCseJswNlh1fGO_3std4path7PathBufEs_0Bc_
FN:259,_RNCNCNvXs1_NtNtCsiWUamAnYf7P_15loam_spine_core7storage4sledNtB9_16SledEntryStorageNtBb_12EntryStorage10save_entry00Bd_
FN:270,_RNCNCNvXs1_NtNtCsiWUamAnYf7P_15loam_spine_core7storage4sledNtB9_16SledEntryStorageNtBb_12EntryStorage10save_entry0s0_0Bd_
FN:264,_RNCNCNvXs1_NtNtCsiWUamAnYf7P_15loam_spine_core7storage4sledNtB9_16SledEntryStorageNtBb_12EntryStorage10save_entry0s_0Bd_
FN:278,_RNCNCNvXs1_NtNtCsiWUamAnYf7P_15loam_spine_core7storage4sledNtB9_16SledEntryStorageNtBb_12EntryStorage12entry_exists00Bd_
FN:296,_RNCNCNvXs1_NtNtCsiWUamAnYf7P_15loam_spine_core7storage4sledNtB9_16SledEntryStorageNtBb_12EntryStorage21get_entries_for_spine00Bd_
FN:310,_RNCNCNvXs1_NtNtCsiWUamAnYf7P_15loam_spine_core7storage4sledNtB9_16SledEntryStorageNtBb_12EntryStorage21get_entries_for_spine0s0_0Bd_
FN:307,_RNCNCNvXs1_NtNtCsiWUamAnYf7P_15loam_spine_core7storage4sledNtB9_16SledEntryStorageNtBb_12EntryStorage21get_entries_for_spine0s_0Bd_
FN:248,_RNCNCNvXs1_NtNtCsiWUamAnYf7P_15loam_spine_core7storage4sledNtB9_16SledEntryStorageNtBb_12EntryStorage9get_entry00Bd_
FN:119,_RNCNCNvXs_NtNtCsiWUamAnYf7P_15loam_spine_core7storage4sledNtB8_16SledSpineStorageNtBa_12SpineStorage10save_spine00Bc_
FN:122,_RNCNCNvXs_NtNtCsiWUamAnYf7P_15loam_spine_core7storage4sledNtB8_16SledSpineStorageNtBa_12SpineStorage10save_spine0s_0Bc_
FN:137,_RNCNCNvXs_NtNtCsiWUamAnYf7P_15loam_spine_core7storage4sledNtB8_16SledSpineStorageNtBa_12SpineStorage11list_spines00Bc_
FN:130,_RNCNCNvXs_NtNtCsiWUamAnYf7P_15loam_spine_core7storage4sledNtB8_16SledSpineStorageNtBa_12SpineStorage12delete_spine00Bc_
FN:108,_RNCNCNvXs_NtNtCsiWUamAnYf7P_15loam_spine_core7storage4sledNtB8_16SledSpineStorageNtBa_12SpineStorage9get_spine00Bc_
FN:97,_RNCNvMNtNtCsiWUamAnYf7P_15loam_spine_core7storage4sledNtB4_16SledSpineStorage5flush0B8_
FN:72,_RNCNvMNtNtCsiWUamAnYf7P_15loam_spine_core7storage4sledNtB4_16SledSpineStorage9temporary0B8_
FN:75,_RNCNvMNtNtCsiWUamAnYf7P_15loam_spine_core7storage4sledNtB4_16SledSpineStorage9temporarys_0B8_
FN:226,_RNCNvMs0_NtNtCsiWUamAnYf7P_15loam_spine_core7storage4sledNtB7_16SledEntryStorage5flush0Bb_
FN:194,_RNCNvMs0_NtNtCsiWUamAnYf7P_15loam_spine_core7storage4sledNtB7_16SledEntryStorage9temporary0Bb_
FN:200,_RNCNvMs0_NtNtCsiWUamAnYf7P_15loam_spine_core7storage4sledNtB7_16SledEntryStorage9temporarys0_0Bb_
FN:197,_RNCNvMs0_NtNtCsiWUamAnYf7P_15loam_spine_core7storage4sledNtB7_16SledEntryStorage9temporarys_0Bb_
FN:256,_RNCNvXs1_NtNtCsiWUamAnYf7P_15loam_spine_core7storage4sledNtB7_16SledEntryStorageNtB9_12EntryStorage10save_entry0Bb_
FN:275,_RNCNvXs1_NtNtCsiWUamAnYf7P_15loam_spine_core7storage4sledNtB7_16SledEntryStorageNtB9_12EntryStorage12entry_exists0Bb_
FN:286,_RNCNvXs1_NtNtCsiWUamAnYf7P_15loam_spine_core7storage4sledNtB7_16SledEntryStorageNtB9_12EntryStorage21get_entries_for_spine0Bb_
FN:244,_RNCNvXs1_NtNtCsiWUamAnYf7P_15loam_spine_core7storage4sledNtB7_16SledEntryStorageNtB9_12EntryStorage9get_entry0Bb_
FN:116,_RNCNvXs_NtNtCsiWUamAnYf7P_15loam_spine_core7storage4sledNtB6_16SledSpineStorageNtB8_12SpineStorage10save_spine0Ba_
FN:134,_RNCNvXs_NtNtCsiWUamAnYf7P_15loam_spine_core7storage4sledNtB6_16SledSpineStorageNtB8_12SpineStorage11list_spines0Ba_
FN:126,_RNCNvXs_NtNtCsiWUamAnYf7P_15loam_spine_core7storage4sledNtB6_16SledSpineStorageNtB8_12SpineStorage12delete_spine0Ba_
FN:103,_RNCNvXs_NtNtCsiWUamAnYf7P_15loam_spine_core7storage4sledNtB6_16SledSpineStorageNtB8_12SpineStorage9get_spine0Ba_
FNDA:0,_RNCNvMNtNtCskrSqHInbZEk_15loam_spine_core7storage4sledNtB4_16SledSpineStorage5flush0B8_
FNDA:0,_RNCNvMNtNtCskrSqHInbZEk_15loam_spine_core7storage4sledNtB4_16SledSpineStorage9temporary0B8_
FNDA:0,_RNCNvMNtNtCskrSqHInbZEk_15loam_spine_core7storage4sledNtB4_16SledSpineStorage9temporarys_0B8_
FNDA:0,_RNCNvMs0_NtNtCskrSqHInbZEk_15loam_spine_core7storage4sledNtB7_16SledEntryStorage5flush0Bb_
FNDA:0,_RNCNvMs0_NtNtCskrSqHInbZEk_15loam_spine_core7storage4sledNtB7_16SledEntryStorage9temporary0Bb_
FNDA:0,_RNCNvMs0_NtNtCskrSqHInbZEk_15loam_spine_core7storage4sledNtB7_16SledEntryStorage9temporarys0_0Bb_
FNDA:0,_RNCNvMs0_NtNtCskrSqHInbZEk_15loam_spine_core7storage4sledNtB7_16SledEntryStorage9temporarys_0Bb_
FNDA:0,_RINvMNtNtCskrSqHInbZEk_15loam_spine_core7storage4sledNtB3_16SledSpineStorage4openpEB7_
FNDA:0,_RINvMs0_NtNtCskrSqHInbZEk_15loam_spine_core7storage4sledNtB6_16SledEntryStorage4openpEBa_
FNDA:0,_RINvMs2_NtNtCskrSqHInbZEk_15loam_spine_core7storage4sledNtB6_11SledStorage4openpEBa_
FNDA:0,_RNCINvMNtNtCskrSqHInbZEk_15loam_spine_core7storage4sledNtB5_16SledSpineStorage4openpE0B9_
FNDA:0,_RNCINvMNtNtCskrSqHInbZEk_15loam_spine_core7storage4sledNtB5_16SledSpineStorage4openpEs_0B9_
FNDA:0,_RNCINvMs0_NtNtCskrSqHInbZEk_15loam_spine_core7storage4sledNtB8_16SledEntryStorage4openpE0Bc_
FNDA:0,_RNCINvMs0_NtNtCskrSqHInbZEk_15loam_spine_core7storage4sledNtB8_16SledEntryStorage4openpEs0_0Bc_
FNDA:0,_RNCINvMs0_NtNtCskrSqHInbZEk_15loam_spine_core7storage4sledNtB8_16SledEntryStorage4openpEs_0Bc_
FNDA:0,_RNCNCNvXs1_NtNtCskrSqHInbZEk_15loam_spine_core7storage4sledNtB9_16SledEntryStorageNtBb_12EntryStorage10save_entry00Bd_
FNDA:0,_RNCNCNvXs1_NtNtCskrSqHInbZEk_15loam_spine_core7storage4sledNtB9_16SledEntryStorageNtBb_12EntryStorage10save_entry0s0_0Bd_
FNDA:0,_RNCNCNvXs1_NtNtCskrSqHInbZEk_15loam_spine_core7storage4sledNtB9_16SledEntryStorageNtBb_12EntryStorage10save_entry0s_0Bd_
FNDA:0,_RNCNCNvXs1_NtNtCskrSqHInbZEk_15loam_spine_core7storage4sledNtB9_16SledEntryStorageNtBb_12EntryStorage12entry_exists00Bd_
FNDA:0,_RNCNCNvXs1_NtNtCskrSqHInbZEk_15loam_spine_core7storage4sledNtB9_16SledEntryStorageNtBb_12EntryStorage21get_entries_for_spine00Bd_
FNDA:0,_RNCNCNvXs1_NtNtCskrSqHInbZEk_15loam_spine_core7storage4sledNtB9_16SledEntryStorageNtBb_12EntryStorage21get_entries_for_spine0s0_0Bd_
FNDA:0,_RNCNCNvXs1_NtNtCskrSqHInbZEk_15loam_spine_core7storage4sledNtB9_16SledEntryStorageNtBb_12EntryStorage21get_entries_for_spine0s_0Bd_
FNDA:0,_RNCNCNvXs1_NtNtCskrSqHInbZEk_15loam_spine_core7storage4sledNtB9_16SledEntryStorageNtBb_12EntryStorage9get_entry00Bd_
FNDA:0,_RNCNCNvXs_NtNtCskrSqHInbZEk_15loam_spine_core7storage4sledNtB8_16SledSpineStorageNtBa_12SpineStorage10save_spine00Bc_
FNDA:0,_RNCNCNvXs_NtNtCskrSqHInbZEk_15loam_spine_core7storage4sledNtB8_16SledSpineStorageNtBa_12SpineStorage10save_spine0s_0Bc_
FNDA:0,_RNCNCNvXs_NtNtCskrSqHInbZEk_15loam_spine_core7storage4sledNtB8_16SledSpineStorageNtBa_12SpineStorage11list_spines00Bc_
FNDA:0,_RNCNCNvXs_NtNtCskrSqHInbZEk_15loam_spine_core7storage4sledNtB8_16SledSpineStorageNtBa_12SpineStorage12delete_spine00Bc_
FNDA:0,_RNCNCNvXs_NtNtCskrSqHInbZEk_15loam_spine_core7storage4sledNtB8_16SledSpineStorageNtBa_12SpineStorage9get_spine00Bc_
FNDA:0,_RNCNvXs1_NtNtCskrSqHInbZEk_15loam_spine_core7storage4sledNtB7_16SledEntryStorageNtB9_12EntryStorage10save_entry0Bb_
FNDA:0,_RNCNvXs1_NtNtCskrSqHInbZEk_15loam_spine_core7storage4sledNtB7_16SledEntryStorageNtB9_12EntryStorage12entry_exists0Bb_
FNDA:0,_RNCNvXs1_NtNtCskrSqHInbZEk_15loam_spine_core7storage4sledNtB7_16SledEntryStorageNtB9_12EntryStorage21get_entries_for_spine0Bb_
FNDA:0,_RNCNvXs1_NtNtCskrSqHInbZEk_15loam_spine_core7storage4sledNtB7_16SledEntryStorageNtB9_12EntryStorage9get_entry0Bb_
FNDA:0,_RNCNvXs_NtNtCskrSqHInbZEk_15loam_spine_core7storage4sledNtB6_16SledSpineStorageNtB8_12SpineStorage10save_spine0Ba_
FNDA:0,_RNCNvXs_NtNtCskrSqHInbZEk_15loam_spine_core7storage4sledNtB6_16SledSpineStorageNtB8_12SpineStorage11list_spines0Ba_
FNDA:0,_RNCNvXs_NtNtCskrSqHInbZEk_15loam_spine_core7storage4sledNtB6_16SledSpineStorageNtB8_12SpineStorage12delete_spine0Ba_
FNDA:0,_RNCNvXs_NtNtCskrSqHInbZEk_15loam_spine_core7storage4sledNtB6_16SledSpineStorageNtB8_12SpineStorage9get_spine0Ba_
FNDA:5,_RNvMNtNtCsiWUamAnYf7P_15loam_spine_core7storage4sledNtB2_16SledSpineStorage11spine_count
FNDA:2,_RNvMNtNtCsiWUamAnYf7P_15loam_spine_core7storage4sledNtB2_16SledSpineStorage5flush
FNDA:3,_RNvMNtNtCsiWUamAnYf7P_15loam_spine_core7storage4sledNtB2_16SledSpineStorage9temporary
FNDA:2,_RNvMs0_NtNtCsiWUamAnYf7P_15loam_spine_core7storage4sledNtB5_16SledEntryStorage11entry_count
FNDA:10,_RNvMs0_NtNtCsiWUamAnYf7P_15loam_spine_core7storage4sledNtB5_16SledEntryStorage14make_index_key
FNDA:2,_RNvMs0_NtNtCsiWUamAnYf7P_15loam_spine_core7storage4sledNtB5_16SledEntryStorage5flush
FNDA:4,_RNvMs0_NtNtCsiWUamAnYf7P_15loam_spine_core7storage4sledNtB5_16SledEntryStorage9temporary
FNDA:2,_RNvMs2_NtNtCsiWUamAnYf7P_15loam_spine_core7storage4sledNtB5_11SledStorage5flush
FNDA:2,_RNvMs2_NtNtCsiWUamAnYf7P_15loam_spine_core7storage4sledNtB5_11SledStorage9temporary
FNDA:7,_RNvXs1_NtNtCsiWUamAnYf7P_15loam_spine_core7storage4sledNtB5_16SledEntryStorageNtB7_12EntryStorage10save_entry
FNDA:2,_RNvXs1_NtNtCsiWUamAnYf7P_15loam_spine_core7storage4sledNtB5_16SledEntryStorageNtB7_12EntryStorage12entry_exists
FNDA:3,_RNvXs1_NtNtCsiWUamAnYf7P_15loam_spine_core7storage4sledNtB5_16SledEntryStorageNtB7_12EntryStorage21get_entries_for_spine
FNDA:2,_RNvXs1_NtNtCsiWUamAnYf7P_15loam_spine_core7storage4sledNtB5_16SledEntryStorageNtB7_12EntryStorage9get_entry
FNDA:13,_RNvXs_NtNtCsiWUamAnYf7P_15loam_spine_core7storage4sledNtB4_16SledSpineStorageNtB6_12SpineStorage10save_spine
FNDA:1,_RNvXs_NtNtCsiWUamAnYf7P_15loam_spine_core7storage4sledNtB4_16SledSpineStorageNtB6_12SpineStorage11list_spines
FNDA:1,_RNvXs_NtNtCsiWUamAnYf7P_15loam_spine_core7storage4sledNtB4_16SledSpineStorageNtB6_12SpineStorage12delete_spine
FNDA:3,_RNvXs_NtNtCsiWUamAnYf7P_15loam_spine_core7storage4sledNtB4_16SledSpineStorageNtB6_12SpineStorage9get_spine
FNDA:2,_RINvMNtNtCsiWUamAnYf7P_15loam_spine_core7storage4sledNtB3_16SledSpineStorage4openNtNtCseJswNlh1fGO_3std4path7PathBufEB7_
FNDA:2,_RINvMs0_NtNtCsiWUamAnYf7P_15loam_spine_core7storage4sledNtB6_16SledEntryStorage4openNtNtCseJswNlh1fGO_3std4path7PathBufEBa_
FNDA:2,_RINvMs2_NtNtCsiWUamAnYf7P_15loam_spine_core7storage4sledNtB6_11SledStorage4openRNtNtCseJswNlh1fGO_3std4path7PathBufEBa_
FNDA:0,_RNCINvMNtNtCsiWUamAnYf7P_15loam_spine_core7storage4sledNtB5_16SledSpineStorage4openNtNtCseJswNlh1fGO_3std4path7PathBufE0B9_
FNDA:0,_RNCINvMNtNtCsiWUamAnYf7P_15loam_spine_core7storage4sledNtB5_16SledSpineStorage4openNtNtCseJswNlh1fGO_3std4path7PathBufEs_0B9_
FNDA:0,_RNCINvMs0_NtNtCsiWUamAnYf7P_15loam_spine_core7storage4sledNtB8_16SledEntryStorage4openNtNtCseJswNlh1fGO_3std4path7PathBufE0Bc_
FNDA:0,_RNCINvMs0_NtNtCsiWUamAnYf7P_15loam_spine_core7storage4sledNtB8_16SledEntryStorage4openNtNtCseJswNlh1fGO_3std4path7PathBufEs0_0Bc_
FNDA:0,_RNCINvMs0_NtNtCsiWUamAnYf7P_15loam_spine_core7storage4sledNtB8_16SledEntryStorage4openNtNtCseJswNlh1fGO_3std4path7PathBufEs_0Bc_
FNDA:0,_RNCNCNvXs1_NtNtCsiWUamAnYf7P_15loam_spine_core7storage4sledNtB9_16SledEntryStorageNtBb_12EntryStorage10save_entry00Bd_
FNDA:0,_RNCNCNvXs1_NtNtCsiWUamAnYf7P_15loam_spine_core7storage4sledNtB9_16SledEntryStorageNtBb_12EntryStorage10save_entry0s0_0Bd_
FNDA:0,_RNCNCNvXs1_NtNtCsiWUamAnYf7P_15loam_spine_core7storage4sledNtB9_16SledEntryStorageNtBb_12EntryStorage10save_entry0s_0Bd_
FNDA:0,_RNCNCNvXs1_NtNtCsiWUamAnYf7P_15loam_spine_core7storage4sledNtB9_16SledEntryStorageNtBb_12EntryStorage12entry_exists00Bd_
FNDA:0,_RNCNCNvXs1_NtNtCsiWUamAnYf7P_15loam_spine_core7storage4sledNtB9_16SledEntryStorageNtBb_12EntryStorage21get_entries_for_spine00Bd_
FNDA:0,_RNCNCNvXs1_NtNtCsiWUamAnYf7P_15loam_spine_core7storage4sledNtB9_16SledEntryStorageNtBb_12EntryStorage21get_entries_for_spine0s0_0Bd_
FNDA:0,_RNCNCNvXs1_NtNtCsiWUamAnYf7P_15loam_spine_core7storage4sledNtB9_16SledEntryStorageNtBb_12EntryStorage21get_entries_for_spine0s_0Bd_
FNDA:0,_RNCNCNvXs1_NtNtCsiWUamAnYf7P_15loam_spine_core7storage4sledNtB9_16SledEntryStorageNtBb_12EntryStorage9get_entry00Bd_
FNDA:0,_RNCNCNvXs_NtNtCsiWUamAnYf7P_15loam_spine_core7storage4sledNtB8_16SledSpineStorageNtBa_12SpineStorage10save_spine00Bc_
FNDA:0,_RNCNCNvXs_NtNtCsiWUamAnYf7P_15loam_spine_core7storage4sledNtB8_16SledSpineStorageNtBa_12SpineStorage10save_spine0s_0Bc_
FNDA:0,_RNCNCNvXs_NtNtCsiWUamAnYf7P_15loam_spine_core7storage4sledNtB8_16SledSpineStorageNtBa_12SpineStorage11list_spines00Bc_
FNDA:0,_RNCNCNvXs_NtNtCsiWUamAnYf7P_15loam_spine_core7storage4sledNtB8_16SledSpineStorageNtBa_12SpineStorage12delete_spine00Bc_
FNDA:0,_RNCNCNvXs_NtNtCsiWUamAnYf7P_15loam_spine_core7storage4sledNtB8_16SledSpineStorageNtBa_12SpineStorage9get_spine00Bc_
FNDA:0,_RNCNvMNtNtCsiWUamAnYf7P_15loam_spine_core7storage4sledNtB4_16SledSpineStorage5flush0B8_
FNDA:0,_RNCNvMNtNtCsiWUamAnYf7P_15loam_spine_core7storage4sledNtB4_16SledSpineStorage9temporary0B8_
FNDA:0,_RNCNvMNtNtCsiWUamAnYf7P_15loam_spine_core7storage4sledNtB4_16SledSpineStorage9temporarys_0B8_
FNDA:0,_RNCNvMs0_NtNtCsiWUamAnYf7P_15loam_spine_core7storage4sledNtB7_16SledEntryStorage5flush0Bb_
FNDA:0,_RNCNvMs0_NtNtCsiWUamAnYf7P_15loam_spine_core7storage4sledNtB7_16SledEntryStorage9temporary0Bb_
FNDA:0,_RNCNvMs0_NtNtCsiWUamAnYf7P_15loam_spine_core7storage4sledNtB7_16SledEntryStorage9temporarys0_0Bb_
FNDA:0,_RNCNvMs0_NtNtCsiWUamAnYf7P_15loam_spine_core7storage4sledNtB7_16SledEntryStorage9temporarys_0Bb_
FNDA:7,_RNCNvXs1_NtNtCsiWUamAnYf7P_15loam_spine_core7storage4sledNtB7_16SledEntryStorageNtB9_12EntryStorage10save_entry0Bb_
FNDA:2,_RNCNvXs1_NtNtCsiWUamAnYf7P_15loam_spine_core7storage4sledNtB7_16SledEntryStorageNtB9_12EntryStorage12entry_exists0Bb_
FNDA:3,_RNCNvXs1_NtNtCsiWUamAnYf7P_15loam_spine_core7storage4sledNtB7_16SledEntryStorageNtB9_12EntryStorage21get_entries_for_spine0Bb_
FNDA:2,_RNCNvXs1_NtNtCsiWUamAnYf7P_15loam_spine_core7storage4sledNtB7_16SledEntryStorageNtB9_12EntryStorage9get_entry0Bb_
FNDA:13,_RNCNvXs_NtNtCsiWUamAnYf7P_15loam_spine_core7storage4sledNtB6_16SledSpineStorageNtB8_12SpineStorage10save_spine0Ba_
FNDA:1,_RNCNvXs_NtNtCsiWUamAnYf7P_15loam_spine_core7storage4sledNtB6_16SledSpineStorageNtB8_12SpineStorage11list_spines0Ba_
FNDA:1,_RNCNvXs_NtNtCsiWUamAnYf7P_15loam_spine_core7storage4sledNtB6_16SledSpineStorageNtB8_12SpineStorage12delete_spine0Ba_
FNDA:3,_RNCNvXs_NtNtCsiWUamAnYf7P_15loam_spine_core7storage4sledNtB6_16SledSpineStorageNtB8_12SpineStorage9get_spine0Ba_
FNF:53
FNH:28
DA:53,2
DA:54,2
DA:55,2
DA:56,2
DA:57,2
DA:58,2
DA:59,2
DA:68,3
DA:69,3
DA:70,3
DA:71,3
DA:72,3
DA:73,3
DA:74,3
DA:75,3
DA:76,3
DA:77,3
DA:83,5
DA:84,5
DA:85,5
DA:94,2
DA:95,2
DA:96,2
DA:97,2
DA:98,2
DA:99,2
DA:103,3
DA:104,3
DA:105,3
DA:106,2
DA:107,2
DA:108,2
DA:109,2
DA:111,1
DA:112,0
DA:114,3
DA:116,13
DA:117,13
DA:118,13
DA:119,13
DA:120,13
DA:121,13
DA:122,13
DA:123,13
DA:124,13
DA:126,1
DA:127,1
DA:128,1
DA:129,1
DA:130,1
DA:131,1
DA:132,1
DA:134,1
DA:135,1
DA:136,2
DA:137,1
DA:138,1
DA:139,1
DA:140,1
DA:141,1
DA:142,1
DA:144,1
DA:145,1
DA:168,2
DA:169,2
DA:170,2
DA:171,2
DA:172,2
DA:173,2
DA:174,2
DA:175,2
DA:176,2
DA:177,2
DA:178,2
DA:179,2
DA:180,2
DA:181,2
DA:190,4
DA:191,4
DA:192,4
DA:193,4
DA:194,4
DA:195,4
DA:196,4
DA:197,4
DA:198,4
DA:199,4
DA:200,4
DA:201,4
DA:202,4
DA:203,4
DA:204,4
DA:205,4
DA:206,4
DA:212,2
DA:213,2
DA:214,2
DA:223,2
DA:224,2
DA:225,2
DA:226,2
DA:227,2
DA:228,2
DA:235,10
DA:236,10
DA:237,10
DA:238,10
DA:239,10
DA:240,10
DA:244,2
DA:245,2
DA:246,2
DA:247,2
DA:248,2
DA:249,2
DA:251,0
DA:252,0
DA:254,2
DA:256,7
DA:257,7
DA:258,7
DA:259,7
DA:262,7
DA:263,7
DA:264,7
DA:267,7
DA:268,7
DA:269,7
DA:270,7
DA:272,7
DA:273,7
DA:275,2
DA:276,2
DA:277,2
DA:278,2
DA:279,2
DA:281,3
DA:282,3
DA:283,3
DA:284,3
DA:285,3
DA:286,3
DA:287,3
DA:288,3
DA:291,8
DA:292,8
DA:293,1
DA:294,7
DA:296,7
DA:299,7
DA:300,0
DA:301,7
DA:304,7
DA:305,7
DA:306,7
DA:307,7
DA:309,7
DA:310,7
DA:311,7
DA:312,0
DA:315,3
DA:316,3
DA:359,2
DA:360,2
DA:361,2
DA:362,2
DA:363,2
DA:364,2
DA:373,2
DA:374,2
DA:375,2
DA:376,2
DA:377,2
DA:387,2
DA:388,2
DA:389,2
DA:390,2
DA:391,2
BRF:0
BRH:0
LF:211
LH:181
end_of_record
SF:/path/to/ecoPrimals/phase2/loamSpine/crates/loam-spine-core/src/storage/tests.rs
FN:15,_RNvNtNtNtCsiWUamAnYf7P_15loam_spine_core7storage5tests5tests17create_test_spine
FN:104,_RNvNtNtNtCsiWUamAnYf7P_15loam_spine_core7storage5tests5testss_17entry_spine_index
FN:67,_RNvNtNtNtCsiWUamAnYf7P_15loam_spine_core7storage5tests5testss_18entry_storage_crud
FN:22,_RNvNtNtNtCsiWUamAnYf7P_15loam_spine_core7storage5tests5testss_18spine_storage_crud
FN:387,_RNvNtNtNtCsiWUamAnYf7P_15loam_spine_core7storage5tests5testss_19large_entry_dataset
FN:530,_RNvNtNtNtCsiWUamAnYf7P_15loam_spine_core7storage5tests5testss_20storage_update_spine
FN:361,_RNvNtNtNtCsiWUamAnYf7P_15loam_spine_core7storage5tests5testss_21concurrent_entry_save
FN:336,_RNvNtNtNtCsiWUamAnYf7P_15loam_spine_core7storage5tests5testss_21concurrent_spine_save
FN:292,_RNvNtNtNtCsiWUamAnYf7P_15loam_spine_core7storage5tests5testss_21sled_combined_storage
FN:418,_RNvNtNtNtCsiWUamAnYf7P_15loam_spine_core7storage5tests5testss_22entry_range_edge_cases
FN:241,_RNvNtNtNtCsiWUamAnYf7P_15loam_spine_core7storage5tests5testss_22sled_entry_spine_index
FN:204,_RNvNtNtNtCsiWUamAnYf7P_15loam_spine_core7storage5tests5testss_23sled_entry_storage_crud
FN:159,_RNvNtNtNtCsiWUamAnYf7P_15loam_spine_core7storage5tests5testss_23sled_spine_storage_crud
FN:470,_RNvNtNtNtCsiWUamAnYf7P_15loam_spine_core7storage5tests5testss_24sled_storage_persistence
FN:497,_RNvNtNtNtCsiWUamAnYf7P_15loam_spine_core7storage5tests5testss_26sled_concurrent_operations
FN:521,_RNvNtNtNtCsiWUamAnYf7P_15loam_spine_core7storage5tests5testss_26storage_delete_nonexistent
FN:369,_RNCNCNvNtNtNtCsiWUamAnYf7P_15loam_spine_core7storage5tests5testss_21concurrent_entry_save00Bb_
FN:343,_RNCNCNvNtNtNtCsiWUamAnYf7P_15loam_spine_core7storage5tests5testss_21concurrent_spine_save00Bb_
FN:504,_RNCNCNvNtNtNtCsiWUamAnYf7P_15loam_spine_core7storage5tests5testss_26sled_concurrent_operations0s_0Bb_
FN:104,_RNCNvNtNtNtCsiWUamAnYf7P_15loam_spine_core7storage5tests5testss_17entry_spine_index0B9_
FN:67,_RNCNvNtNtNtCsiWUamAnYf7P_15loam_spine_core7storage5tests5testss_18entry_storage_crud0B9_
FN:22,_RNCNvNtNtNtCsiWUamAnYf7P_15loam_spine_core7storage5tests5testss_18spine_storage_crud0B9_
FN:387,_RNCNvNtNtNtCsiWUamAnYf7P_15loam_spine_core7storage5tests5testss_19large_entry_dataset0B9_
FN:530,_RNCNvNtNtNtCsiWUamAnYf7P_15loam_spine_core7storage5tests5testss_20storage_update_spine0B9_
FN:361,_RNCNvNtNtNtCsiWUamAnYf7P_15loam_spine_core7storage5tests5testss_21concurrent_entry_save0B9_
FN:336,_RNCNvNtNtNtCsiWUamAnYf7P_15loam_spine_core7storage5tests5testss_21concurrent_spine_save0B9_
FN:292,_RNCNvNtNtNtCsiWUamAnYf7P_15loam_spine_core7storage5tests5testss_21sled_combined_storage0B9_
FN:418,_RNCNvNtNtNtCsiWUamAnYf7P_15loam_spine_core7storage5tests5testss_22entry_range_edge_cases0B9_
FN:241,_RNCNvNtNtNtCsiWUamAnYf7P_15loam_spine_core7storage5tests5testss_22sled_entry_spine_index0B9_
FN:204,_RNCNvNtNtNtCsiWUamAnYf7P_15loam_spine_core7storage5tests5testss_23sled_entry_storage_crud0B9_
FN:159,_RNCNvNtNtNtCsiWUamAnYf7P_15loam_spine_core7storage5tests5testss_23sled_spine_storage_crud0B9_
FN:470,_RNCNvNtNtNtCsiWUamAnYf7P_15loam_spine_core7storage5tests5testss_24sled_storage_persistence0B9_
FN:497,_RNCNvNtNtNtCsiWUamAnYf7P_15loam_spine_core7storage5tests5testss_26sled_concurrent_operations0B9_
FN:521,_RNCNvNtNtNtCsiWUamAnYf7P_15loam_spine_core7storage5tests5testss_26storage_delete_nonexistent0B9_
FNDA:5,_RNvNtNtNtCsiWUamAnYf7P_15loam_spine_core7storage5tests5tests17create_test_spine
FNDA:1,_RNvNtNtNtCsiWUamAnYf7P_15loam_spine_core7storage5tests5testss_17entry_spine_index
FNDA:1,_RNvNtNtNtCsiWUamAnYf7P_15loam_spine_core7storage5tests5testss_18entry_storage_crud
FNDA:1,_RNvNtNtNtCsiWUamAnYf7P_15loam_spine_core7storage5tests5testss_18spine_storage_crud
FNDA:1,_RNvNtNtNtCsiWUamAnYf7P_15loam_spine_core7storage5tests5testss_19large_entry_dataset
FNDA:1,_RNvNtNtNtCsiWUamAnYf7P_15loam_spine_core7storage5tests5testss_20storage_update_spine
FNDA:1,_RNvNtNtNtCsiWUamAnYf7P_15loam_spine_core7storage5tests5testss_21concurrent_entry_save
FNDA:1,_RNvNtNtNtCsiWUamAnYf7P_15loam_spine_core7storage5tests5testss_21concurrent_spine_save
FNDA:1,_RNvNtNtNtCsiWUamAnYf7P_15loam_spine_core7storage5tests5testss_21sled_combined_storage
FNDA:1,_RNvNtNtNtCsiWUamAnYf7P_15loam_spine_core7storage5tests5testss_22entry_range_edge_cases
FNDA:1,_RNvNtNtNtCsiWUamAnYf7P_15loam_spine_core7storage5tests5testss_22sled_entry_spine_index
FNDA:1,_RNvNtNtNtCsiWUamAnYf7P_15loam_spine_core7storage5tests5testss_23sled_entry_storage_crud
FNDA:1,_RNvNtNtNtCsiWUamAnYf7P_15loam_spine_core7storage5tests5testss_23sled_spine_storage_crud
FNDA:1,_RNvNtNtNtCsiWUamAnYf7P_15loam_spine_core7storage5tests5testss_24sled_storage_persistence
FNDA:1,_RNvNtNtNtCsiWUamAnYf7P_15loam_spine_core7storage5tests5testss_26sled_concurrent_operations
FNDA:1,_RNvNtNtNtCsiWUamAnYf7P_15loam_spine_core7storage5tests5testss_26storage_delete_nonexistent
FNDA:20,_RNCNCNvNtNtNtCsiWUamAnYf7P_15loam_spine_core7storage5tests5testss_21concurrent_entry_save00Bb_
FNDA:20,_RNCNCNvNtNtNtCsiWUamAnYf7P_15loam_spine_core7storage5tests5testss_21concurrent_spine_save00Bb_
FNDA:10,_RNCNCNvNtNtNtCsiWUamAnYf7P_15loam_spine_core7storage5tests5testss_26sled_concurrent_operations0s_0Bb_
FNDA:1,_RNCNvNtNtNtCsiWUamAnYf7P_15loam_spine_core7storage5tests5testss_17entry_spine_index0B9_
FNDA:1,_RNCNvNtNtNtCsiWUamAnYf7P_15loam_spine_core7storage5tests5testss_18entry_storage_crud0B9_
FNDA:1,_RNCNvNtNtNtCsiWUamAnYf7P_15loam_spine_core7storage5tests5testss_18spine_storage_crud0B9_
FNDA:1,_RNCNvNtNtNtCsiWUamAnYf7P_15loam_spine_core7storage5tests5testss_19large_entry_dataset0B9_
FNDA:1,_RNCNvNtNtNtCsiWUamAnYf7P_15loam_spine_core7storage5tests5testss_20storage_update_spine0B9_
FNDA:1,_RNCNvNtNtNtCsiWUamAnYf7P_15loam_spine_core7storage5tests5testss_21concurrent_entry_save0B9_
FNDA:1,_RNCNvNtNtNtCsiWUamAnYf7P_15loam_spine_core7storage5tests5testss_21concurrent_spine_save0B9_
FNDA:1,_RNCNvNtNtNtCsiWUamAnYf7P_15loam_spine_core7storage5tests5testss_21sled_combined_storage0B9_
FNDA:1,_RNCNvNtNtNtCsiWUamAnYf7P_15loam_spine_core7storage5tests5testss_22entry_range_edge_cases0B9_
FNDA:1,_RNCNvNtNtNtCsiWUamAnYf7P_15loam_spine_core7storage5tests5testss_22sled_entry_spine_index0B9_
FNDA:1,_RNCNvNtNtNtCsiWUamAnYf7P_15loam_spine_core7storage5tests5testss_23sled_entry_storage_crud0B9_
FNDA:1,_RNCNvNtNtNtCsiWUamAnYf7P_15loam_spine_core7storage5tests5testss_23sled_spine_storage_crud0B9_
FNDA:1,_RNCNvNtNtNtCsiWUamAnYf7P_15loam_spine_core7storage5tests5testss_24sled_storage_persistence0B9_
FNDA:1,_RNCNvNtNtNtCsiWUamAnYf7P_15loam_spine_core7storage5tests5testss_26sled_concurrent_operations0B9_
FNDA:1,_RNCNvNtNtNtCsiWUamAnYf7P_15loam_spine_core7storage5tests5testss_26storage_delete_nonexistent0B9_
FNF:34
FNH:34
DA:15,5
DA:16,5
DA:17,5
DA:18,5
DA:19,5
DA:22,1
DA:23,1
DA:24,1
DA:25,1
DA:26,1
DA:27,1
DA:28,1
DA:29,1
DA:30,1
DA:31,1
DA:32,1
DA:33,1
DA:34,1
DA:35,1
DA:36,1
DA:37,1
DA:38,1
DA:39,1
DA:40,1
DA:41,1
DA:42,1
DA:43,1
DA:44,1
DA:45,1
DA:46,1
DA:47,1
DA:48,1
DA:49,1
DA:50,1
DA:51,1
DA:52,1
DA:53,1
DA:54,1
DA:55,1
DA:56,1
DA:57,1
DA:58,1
DA:59,1
DA:60,1
DA:61,1
DA:62,1
DA:63,1
DA:64,1
DA:67,1
DA:68,1
DA:69,1
DA:70,1
DA:71,1
DA:72,1
DA:73,1
DA:74,1
DA:75,1
DA:76,1
DA:77,1
DA:78,1
DA:79,1
DA:80,1
DA:81,1
DA:82,1
DA:83,1
DA:84,1
DA:85,1
DA:86,1
DA:87,1
DA:88,1
DA:89,1
DA:90,1
DA:91,1
DA:92,1
DA:93,1
DA:94,1
DA:95,1
DA:96,1
DA:97,1
DA:98,1
DA:99,1
DA:100,1
DA:101,1
DA:104,1
DA:105,1
DA:106,1
DA:107,1
DA:108,1
DA:109,1
DA:110,1
DA:111,1
DA:112,6
DA:113,5
DA:114,1
DA:115,1
DA:116,4
DA:117,4
DA:118,4
DA:119,4
DA:120,4
DA:121,4
DA:122,4
DA:123,1
DA:124,1
DA:125,5
DA:126,5
DA:127,5
DA:128,5
DA:129,5
DA:130,5
DA:131,1
DA:132,1
DA:133,1
DA:134,1
DA:135,1
DA:136,1
DA:137,1
DA:138,1
DA:139,1
DA:140,1
DA:141,1
DA:142,1
DA:143,1
DA:144,1
DA:145,1
DA:146,1
DA:147,1
DA:148,1
DA:149,1
DA:150,1
DA:151,1
DA:152,1
DA:159,1
DA:160,1
DA:161,1
DA:162,1
DA:163,1
DA:164,1
DA:165,1
DA:166,1
DA:167,1
DA:168,1
DA:169,1
DA:170,1
DA:171,1
DA:172,1
DA:173,1
DA:174,1
DA:175,1
DA:176,1
DA:177,1
DA:178,1
DA:179,1
DA:180,1
DA:181,1
DA:182,1
DA:183,1
DA:184,1
DA:185,1
DA:186,1
DA:187,1
DA:188,1
DA:189,1
DA:190,1
DA:191,1
DA:192,1
DA:193,1
DA:194,1
DA:195,1
DA:196,1
DA:197,1
DA:198,1
DA:199,1
DA:200,1
DA:201,1
DA:204,1
DA:205,1
DA:206,1
DA:207,1
DA:208,1
DA:209,1
DA:210,1
DA:211,1
DA:212,1
DA:213,1
DA:214,1
DA:215,1
DA:216,1
DA:217,1
DA:218,1
DA:219,1
DA:220,1
DA:221,1
DA:222,1
DA:223,1
DA:224,1
DA:225,1
DA:226,1
DA:227,1
DA:228,1
DA:229,1
DA:230,1
DA:231,1
DA:232,1
DA:233,1
DA:234,1
DA:235,1
DA:236,1
DA:237,1
DA:238,1
DA:241,1
DA:242,1
DA:243,1
DA:244,1
DA:245,1
DA:246,1
DA:247,1
DA:248,1
DA:249,6
DA:250,5
DA:251,1
DA:252,1
DA:253,4
DA:254,4
DA:255,4
DA:256,4
DA:257,4
DA:258,4
DA:259,4
DA:260,1
DA:261,1
DA:262,5
DA:263,5
DA:264,5
DA:265,5
DA:266,5
DA:267,5
DA:268,1
DA:269,1
DA:270,1
DA:271,1
DA:272,1
DA:273,1
DA:274,1
DA:275,1
DA:276,1
DA:277,1
DA:278,1
DA:279,1
DA:280,1
DA:281,1
DA:282,1
DA:283,1
DA:284,1
DA:285,1
DA:286,1
DA:287,1
DA:288,1
DA:289,1
DA:292,1
DA:293,1
DA:294,1
DA:295,1
DA:296,1
DA:297,1
DA:298,1
DA:299,1
DA:300,1
DA:301,1
DA:302,1
DA:303,1
DA:304,1
DA:305,1
DA:306,1
DA:307,1
DA:308,1
DA:309,1
DA:310,1
DA:311,1
DA:312,1
DA:313,1
DA:314,1
DA:315,1
DA:316,1
DA:317,1
DA:318,1
DA:319,1
DA:320,1
DA:321,1
DA:322,1
DA:323,1
DA:324,1
DA:325,1
DA:326,1
DA:327,1
DA:328,1
DA:329,1
DA:330,1
DA:331,1
DA:332,1
DA:333,1
DA:336,1
DA:337,1
DA:338,1
DA:339,1
DA:340,1
DA:341,21
DA:342,20
DA:343,20
DA:344,20
DA:345,20
DA:346,20
DA:347,20
DA:348,20
DA:349,20
DA:350,20
DA:351,1
DA:352,1
DA:353,21
DA:354,20
DA:355,1
DA:356,1
DA:357,1
DA:358,1
DA:361,1
DA:362,1
DA:363,1
DA:364,1
DA:365,1
DA:366,1
DA:367,21
DA:368,20
DA:369,20
DA:370,20
DA:371,20
DA:372,20
DA:373,20
DA:374,20
DA:375,20
DA:376,20
DA:377,1
DA:378,1
DA:379,21
DA:380,20
DA:381,1
DA:382,1
DA:383,1
DA:384,1
DA:387,1
DA:388,1
DA:389,1
DA:390,1
DA:391,1
DA:392,1
DA:393,1001
DA:394,1000
DA:395,1000
DA:396,1000
DA:397,1000
DA:398,1000
DA:399,1000
DA:400,1000
DA:401,1000
DA:402,1000
DA:403,1000
DA:404,1000
DA:405,1000
DA:406,1
DA:407,1
DA:408,1
DA:409,1
DA:410,1
DA:411,1
DA:412,1
DA:413,1
DA:414,1
DA:415,1
DA:418,1
DA:419,1
DA:420,1
DA:421,1
DA:422,1
DA:423,1
DA:424,11
DA:425,10
DA:426,10
DA:427,10
DA:428,10
DA:429,10
DA:430,10
DA:431,10
DA:432,10
DA:433,10
DA:434,10
DA:435,10
DA:436,10
DA:437,1
DA:438,1
DA:439,1
DA:440,1
DA:441,1
DA:442,1
DA:443,1
DA:444,1
DA:445,1
DA:446,1
DA:447,1
DA:448,1
DA:449,1
DA:450,1
DA:451,1
DA:452,1
DA:453,1
DA:454,1
DA:455,1
DA:456,1
DA:457,1
DA:458,1
DA:459,1
DA:460,1
DA:461,1
DA:462,1
DA:463,1
DA:464,1
DA:465,1
DA:466,1
DA:467,1
DA:470,1
DA:471,1
DA:472,1
DA:473,1
DA:474,1
DA:475,1
DA:476,1
DA:477,1
DA:478,1
DA:479,1
DA:480,1
DA:481,1
DA:482,1
DA:483,1
DA:484,1
DA:485,1
DA:486,1
DA:487,1
DA:488,1
DA:489,1
DA:490,1
DA:491,1
DA:492,1
DA:493,1
DA:494,1
DA:497,1
DA:498,1
DA:499,1
DA:500,1
DA:501,1
DA:502,11
DA:503,10
DA:504,10
DA:505,10
DA:506,10
DA:507,10
DA:508,10
DA:509,10
DA:510,10
DA:511,10
DA:512,1
DA:513,11
DA:514,10
DA:515,1
DA:516,1
DA:517,1
DA:518,1
DA:521,1
DA:522,1
DA:523,1
DA:524,1
DA:525,1
DA:526,1
DA:527,1
DA:530,1
DA:531,1
DA:532,1
DA:533,1
DA:534,1
DA:535,1
DA:536,1
DA:537,1
DA:538,1
DA:539,1
DA:540,1
DA:541,1
DA:542,1
DA:543,1
DA:544,1
DA:545,1
DA:546,1
DA:547,1
DA:548,1
DA:549,1
DA:550,1
DA:551,1
DA:552,1
DA:553,1
DA:554,1
DA:555,1
DA:556,1
BRF:0
BRH:0
LF:916
LH:916
end_of_record
SF:/path/to/ecoPrimals/phase2/loamSpine/crates/loam-spine-core/src/traits/cli_signer.rs
FN:82,_RINvMNtNtCskrSqHInbZEk_15loam_spine_core6traits10cli_signerNtB3_9CliSigner3newppEB7_
FN:246,_RINvMs0_NtNtCskrSqHInbZEk_15loam_spine_core6traits10cli_signerNtB6_11CliVerifier3newpEBa_
FN:98,_RNCINvMNtNtCskrSqHInbZEk_15loam_spine_core6traits10cli_signerNtB5_9CliSigner3newppE0B9_
FN:316,_RNCNCNvXs1_NtNtCskrSqHInbZEk_15loam_spine_core6traits10cli_signerNtB9_11CliVerifierNtNtBb_7signing8Verifier12verify_entry00Bd_
FN:280,_RNCNCNvXs1_NtNtCskrSqHInbZEk_15loam_spine_core6traits10cli_signerNtB9_11CliVerifierNtNtBb_7signing8Verifier6verify00Bd_
FN:295,_RNCNCNvXs1_NtNtCskrSqHInbZEk_15loam_spine_core6traits10cli_signerNtB9_11CliVerifierNtNtBb_7signing8Verifier6verify0s0_0Bd_
FN:281,_RNCNCNvXs1_NtNtCskrSqHInbZEk_15loam_spine_core6traits10cli_signerNtB9_11CliVerifierNtNtBb_7signing8Verifier6verify0s_0Bd_
FN:184,_RNCNCNvXs_NtNtCskrSqHInbZEk_15loam_spine_core6traits10cli_signerNtB8_9CliSignerNtNtBa_7signing6Signer4sign00Bc_
FN:213,_RNCNCNvXs_NtNtCskrSqHInbZEk_15loam_spine_core6traits10cli_signerNtB8_9CliSignerNtNtBa_7signing6Signer4sign0s0_0Bc_
FN:198,_RNCNCNvXs_NtNtCskrSqHInbZEk_15loam_spine_core6traits10cli_signerNtB8_9CliSignerNtNtBa_7signing6Signer4sign0s_0Bc_
FN:313,_RNCNvXs1_NtNtCskrSqHInbZEk_15loam_spine_core6traits10cli_signerNtB7_11CliVerifierNtNtB9_7signing8Verifier12verify_entry0Bb_
FN:272,_RNCNvXs1_NtNtCskrSqHInbZEk_15loam_spine_core6traits10cli_signerNtB7_11CliVerifierNtNtB9_7signing8Verifier6verify0Bb_
FN:176,_RNCNvXs_NtNtCskrSqHInbZEk_15loam_spine_core6traits10cli_signerNtB6_9CliSignerNtNtB8_7signing6Signer4sign0Ba_
FN:82,_RINvMNtNtCskrSqHInbZEk_15loam_spine_core6traits10cli_signerNtB3_9CliSigner3newReB1e_ECsfPdauiQYI6e_22cli_signer_integration
FN:246,_RINvMs0_NtNtCskrSqHInbZEk_15loam_spine_core6traits10cli_signerNtB6_11CliVerifier3newReECsfPdauiQYI6e_22cli_signer_integration
FN:98,_RNCINvMNtNtCskrSqHInbZEk_15loam_spine_core6traits10cli_signerNtB5_9CliSigner3newReB1g_E0CsfPdauiQYI6e_22cli_signer_integration
FN:280,_RNCNCNvXs1_NtNtCskrSqHInbZEk_15loam_spine_core6traits10cli_signerNtB9_11CliVerifierNtNtBb_7signing8Verifier6verify00CsfPdauiQYI6e_22cli_signer_integration
FN:295,_RNCNCNvXs1_NtNtCskrSqHInbZEk_15loam_spine_core6traits10cli_signerNtB9_11CliVerifierNtNtBb_7signing8Verifier6verify0s0_0CsfPdauiQYI6e_22cli_signer_integration
FN:281,_RNCNCNvXs1_NtNtCskrSqHInbZEk_15loam_spine_core6traits10cli_signerNtB9_11CliVerifierNtNtBb_7signing8Verifier6verify0s_0CsfPdauiQYI6e_22cli_signer_integration
FN:184,_RNCNCNvXs_NtNtCskrSqHInbZEk_15loam_spine_core6traits10cli_signerNtB8_9CliSignerNtNtBa_7signing6Signer4sign00CsfPdauiQYI6e_22cli_signer_integration
FN:213,_RNCNCNvXs_NtNtCskrSqHInbZEk_15loam_spine_core6traits10cli_signerNtB8_9CliSignerNtNtBa_7signing6Signer4sign0s0_0CsfPdauiQYI6e_22cli_signer_integration
FN:198,_RNCNCNvXs_NtNtCskrSqHInbZEk_15loam_spine_core6traits10cli_signerNtB8_9CliSignerNtNtBa_7signing6Signer4sign0s_0CsfPdauiQYI6e_22cli_signer_integration
FN:272,_RNCNvXs1_NtNtCskrSqHInbZEk_15loam_spine_core6traits10cli_signerNtB7_11CliVerifierNtNtB9_7signing8Verifier6verify0CsfPdauiQYI6e_22cli_signer_integration
FN:176,_RNCNvXs_NtNtCskrSqHInbZEk_15loam_spine_core6traits10cli_signerNtB6_9CliSignerNtNtB8_7signing6Signer4sign0CsfPdauiQYI6e_22cli_signer_integration
FN:170,_RNvMNtNtCskrSqHInbZEk_15loam_spine_core6traits10cli_signerNtB2_9CliSigner11binary_path
FN:125,_RNvMNtNtCskrSqHInbZEk_15loam_spine_core6traits10cli_signerNtB2_9CliSigner15discover_binary
FN:164,_RNvMNtNtCskrSqHInbZEk_15loam_spine_core6traits10cli_signerNtB2_9CliSigner6key_id
FN:261,_RNvMs0_NtNtCskrSqHInbZEk_15loam_spine_core6traits10cli_signerNtB5_11CliVerifier11binary_path
FN:313,_RNvXs1_NtNtCskrSqHInbZEk_15loam_spine_core6traits10cli_signerNtB5_11CliVerifierNtNtB7_7signing8Verifier12verify_entry
FN:267,_RNvXs1_NtNtCskrSqHInbZEk_15loam_spine_core6traits10cli_signerNtB5_11CliVerifierNtNtB7_7signing8Verifier6verify
FN:221,_RNvXs_NtNtCskrSqHInbZEk_15loam_spine_core6traits10cli_signerNtB4_9CliSignerNtNtB6_7signing6Signer3did
FN:176,_RNvXs_NtNtCskrSqHInbZEk_15loam_spine_core6traits10cli_signerNtB4_9CliSignerNtNtB6_7signing6Signer4sign
FN:316,_RNCNCNvXs1_NtNtCsiWUamAnYf7P_15loam_spine_core6traits10cli_signerNtB9_11CliVerifierNtNtBb_7signing8Verifier12verify_entry00Bd_
FN:280,_RNCNCNvXs1_NtNtCsiWUamAnYf7P_15loam_spine_core6traits10cli_signerNtB9_11CliVerifierNtNtBb_7signing8Verifier6verify00Bd_
FN:295,_RNCNCNvXs1_NtNtCsiWUamAnYf7P_15loam_spine_core6traits10cli_signerNtB9_11CliVerifierNtNtBb_7signing8Verifier6verify0s0_0Bd_
FN:281,_RNCNCNvXs1_NtNtCsiWUamAnYf7P_15loam_spine_core6traits10cli_signerNtB9_11CliVerifierNtNtBb_7signing8Verifier6verify0s_0Bd_
FN:184,_RNCNCNvXs_NtNtCsiWUamAnYf7P_15loam_spine_core6traits10cli_signerNtB8_9CliSignerNtNtBa_7signing6Signer4sign00Bc_
FN:213,_RNCNCNvXs_NtNtCsiWUamAnYf7P_15loam_spine_core6traits10cli_signerNtB8_9CliSignerNtNtBa_7signing6Signer4sign0s0_0Bc_
FN:198,_RNCNCNvXs_NtNtCsiWUamAnYf7P_15loam_spine_core6traits10cli_signerNtB8_9CliSignerNtNtBa_7signing6Signer4sign0s_0Bc_
FN:313,_RNCNvXs1_NtNtCsiWUamAnYf7P_15loam_spine_core6traits10cli_signerNtB7_11CliVerifierNtNtB9_7signing8Verifier12verify_entry0Bb_
FN:272,_RNCNvXs1_NtNtCsiWUamAnYf7P_15loam_spine_core6traits10cli_signerNtB7_11CliVerifierNtNtB9_7signing8Verifier6verify0Bb_
FN:176,_RNCNvXs_NtNtCsiWUamAnYf7P_15loam_spine_core6traits10cli_signerNtB6_9CliSignerNtNtB8_7signing6Signer4sign0Ba_
FN:170,_RNvMNtNtCsiWUamAnYf7P_15loam_spine_core6traits10cli_signerNtB2_9CliSigner11binary_path
FN:164,_RNvMNtNtCsiWUamAnYf7P_15loam_spine_core6traits10cli_signerNtB2_9CliSigner6key_id
FN:313,_RNvXs1_NtNtCsiWUamAnYf7P_15loam_spine_core6traits10cli_signerNtB5_11CliVerifierNtNtB7_7signing8Verifier12verify_entry
FN:267,_RNvXs1_NtNtCsiWUamAnYf7P_15loam_spine_core6traits10cli_signerNtB5_11CliVerifierNtNtB7_7signing8Verifier6verify
FN:176,_RNvXs_NtNtCsiWUamAnYf7P_15loam_spine_core6traits10cli_signerNtB4_9CliSignerNtNtB6_7signing6Signer4sign
FN:125,_RNvMNtNtCsiWUamAnYf7P_15loam_spine_core6traits10cli_signerNtB2_9CliSigner15discover_binary
FN:261,_RNvMs0_NtNtCsiWUamAnYf7P_15loam_spine_core6traits10cli_signerNtB5_11CliVerifier11binary_path
FN:221,_RNvXs_NtNtCsiWUamAnYf7P_15loam_spine_core6traits10cli_signerNtB4_9CliSignerNtNtB6_7signing6Signer3did
FN:82,_RINvMNtNtCsiWUamAnYf7P_15loam_spine_core6traits10cli_signerNtB3_9CliSigner3newNtNtCseJswNlh1fGO_3std4path7PathBufReEB7_
FN:82,_RINvMNtNtCsiWUamAnYf7P_15loam_spine_core6traits10cli_signerNtB3_9CliSigner3newRNtNtCseJswNlh1fGO_3std4path7PathBufReEB7_
FN:82,_RINvMNtNtCsiWUamAnYf7P_15loam_spine_core6traits10cli_signerNtB3_9CliSigner3newReB1e_EB7_
FN:246,_RINvMs0_NtNtCsiWUamAnYf7P_15loam_spine_core6traits10cli_signerNtB6_11CliVerifier3newNtNtCseJswNlh1fGO_3std4path7PathBufEBa_
FN:246,_RINvMs0_NtNtCsiWUamAnYf7P_15loam_spine_core6traits10cli_signerNtB6_11CliVerifier3newRNtNtCseJswNlh1fGO_3std4path7PathBufEBa_
FN:246,_RINvMs0_NtNtCsiWUamAnYf7P_15loam_spine_core6traits10cli_signerNtB6_11CliVerifier3newReEBa_
FN:98,_RNCINvMNtNtCsiWUamAnYf7P_15loam_spine_core6traits10cli_signerNtB5_9CliSigner3newNtNtCseJswNlh1fGO_3std4path7PathBufReE0B9_
FN:98,_RNCINvMNtNtCsiWUamAnYf7P_15loam_spine_core6traits10cli_signerNtB5_9CliSigner3newRNtNtCseJswNlh1fGO_3std4path7PathBufReE0B9_
FN:98,_RNCINvMNtNtCsiWUamAnYf7P_15loam_spine_core6traits10cli_signerNtB5_9CliSigner3newReB1g_E0B9_
FN:335,_RNCNvNtNtNtCsiWUamAnYf7P_15loam_spine_core6traits10cli_signer5tests15get_test_binary0B9_
FN:344,_RNCNvNtNtNtCsiWUamAnYf7P_15loam_spine_core6traits10cli_signer5tests15get_test_binarys_0B9_
FN:505,_RNCNvNtNtNtCsiWUamAnYf7P_15loam_spine_core6traits10cli_signer5testss_19signer_did_accessor0B9_
FN:332,_RNvNtNtNtCsiWUamAnYf7P_15loam_spine_core6traits10cli_signer5tests15get_test_binary
FN:505,_RNvNtNtNtCsiWUamAnYf7P_15loam_spine_core6traits10cli_signer5testss_19signer_did_accessor
FN:477,_RNvNtNtNtCsiWUamAnYf7P_15loam_spine_core6traits10cli_signer5testss_23signer_implements_clone
FN:447,_RNvNtNtNtCsiWUamAnYf7P_15loam_spine_core6traits10cli_signer5testss_23signer_implements_debug
FN:441,_RNvNtNtNtCsiWUamAnYf7P_15loam_spine_core6traits10cli_signer5testss_25env_constants_are_defined
FN:492,_RNvNtNtNtCsiWUamAnYf7P_15loam_spine_core6traits10cli_signer5testss_25verifier_implements_clone
FN:463,_RNvNtNtNtCsiWUamAnYf7P_15loam_spine_core6traits10cli_signer5testss_25verifier_implements_debug
FN:429,_RNvNtNtNtCsiWUamAnYf7P_15loam_spine_core6traits10cli_signer5testss_29verifier_binary_path_accessor
FN:364,_RNvNtNtNtCsiWUamAnYf7P_15loam_spine_core6traits10cli_signer5testss_32discover_binary_respects_env_var
FN:389,_RNvNtNtNtCsiWUamAnYf7P_15loam_spine_core6traits10cli_signer5testss_38signer_creation_fails_with_invalid_key
FN:354,_RNvNtNtNtCsiWUamAnYf7P_15loam_spine_core6traits10cli_signer5testss_41discover_binary_returns_none_if_not_found
FN:379,_RNvNtNtNtCsiWUamAnYf7P_15loam_spine_core6traits10cli_signer5testss_41signer_creation_fails_with_missing_binary
FN:407,_RNvNtNtNtCsiWUamAnYf7P_15loam_spine_core6traits10cli_signer5testss_43verifier_creation_fails_with_missing_binary
FN:417,_RNvNtNtNtCsiWUamAnYf7P_15loam_spine_core6traits10cli_signer5testss_44verifier_creation_succeeds_with_valid_binary
FNDA:0,_RINvMNtNtCskrSqHInbZEk_15loam_spine_core6traits10cli_signerNtB3_9CliSigner3newppEB7_
FNDA:0,_RINvMs0_NtNtCskrSqHInbZEk_15loam_spine_core6traits10cli_signerNtB6_11CliVerifier3newpEBa_
FNDA:0,_RNCINvMNtNtCskrSqHInbZEk_15loam_spine_core6traits10cli_signerNtB5_9CliSigner3newppE0B9_
FNDA:0,_RNCNCNvXs1_NtNtCskrSqHInbZEk_15loam_spine_core6traits10cli_signerNtB9_11CliVerifierNtNtBb_7signing8Verifier12verify_entry00Bd_
FNDA:0,_RNCNCNvXs1_NtNtCskrSqHInbZEk_15loam_spine_core6traits10cli_signerNtB9_11CliVerifierNtNtBb_7signing8Verifier6verify00Bd_
FNDA:0,_RNCNCNvXs1_NtNtCskrSqHInbZEk_15loam_spine_core6traits10cli_signerNtB9_11CliVerifierNtNtBb_7signing8Verifier6verify0s0_0Bd_
FNDA:0,_RNCNCNvXs1_NtNtCskrSqHInbZEk_15loam_spine_core6traits10cli_signerNtB9_11CliVerifierNtNtBb_7signing8Verifier6verify0s_0Bd_
FNDA:0,_RNCNCNvXs_NtNtCskrSqHInbZEk_15loam_spine_core6traits10cli_signerNtB8_9CliSignerNtNtBa_7signing6Signer4sign00Bc_
FNDA:0,_RNCNCNvXs_NtNtCskrSqHInbZEk_15loam_spine_core6traits10cli_signerNtB8_9CliSignerNtNtBa_7signing6Signer4sign0s0_0Bc_
FNDA:0,_RNCNCNvXs_NtNtCskrSqHInbZEk_15loam_spine_core6traits10cli_signerNtB8_9CliSignerNtNtBa_7signing6Signer4sign0s_0Bc_
FNDA:0,_RNCNvXs1_NtNtCskrSqHInbZEk_15loam_spine_core6traits10cli_signerNtB7_11CliVerifierNtNtB9_7signing8Verifier12verify_entry0Bb_
FNDA:0,_RNCNvXs1_NtNtCskrSqHInbZEk_15loam_spine_core6traits10cli_signerNtB7_11CliVerifierNtNtB9_7signing8Verifier6verify0Bb_
FNDA:0,_RNCNvXs_NtNtCskrSqHInbZEk_15loam_spine_core6traits10cli_signerNtB6_9CliSignerNtNtB8_7signing6Signer4sign0Ba_
FNDA:5,_RINvMNtNtCskrSqHInbZEk_15loam_spine_core6traits10cli_signerNtB3_9CliSigner3newReB1e_ECsfPdauiQYI6e_22cli_signer_integration
FNDA:0,_RINvMs0_NtNtCskrSqHInbZEk_15loam_spine_core6traits10cli_signerNtB6_11CliVerifier3newReECsfPdauiQYI6e_22cli_signer_integration
FNDA:0,_RNCINvMNtNtCskrSqHInbZEk_15loam_spine_core6traits10cli_signerNtB5_9CliSigner3newReB1g_E0CsfPdauiQYI6e_22cli_signer_integration
FNDA:0,_RNCNCNvXs1_NtNtCskrSqHInbZEk_15loam_spine_core6traits10cli_signerNtB9_11CliVerifierNtNtBb_7signing8Verifier6verify00CsfPdauiQYI6e_22cli_signer_integration
FNDA:0,_RNCNCNvXs1_NtNtCskrSqHInbZEk_15loam_spine_core6traits10cli_signerNtB9_11CliVerifierNtNtBb_7signing8Verifier6verify0s0_0CsfPdauiQYI6e_22cli_signer_integration
FNDA:0,_RNCNCNvXs1_NtNtCskrSqHInbZEk_15loam_spine_core6traits10cli_signerNtB9_11CliVerifierNtNtBb_7signing8Verifier6verify0s_0CsfPdauiQYI6e_22cli_signer_integration
FNDA:0,_RNCNCNvXs_NtNtCskrSqHInbZEk_15loam_spine_core6traits10cli_signerNtB8_9CliSignerNtNtBa_7signing6Signer4sign00CsfPdauiQYI6e_22cli_signer_integration
FNDA:0,_RNCNCNvXs_NtNtCskrSqHInbZEk_15loam_spine_core6traits10cli_signerNtB8_9CliSignerNtNtBa_7signing6Signer4sign0s0_0CsfPdauiQYI6e_22cli_signer_integration
FNDA:0,_RNCNCNvXs_NtNtCskrSqHInbZEk_15loam_spine_core6traits10cli_signerNtB8_9CliSignerNtNtBa_7signing6Signer4sign0s_0CsfPdauiQYI6e_22cli_signer_integration
FNDA:0,_RNCNvXs1_NtNtCskrSqHInbZEk_15loam_spine_core6traits10cli_signerNtB7_11CliVerifierNtNtB9_7signing8Verifier6verify0CsfPdauiQYI6e_22cli_signer_integration
FNDA:0,_RNCNvXs_NtNtCskrSqHInbZEk_15loam_spine_core6traits10cli_signerNtB6_9CliSignerNtNtB8_7signing6Signer4sign0CsfPdauiQYI6e_22cli_signer_integration
FNDA:0,_RNvMNtNtCskrSqHInbZEk_15loam_spine_core6traits10cli_signerNtB2_9CliSigner11binary_path
FNDA:0,_RNvMNtNtCskrSqHInbZEk_15loam_spine_core6traits10cli_signerNtB2_9CliSigner15discover_binary
FNDA:0,_RNvMNtNtCskrSqHInbZEk_15loam_spine_core6traits10cli_signerNtB2_9CliSigner6key_id
FNDA:0,_RNvMs0_NtNtCskrSqHInbZEk_15loam_spine_core6traits10cli_signerNtB5_11CliVerifier11binary_path
FNDA:0,_RNvXs1_NtNtCskrSqHInbZEk_15loam_spine_core6traits10cli_signerNtB5_11CliVerifierNtNtB7_7signing8Verifier12verify_entry
FNDA:0,_RNvXs1_NtNtCskrSqHInbZEk_15loam_spine_core6traits10cli_signerNtB5_11CliVerifierNtNtB7_7signing8Verifier6verify
FNDA:0,_RNvXs_NtNtCskrSqHInbZEk_15loam_spine_core6traits10cli_signerNtB4_9CliSignerNtNtB6_7signing6Signer3did
FNDA:0,_RNvXs_NtNtCskrSqHInbZEk_15loam_spine_core6traits10cli_signerNtB4_9CliSignerNtNtB6_7signing6Signer4sign
FNDA:0,_RNCNCNvXs1_NtNtCsiWUamAnYf7P_15loam_spine_core6traits10cli_signerNtB9_11CliVerifierNtNtBb_7signing8Verifier12verify_entry00Bd_
FNDA:0,_RNCNCNvXs1_NtNtCsiWUamAnYf7P_15loam_spine_core6traits10cli_signerNtB9_11CliVerifierNtNtBb_7signing8Verifier6verify00Bd_
FNDA:0,_RNCNCNvXs1_NtNtCsiWUamAnYf7P_15loam_spine_core6traits10cli_signerNtB9_11CliVerifierNtNtBb_7signing8Verifier6verify0s0_0Bd_
FNDA:0,_RNCNCNvXs1_NtNtCsiWUamAnYf7P_15loam_spine_core6traits10cli_signerNtB9_11CliVerifierNtNtBb_7signing8Verifier6verify0s_0Bd_
FNDA:0,_RNCNCNvXs_NtNtCsiWUamAnYf7P_15loam_spine_core6traits10cli_signerNtB8_9CliSignerNtNtBa_7signing6Signer4sign00Bc_
FNDA:0,_RNCNCNvXs_NtNtCsiWUamAnYf7P_15loam_spine_core6traits10cli_signerNtB8_9CliSignerNtNtBa_7signing6Signer4sign0s0_0Bc_
FNDA:0,_RNCNCNvXs_NtNtCsiWUamAnYf7P_15loam_spine_core6traits10cli_signerNtB8_9CliSignerNtNtBa_7signing6Signer4sign0s_0Bc_
FNDA:0,_RNCNvXs1_NtNtCsiWUamAnYf7P_15loam_spine_core6traits10cli_signerNtB7_11CliVerifierNtNtB9_7signing8Verifier12verify_entry0Bb_
FNDA:0,_RNCNvXs1_NtNtCsiWUamAnYf7P_15loam_spine_core6traits10cli_signerNtB7_11CliVerifierNtNtB9_7signing8Verifier6verify0Bb_
FNDA:0,_RNCNvXs_NtNtCsiWUamAnYf7P_15loam_spine_core6traits10cli_signerNtB6_9CliSignerNtNtB8_7signing6Signer4sign0Ba_
FNDA:0,_RNvMNtNtCsiWUamAnYf7P_15loam_spine_core6traits10cli_signerNtB2_9CliSigner11binary_path
FNDA:0,_RNvMNtNtCsiWUamAnYf7P_15loam_spine_core6traits10cli_signerNtB2_9CliSigner6key_id
FNDA:0,_RNvXs1_NtNtCsiWUamAnYf7P_15loam_spine_core6traits10cli_signerNtB5_11CliVerifierNtNtB7_7signing8Verifier12verify_entry
FNDA:0,_RNvXs1_NtNtCsiWUamAnYf7P_15loam_spine_core6traits10cli_signerNtB5_11CliVerifierNtNtB7_7signing8Verifier6verify
FNDA:0,_RNvXs_NtNtCsiWUamAnYf7P_15loam_spine_core6traits10cli_signerNtB4_9CliSignerNtNtB6_7signing6Signer4sign
FNDA:2,_RNvMNtNtCsiWUamAnYf7P_15loam_spine_core6traits10cli_signerNtB2_9CliSigner15discover_binary
FNDA:0,_RNvMs0_NtNtCsiWUamAnYf7P_15loam_spine_core6traits10cli_signerNtB5_11CliVerifier11binary_path
FNDA:0,_RNvXs_NtNtCsiWUamAnYf7P_15loam_spine_core6traits10cli_signerNtB4_9CliSignerNtNtB6_7signing6Signer3did
FNDA:0,_RINvMNtNtCsiWUamAnYf7P_15loam_spine_core6traits10cli_signerNtB3_9CliSigner3newNtNtCseJswNlh1fGO_3std4path7PathBufReEB7_
FNDA:0,_RINvMNtNtCsiWUamAnYf7P_15loam_spine_core6traits10cli_signerNtB3_9CliSigner3newRNtNtCseJswNlh1fGO_3std4path7PathBufReEB7_
FNDA:1,_RINvMNtNtCsiWUamAnYf7P_15loam_spine_core6traits10cli_signerNtB3_9CliSigner3newReB1e_EB7_
FNDA:0,_RINvMs0_NtNtCsiWUamAnYf7P_15loam_spine_core6traits10cli_signerNtB6_11CliVerifier3newNtNtCseJswNlh1fGO_3std4path7PathBufEBa_
FNDA:0,_RINvMs0_NtNtCsiWUamAnYf7P_15loam_spine_core6traits10cli_signerNtB6_11CliVerifier3newRNtNtCseJswNlh1fGO_3std4path7PathBufEBa_
FNDA:1,_RINvMs0_NtNtCsiWUamAnYf7P_15loam_spine_core6traits10cli_signerNtB6_11CliVerifier3newReEBa_
FNDA:0,_RNCINvMNtNtCsiWUamAnYf7P_15loam_spine_core6traits10cli_signerNtB5_9CliSigner3newNtNtCseJswNlh1fGO_3std4path7PathBufReE0B9_
FNDA:0,_RNCINvMNtNtCsiWUamAnYf7P_15loam_spine_core6traits10cli_signerNtB5_9CliSigner3newRNtNtCseJswNlh1fGO_3std4path7PathBufReE0B9_
FNDA:0,_RNCINvMNtNtCsiWUamAnYf7P_15loam_spine_core6traits10cli_signerNtB5_9CliSigner3newReB1g_E0B9_
FNDA:0,_RNCNvNtNtNtCsiWUamAnYf7P_15loam_spine_core6traits10cli_signer5tests15get_test_binary0B9_
FNDA:0,_RNCNvNtNtNtCsiWUamAnYf7P_15loam_spine_core6traits10cli_signer5tests15get_test_binarys_0B9_
FNDA:1,_RNCNvNtNtNtCsiWUamAnYf7P_15loam_spine_core6traits10cli_signer5testss_19signer_did_accessor0B9_
FNDA:8,_RNvNtNtNtCsiWUamAnYf7P_15loam_spine_core6traits10cli_signer5tests15get_test_binary
FNDA:1,_RNvNtNtNtCsiWUamAnYf7P_15loam_spine_core6traits10cli_signer5testss_19signer_did_accessor
FNDA:1,_RNvNtNtNtCsiWUamAnYf7P_15loam_spine_core6traits10cli_signer5testss_23signer_implements_clone
FNDA:1,_RNvNtNtNtCsiWUamAnYf7P_15loam_spine_core6traits10cli_signer5testss_23signer_implements_debug
FNDA:1,_RNvNtNtNtCsiWUamAnYf7P_15loam_spine_core6traits10cli_signer5testss_25env_constants_are_defined
FNDA:1,_RNvNtNtNtCsiWUamAnYf7P_15loam_spine_core6traits10cli_signer5testss_25verifier_implements_clone
FNDA:1,_RNvNtNtNtCsiWUamAnYf7P_15loam_spine_core6traits10cli_signer5testss_25verifier_implements_debug
FNDA:1,_RNvNtNtNtCsiWUamAnYf7P_15loam_spine_core6traits10cli_signer5testss_29verifier_binary_path_accessor
FNDA:1,_RNvNtNtNtCsiWUamAnYf7P_15loam_spine_core6traits10cli_signer5testss_32discover_binary_respects_env_var
FNDA:1,_RNvNtNtNtCsiWUamAnYf7P_15loam_spine_core6traits10cli_signer5testss_38signer_creation_fails_with_invalid_key
FNDA:1,_RNvNtNtNtCsiWUamAnYf7P_15loam_spine_core6traits10cli_signer5testss_41discover_binary_returns_none_if_not_found
FNDA:1,_RNvNtNtNtCsiWUamAnYf7P_15loam_spine_core6traits10cli_signer5testss_41signer_creation_fails_with_missing_binary
FNDA:1,_RNvNtNtNtCsiWUamAnYf7P_15loam_spine_core6traits10cli_signer5testss_43verifier_creation_fails_with_missing_binary
FNDA:1,_RNvNtNtNtCsiWUamAnYf7P_15loam_spine_core6traits10cli_signer5testss_44verifier_creation_succeeds_with_valid_binary
FNF:38
FNH:18
DA:82,6
DA:83,6
DA:84,6
DA:85,6
DA:86,6
DA:87,6
DA:88,6
DA:89,6
DA:90,6
DA:91,6
DA:92,0
DA:95,0
DA:96,0
DA:97,0
DA:98,0
DA:100,0
DA:101,0
DA:102,0
DA:103,0
DA:104,0
DA:105,0
DA:106,0
DA:107,0
DA:108,0
DA:109,0
DA:110,0
DA:111,0
DA:112,0
DA:113,0
DA:114,0
DA:115,0
DA:116,6
DA:125,2
DA:127,2
DA:128,1
DA:129,1
DA:130,0
DA:131,1
DA:132,1
DA:135,2
DA:136,2
DA:139,0
DA:140,0
DA:141,0
DA:142,0
DA:143,0
DA:145,2
DA:148,6
DA:149,4
DA:150,4
DA:151,0
DA:152,0
DA:153,0
DA:154,0
DA:155,4
DA:156,0
DA:159,2
DA:160,2
DA:164,0
DA:165,0
DA:166,0
DA:170,0
DA:171,0
DA:172,0
DA:176,0
DA:177,0
DA:178,0
DA:179,0
DA:180,0
DA:181,0
DA:182,0
DA:183,0
DA:184,0
DA:187,0
DA:188,0
DA:189,0
DA:190,0
DA:191,0
DA:192,0
DA:193,0
DA:194,0
DA:195,0
DA:196,0
DA:197,0
DA:198,0
DA:201,0
DA:202,0
DA:203,0
DA:204,0
DA:205,0
DA:206,0
DA:207,0
DA:208,0
DA:209,0
DA:212,0
DA:213,0
DA:216,0
DA:217,0
DA:218,0
DA:219,0
DA:221,0
DA:222,0
DA:223,0
DA:246,1
DA:247,1
DA:248,1
DA:249,1
DA:250,1
DA:251,1
DA:252,1
DA:253,1
DA:254,0
DA:255,0
DA:256,0
DA:257,1
DA:261,0
DA:262,0
DA:263,0
DA:267,0
DA:268,0
DA:269,0
DA:270,0
DA:271,0
DA:272,0
DA:273,0
DA:274,0
DA:275,0
DA:276,0
DA:277,0
DA:278,0
DA:279,0
DA:280,0
DA:281,0
DA:282,0
DA:283,0
DA:286,0
DA:287,0
DA:288,0
DA:289,0
DA:290,0
DA:291,0
DA:292,0
DA:293,0
DA:294,0
DA:295,0
DA:296,0
DA:297,0
DA:300,0
DA:301,0
DA:302,0
DA:303,0
DA:304,0
DA:306,0
DA:307,0
DA:308,0
DA:309,0
DA:311,0
DA:313,0
DA:315,0
DA:316,0
DA:318,0
DA:319,0
DA:320,0
DA:332,8
DA:333,8
DA:334,8
DA:335,8
DA:336,0
DA:337,8
DA:338,8
DA:339,8
DA:340,8
DA:341,8
DA:342,0
DA:343,0
DA:344,0
DA:345,0
DA:347,0
DA:348,8
DA:349,8
DA:350,8
DA:351,8
DA:354,1
DA:355,1
DA:356,1
DA:357,1
DA:358,1
DA:359,1
DA:360,1
DA:361,1
DA:364,1
DA:365,1
DA:366,1
DA:367,1
DA:368,1
DA:369,1
DA:370,1
DA:371,1
DA:372,1
DA:373,1
DA:374,1
DA:375,1
DA:376,1
DA:379,1
DA:380,1
DA:381,1
DA:382,1
DA:383,1
DA:384,1
DA:385,0
DA:386,1
DA:389,1
DA:391,1
DA:392,1
DA:393,1
DA:396,0
DA:397,0
DA:398,0
DA:399,0
DA:400,0
DA:403,0
DA:404,1
DA:407,1
DA:408,1
DA:409,1
DA:410,1
DA:411,1
DA:412,1
DA:413,0
DA:414,1
DA:417,1
DA:419,1
DA:420,1
DA:421,1
DA:424,0
DA:425,0
DA:426,1
DA:429,1
DA:431,1
DA:432,1
DA:433,1
DA:436,0
DA:437,0
DA:438,1
DA:441,1
DA:442,1
DA:443,1
DA:444,1
DA:447,1
DA:449,1
DA:450,1
DA:451,1
DA:456,0
DA:457,0
DA:458,0
DA:459,0
DA:460,1
DA:463,1
DA:465,1
DA:466,1
DA:467,1
DA:470,0
DA:471,0
DA:472,0
DA:473,1
DA:477,1
DA:479,1
DA:480,1
DA:481,1
DA:484,0
DA:485,0
DA:486,0
DA:487,0
DA:488,1
DA:492,1
DA:494,1
DA:495,1
DA:496,1
DA:499,0
DA:500,0
DA:501,0
DA:502,1
DA:505,1
DA:506,1
DA:507,1
DA:508,1
DA:509,1
DA:510,1
DA:511,1
DA:512,1
DA:513,1
DA:514,0
DA:515,1
DA:516,1
DA:517,1
BRF:0
BRH:0
LF:319
LH:139
end_of_record
SF:/path/to/ecoPrimals/phase2/loamSpine/crates/loam-spine-core/src/traits/commit.rs
FN:48,_RINvMNtNtCskrSqHInbZEk_15loam_spine_core6traits6commitNtB3_18DehydrationSummary3newReECs4SaE2cvVVUV_14loam_spine_api
FN:75,_RNvMNtNtCskrSqHInbZEk_15loam_spine_core6traits6commitNtB2_18DehydrationSummary11with_result
FN:89,_RNvMNtNtCskrSqHInbZEk_15loam_spine_core6traits6commitNtB2_18DehydrationSummary12compute_hash
FN:68,_RNvMNtNtCskrSqHInbZEk_15loam_spine_core6traits6commitNtB2_18DehydrationSummary17with_vertex_count
FN:82,_RINvMNtNtCskrSqHInbZEk_15loam_spine_core6traits6commitNtB3_18DehydrationSummary13with_metadatappEB7_
FN:48,_RINvMNtNtCskrSqHInbZEk_15loam_spine_core6traits6commitNtB3_18DehydrationSummary3newpEB7_
FN:148,_RINvMs_NtNtCskrSqHInbZEk_15loam_spine_core6traits6commitNtB5_11ResultEntry13with_metadatappEB9_
FN:138,_RINvMs_NtNtCskrSqHInbZEk_15loam_spine_core6traits6commitNtB5_11ResultEntry3newpEB9_
FN:82,_RINvMNtNtCskrSqHInbZEk_15loam_spine_core6traits6commitNtB3_18DehydrationSummary13with_metadataReNtNtCs6bBekJvxEMJ_5alloc6string6StringECsd5Jd4nU1YRX_5chaos
FN:82,_RINvMNtNtCskrSqHInbZEk_15loam_spine_core6traits6commitNtB3_18DehydrationSummary13with_metadataReRNtNtCs6bBekJvxEMJ_5alloc6string6StringECsd5Jd4nU1YRX_5chaos
FN:48,_RINvMNtNtCskrSqHInbZEk_15loam_spine_core6traits6commitNtB3_18DehydrationSummary3newNtNtCs6bBekJvxEMJ_5alloc6string6StringECsd5Jd4nU1YRX_5chaos
FN:48,_RINvMNtNtCskrSqHInbZEk_15loam_spine_core6traits6commitNtB3_18DehydrationSummary3newReECsd5Jd4nU1YRX_5chaos
FN:48,_RINvMNtNtCskrSqHInbZEk_15loam_spine_core6traits6commitNtB3_18DehydrationSummary3newNtNtCs6bBekJvxEMJ_5alloc6string6StringECslk0Lj0FVdsD_3e2e
FN:48,_RINvMNtNtCskrSqHInbZEk_15loam_spine_core6traits6commitNtB3_18DehydrationSummary3newReECs4S1xE8DPCBn_14loam_spine_api
FN:75,_RNvMNtNtCsiWUamAnYf7P_15loam_spine_core6traits6commitNtB2_18DehydrationSummary11with_result
FN:89,_RNvMNtNtCsiWUamAnYf7P_15loam_spine_core6traits6commitNtB2_18DehydrationSummary12compute_hash
FN:68,_RNvMNtNtCsiWUamAnYf7P_15loam_spine_core6traits6commitNtB2_18DehydrationSummary17with_vertex_count
FN:82,_RINvMNtNtCsiWUamAnYf7P_15loam_spine_core6traits6commitNtB3_18DehydrationSummary13with_metadataReB1u_EB7_
FN:48,_RINvMNtNtCsiWUamAnYf7P_15loam_spine_core6traits6commitNtB3_18DehydrationSummary3newReEB7_
FN:148,_RINvMs_NtNtCsiWUamAnYf7P_15loam_spine_core6traits6commitNtB5_11ResultEntry13with_metadataReB1p_EB9_
FN:138,_RINvMs_NtNtCsiWUamAnYf7P_15loam_spine_core6traits6commitNtB5_11ResultEntry3newReEB9_
FN:259,_RNvNtNtNtCsiWUamAnYf7P_15loam_spine_core6traits6commit5testss_21result_entry_creation
FN:278,_RNvNtNtNtCsiWUamAnYf7P_15loam_spine_core6traits6commit5testss_24loam_commit_ref_equality
FN:302,_RNvNtNtNtCsiWUamAnYf7P_15loam_spine_core6traits6commit5testss_25dehydration_summary_debug
FN:268,_RNvNtNtNtCsiWUamAnYf7P_15loam_spine_core6traits6commit5testss_26result_entry_with_metadata
FN:188,_RNvNtNtNtCsiWUamAnYf7P_15loam_spine_core6traits6commit5testss_28dehydration_summary_creation
FN:313,_RNvNtNtNtCsiWUamAnYf7P_15loam_spine_core6traits6commit5testss_28result_entry_debug_and_clone
FN:208,_RNvNtNtNtCsiWUamAnYf7P_15loam_spine_core6traits6commit5testss_31dehydration_summary_with_result
FN:230,_RNvNtNtNtCsiWUamAnYf7P_15loam_spine_core6traits6commit5testss_32dehydration_summary_compute_hash
FN:218,_RNvNtNtNtCsiWUamAnYf7P_15loam_spine_core6traits6commit5testss_33dehydration_summary_with_metadata
FN:244,_RNvNtNtNtCsiWUamAnYf7P_15loam_spine_core6traits6commit5testss_36dehydration_summary_chained_builders
FN:200,_RNvNtNtNtCsiWUamAnYf7P_15loam_spine_core6traits6commit5testss_37dehydration_summary_with_vertex_count
FNDA:1,_RINvMNtNtCskrSqHInbZEk_15loam_spine_core6traits6commitNtB3_18DehydrationSummary3newReECs4SaE2cvVVUV_14loam_spine_api
FNDA:0,_RNvMNtNtCskrSqHInbZEk_15loam_spine_core6traits6commitNtB2_18DehydrationSummary11with_result
FNDA:0,_RNvMNtNtCskrSqHInbZEk_15loam_spine_core6traits6commitNtB2_18DehydrationSummary12compute_hash
FNDA:1109,_RNvMNtNtCskrSqHInbZEk_15loam_spine_core6traits6commitNtB2_18DehydrationSummary17with_vertex_count
FNDA:0,_RINvMNtNtCskrSqHInbZEk_15loam_spine_core6traits6commitNtB3_18DehydrationSummary13with_metadatappEB7_
FNDA:0,_RINvMNtNtCskrSqHInbZEk_15loam_spine_core6traits6commitNtB3_18DehydrationSummary3newpEB7_
FNDA:0,_RINvMs_NtNtCskrSqHInbZEk_15loam_spine_core6traits6commitNtB5_11ResultEntry13with_metadatappEB9_
FNDA:0,_RINvMs_NtNtCskrSqHInbZEk_15loam_spine_core6traits6commitNtB5_11ResultEntry3newpEB9_
FNDA:200,_RINvMNtNtCskrSqHInbZEk_15loam_spine_core6traits6commitNtB3_18DehydrationSummary13with_metadataReNtNtCs6bBekJvxEMJ_5alloc6string6StringECsd5Jd4nU1YRX_5chaos
FNDA:1,_RINvMNtNtCskrSqHInbZEk_15loam_spine_core6traits6commitNtB3_18DehydrationSummary13with_metadataReRNtNtCs6bBekJvxEMJ_5alloc6string6StringECsd5Jd4nU1YRX_5chaos
FNDA:3310,_RINvMNtNtCskrSqHInbZEk_15loam_spine_core6traits6commitNtB3_18DehydrationSummary3newNtNtCs6bBekJvxEMJ_5alloc6string6StringECsd5Jd4nU1YRX_5chaos
FNDA:5,_RINvMNtNtCskrSqHInbZEk_15loam_spine_core6traits6commitNtB3_18DehydrationSummary3newReECsd5Jd4nU1YRX_5chaos
FNDA:15,_RINvMNtNtCskrSqHInbZEk_15loam_spine_core6traits6commitNtB3_18DehydrationSummary3newNtNtCs6bBekJvxEMJ_5alloc6string6StringECslk0Lj0FVdsD_3e2e
FNDA:2,_RINvMNtNtCskrSqHInbZEk_15loam_spine_core6traits6commitNtB3_18DehydrationSummary3newReECs4S1xE8DPCBn_14loam_spine_api
FNDA:2,_RNvMNtNtCsiWUamAnYf7P_15loam_spine_core6traits6commitNtB2_18DehydrationSummary11with_result
FNDA:4,_RNvMNtNtCsiWUamAnYf7P_15loam_spine_core6traits6commitNtB2_18DehydrationSummary12compute_hash
FNDA:3,_RNvMNtNtCsiWUamAnYf7P_15loam_spine_core6traits6commitNtB2_18DehydrationSummary17with_vertex_count
FNDA:3,_RINvMNtNtCsiWUamAnYf7P_15loam_spine_core6traits6commitNtB3_18DehydrationSummary13with_metadataReB1u_EB7_
FNDA:10,_RINvMNtNtCsiWUamAnYf7P_15loam_spine_core6traits6commitNtB3_18DehydrationSummary3newReEB7_
FNDA:3,_RINvMs_NtNtCsiWUamAnYf7P_15loam_spine_core6traits6commitNtB5_11ResultEntry13with_metadataReB1p_EB9_
FNDA:5,_RINvMs_NtNtCsiWUamAnYf7P_15loam_spine_core6traits6commitNtB5_11ResultEntry3newReEB9_
FNDA:1,_RNvNtNtNtCsiWUamAnYf7P_15loam_spine_core6traits6commit5testss_21result_entry_creation
FNDA:1,_RNvNtNtNtCsiWUamAnYf7P_15loam_spine_core6traits6commit5testss_24loam_commit_ref_equality
FNDA:1,_RNvNtNtNtCsiWUamAnYf7P_15loam_spine_core6traits6commit5testss_25dehydration_summary_debug
FNDA:1,_RNvNtNtNtCsiWUamAnYf7P_15loam_spine_core6traits6commit5testss_26result_entry_with_metadata
FNDA:1,_RNvNtNtNtCsiWUamAnYf7P_15loam_spine_core6traits6commit5testss_28dehydration_summary_creation
FNDA:1,_RNvNtNtNtCsiWUamAnYf7P_15loam_spine_core6traits6commit5testss_28result_entry_debug_and_clone
FNDA:1,_RNvNtNtNtCsiWUamAnYf7P_15loam_spine_core6traits6commit5testss_31dehydration_summary_with_result
FNDA:1,_RNvNtNtNtCsiWUamAnYf7P_15loam_spine_core6traits6commit5testss_32dehydration_summary_compute_hash
FNDA:1,_RNvNtNtNtCsiWUamAnYf7P_15loam_spine_core6traits6commit5testss_33dehydration_summary_with_metadata
FNDA:1,_RNvNtNtNtCsiWUamAnYf7P_15loam_spine_core6traits6commit5testss_36dehydration_summary_chained_builders
FNDA:1,_RNvNtNtNtCsiWUamAnYf7P_15loam_spine_core6traits6commit5testss_37dehydration_summary_with_vertex_count
FNF:18
FNH:18
DA:48,3343
DA:49,3343
DA:50,3343
DA:51,3343
DA:52,3343
DA:53,3343
DA:54,3343
DA:55,3343
DA:56,3343
DA:57,3343
DA:58,3343
DA:59,3343
DA:60,3343
DA:61,3343
DA:62,3343
DA:63,3343
DA:64,3343
DA:68,1112
DA:69,1112
DA:70,1112
DA:71,1112
DA:75,2
DA:76,2
DA:77,2
DA:78,2
DA:82,204
DA:83,204
DA:84,204
DA:85,204
DA:89,4
DA:90,4
DA:91,4
DA:92,4
DA:93,4
DA:94,4
DA:138,5
DA:139,5
DA:140,5
DA:141,5
DA:142,5
DA:143,5
DA:144,5
DA:148,3
DA:149,3
DA:150,3
DA:151,3
DA:188,1
DA:189,1
DA:190,1
DA:191,1
DA:192,1
DA:193,1
DA:194,1
DA:195,1
DA:196,1
DA:197,1
DA:200,1
DA:201,1
DA:202,1
DA:203,1
DA:204,1
DA:205,1
DA:208,1
DA:209,1
DA:210,1
DA:211,1
DA:212,1
DA:213,1
DA:214,1
DA:215,1
DA:218,1
DA:219,1
DA:220,1
DA:221,1
DA:222,1
DA:223,1
DA:224,1
DA:225,1
DA:226,1
DA:227,1
DA:230,1
DA:231,1
DA:232,1
DA:233,1
DA:234,1
DA:235,1
DA:236,1
DA:239,1
DA:240,1
DA:241,1
DA:244,1
DA:245,1
DA:246,1
DA:247,1
DA:248,1
DA:249,1
DA:250,1
DA:251,1
DA:252,1
DA:253,1
DA:254,1
DA:255,1
DA:256,1
DA:259,1
DA:260,1
DA:261,1
DA:262,1
DA:263,1
DA:264,1
DA:265,1
DA:268,1
DA:269,1
DA:270,1
DA:271,1
DA:272,1
DA:273,1
DA:274,1
DA:275,1
DA:278,1
DA:279,1
DA:280,1
DA:281,1
DA:282,1
DA:283,1
DA:284,1
DA:285,1
DA:286,1
DA:287,1
DA:288,1
DA:289,1
DA:290,1
DA:291,1
DA:293,1
DA:294,1
DA:295,1
DA:296,1
DA:297,1
DA:298,1
DA:299,1
DA:302,1
DA:303,1
DA:304,1
DA:305,1
DA:306,1
DA:307,1
DA:308,1
DA:309,1
DA:313,1
DA:314,1
DA:315,1
DA:316,1
DA:317,1
DA:318,1
DA:319,1
DA:321,1
DA:322,1
DA:323,1
BRF:0
BRH:0
LF:157
LH:157
end_of_record
SF:/path/to/ecoPrimals/phase2/loamSpine/crates/loam-spine-core/src/traits/mod.rs
FN:83,_RINvMNtCskrSqHInbZEk_15loam_spine_core6traitsNtB3_12BraidSummary3newReECs4SaE2cvVVUV_14loam_spine_api
FN:102,_RNvMNtCskrSqHInbZEk_15loam_spine_core6traitsNtB2_12BraidSummary10with_agent
FN:109,_RNvMNtCskrSqHInbZEk_15loam_spine_core6traitsNtB2_12BraidSummary14with_signature
FN:83,_RINvMNtCskrSqHInbZEk_15loam_spine_core6traitsNtB3_12BraidSummary3newpEB5_
FN:83,_RINvMNtCskrSqHInbZEk_15loam_spine_core6traitsNtB3_12BraidSummary3newReECslk0Lj0FVdsD_3e2e
FN:83,_RINvMNtCskrSqHInbZEk_15loam_spine_core6traitsNtB3_12BraidSummary3newReECs4S1xE8DPCBn_14loam_spine_api
FN:102,_RNvMNtCsiWUamAnYf7P_15loam_spine_core6traitsNtB2_12BraidSummary10with_agent
FN:109,_RNvMNtCsiWUamAnYf7P_15loam_spine_core6traitsNtB2_12BraidSummary14with_signature
FN:121,_RNvNtNtCsiWUamAnYf7P_15loam_spine_core6traits5testss_22braid_summary_creation
FN:133,_RNvNtNtCsiWUamAnYf7P_15loam_spine_core6traits5testss_24braid_summary_with_agent
FN:156,_RNvNtNtCsiWUamAnYf7P_15loam_spine_core6traits5testss_28braid_summary_with_signature
FN:181,_RNvNtNtCsiWUamAnYf7P_15loam_spine_core6traits5testss_29braid_summary_debug_and_clone
FN:166,_RNvNtNtCsiWUamAnYf7P_15loam_spine_core6traits5testss_30braid_summary_chained_builders
FN:143,_RNvNtNtCsiWUamAnYf7P_15loam_spine_core6traits5testss_34braid_summary_with_multiple_agents
FN:83,_RINvMNtCsiWUamAnYf7P_15loam_spine_core6traitsNtB3_12BraidSummary3newReEB5_
FNDA:1,_RINvMNtCskrSqHInbZEk_15loam_spine_core6traitsNtB3_12BraidSummary3newReECs4SaE2cvVVUV_14loam_spine_api
FNDA:3,_RNvMNtCskrSqHInbZEk_15loam_spine_core6traitsNtB2_12BraidSummary10with_agent
FNDA:0,_RNvMNtCskrSqHInbZEk_15loam_spine_core6traitsNtB2_12BraidSummary14with_signature
FNDA:0,_RINvMNtCskrSqHInbZEk_15loam_spine_core6traitsNtB3_12BraidSummary3newpEB5_
FNDA:1,_RINvMNtCskrSqHInbZEk_15loam_spine_core6traitsNtB3_12BraidSummary3newReECslk0Lj0FVdsD_3e2e
FNDA:1,_RINvMNtCskrSqHInbZEk_15loam_spine_core6traitsNtB3_12BraidSummary3newReECs4S1xE8DPCBn_14loam_spine_api
FNDA:5,_RNvMNtCsiWUamAnYf7P_15loam_spine_core6traitsNtB2_12BraidSummary10with_agent
FNDA:2,_RNvMNtCsiWUamAnYf7P_15loam_spine_core6traitsNtB2_12BraidSummary14with_signature
FNDA:1,_RNvNtNtCsiWUamAnYf7P_15loam_spine_core6traits5testss_22braid_summary_creation
FNDA:1,_RNvNtNtCsiWUamAnYf7P_15loam_spine_core6traits5testss_24braid_summary_with_agent
FNDA:1,_RNvNtNtCsiWUamAnYf7P_15loam_spine_core6traits5testss_28braid_summary_with_signature
FNDA:1,_RNvNtNtCsiWUamAnYf7P_15loam_spine_core6traits5testss_29braid_summary_debug_and_clone
FNDA:1,_RNvNtNtCsiWUamAnYf7P_15loam_spine_core6traits5testss_30braid_summary_chained_builders
FNDA:1,_RNvNtNtCsiWUamAnYf7P_15loam_spine_core6traits5testss_34braid_summary_with_multiple_agents
FNDA:7,_RINvMNtCsiWUamAnYf7P_15loam_spine_core6traitsNtB3_12BraidSummary3newReEB5_
FNF:9
FNH:9
DA:83,10
DA:84,10
DA:85,10
DA:86,10
DA:87,10
DA:88,10
DA:89,10
DA:90,10
DA:91,10
DA:92,10
DA:93,10
DA:94,10
DA:95,10
DA:96,10
DA:97,10
DA:98,10
DA:102,8
DA:103,8
DA:104,8
DA:105,8
DA:109,2
DA:110,2
DA:111,2
DA:112,2
DA:121,1
DA:122,1
DA:123,1
DA:124,1
DA:125,1
DA:126,1
DA:127,1
DA:128,1
DA:129,1
DA:130,1
DA:133,1
DA:134,1
DA:135,1
DA:136,1
DA:137,1
DA:138,1
DA:139,1
DA:140,1
DA:143,1
DA:144,1
DA:145,1
DA:146,1
DA:147,1
DA:148,1
DA:149,1
DA:150,1
DA:151,1
DA:152,1
DA:153,1
DA:156,1
DA:157,1
DA:158,1
DA:159,1
DA:160,1
DA:161,1
DA:162,1
DA:163,1
DA:166,1
DA:167,1
DA:168,1
DA:169,1
DA:170,1
DA:171,1
DA:172,1
DA:173,1
DA:174,1
DA:175,1
DA:176,1
DA:177,1
DA:181,1
DA:182,1
DA:183,1
DA:184,1
DA:185,1
DA:186,1
DA:187,1
DA:189,1
DA:190,1
DA:191,1
BRF:0
BRH:0
LF:83
LH:83
end_of_record
SF:/path/to/ecoPrimals/phase2/loamSpine/crates/loam-spine-core/src/traits/signing.rs
FN:53,_RINvMNtNtCskrSqHInbZEk_15loam_spine_core6traits7signingNtB3_21SignatureVerification7invalidpEB7_
FN:193,_RNCNvXs1_NtNtNtCskrSqHInbZEk_15loam_spine_core6traits7signing7testingNtB7_12MockVerifierNtB9_8Verifier12verify_entry0Bd_
FN:185,_RNCNvXs1_NtNtNtCskrSqHInbZEk_15loam_spine_core6traits7signing7testingNtB7_12MockVerifierNtB9_8Verifier6verify0Bd_
FN:142,_RNCNvXs_NtNtNtCskrSqHInbZEk_15loam_spine_core6traits7signing7testingNtB6_10MockSignerNtB8_6Signer4sign0Bc_
FN:53,_RINvMNtNtCskrSqHInbZEk_15loam_spine_core6traits7signingNtB3_21SignatureVerification7invalidNtNtCs6bBekJvxEMJ_5alloc6string6StringECsfPdauiQYI6e_22cli_signer_integration
FN:43,_RNvMNtNtCskrSqHInbZEk_15loam_spine_core6traits7signingNtB2_21SignatureVerification5valid
FN:43,_RNvMNtNtCsiWUamAnYf7P_15loam_spine_core6traits7signingNtB2_21SignatureVerification5valid
FN:136,_RNvMNtNtNtCsiWUamAnYf7P_15loam_spine_core6traits7signing7testingNtB2_10MockSigner3new
FN:166,_RNvMs0_NtNtNtCsiWUamAnYf7P_15loam_spine_core6traits7signing7testingNtB5_12MockVerifier10permissive
FN:172,_RNvMs0_NtNtNtCsiWUamAnYf7P_15loam_spine_core6traits7signing7testingNtB5_12MockVerifier6strict
FN:193,_RNvXs1_NtNtNtCsiWUamAnYf7P_15loam_spine_core6traits7signing7testingNtB5_12MockVerifierNtB7_8Verifier12verify_entry
FN:180,_RNvXs1_NtNtNtCsiWUamAnYf7P_15loam_spine_core6traits7signing7testingNtB5_12MockVerifierNtB7_8Verifier6verify
FN:148,_RNvXs_NtNtNtCsiWUamAnYf7P_15loam_spine_core6traits7signing7testingNtB4_10MockSignerNtB6_6Signer3did
FN:142,_RNvXs_NtNtNtCsiWUamAnYf7P_15loam_spine_core6traits7signing7testingNtB4_10MockSignerNtB6_6Signer4sign
FN:277,_RNCNvNtNtNtCsiWUamAnYf7P_15loam_spine_core6traits7signing5testss_20mock_verifier_strict0B9_
FN:233,_RNCNvNtNtNtCsiWUamAnYf7P_15loam_spine_core6traits7signing5testss_22mock_signer_signs_data0B9_
FN:261,_RNCNvNtNtNtCsiWUamAnYf7P_15loam_spine_core6traits7signing5testss_24mock_verifier_permissive0B9_
FN:314,_RNCNvNtNtNtCsiWUamAnYf7P_15loam_spine_core6traits7signing5testss_26mock_verifier_entry_strict0B9_
FN:294,_RNCNvNtNtNtCsiWUamAnYf7P_15loam_spine_core6traits7signing5testss_30mock_verifier_entry_permissive0B9_
FN:193,_RNCNvXs1_NtNtNtCsiWUamAnYf7P_15loam_spine_core6traits7signing7testingNtB7_12MockVerifierNtB9_8Verifier12verify_entry0Bd_
FN:185,_RNCNvXs1_NtNtNtCsiWUamAnYf7P_15loam_spine_core6traits7signing7testingNtB7_12MockVerifierNtB9_8Verifier6verify0Bd_
FN:142,_RNCNvXs_NtNtNtCsiWUamAnYf7P_15loam_spine_core6traits7signing7testingNtB6_10MockSignerNtB8_6Signer4sign0Bc_
FN:277,_RNvNtNtNtCsiWUamAnYf7P_15loam_spine_core6traits7signing5testss_20mock_verifier_strict
FN:334,_RNvNtNtNtCsiWUamAnYf7P_15loam_spine_core6traits7signing5testss_21mock_verifier_default
FN:233,_RNvNtNtNtCsiWUamAnYf7P_15loam_spine_core6traits7signing5testss_22mock_signer_signs_data
FN:342,_RNvNtNtNtCsiWUamAnYf7P_15loam_spine_core6traits7signing5testss_23mock_signer_debug_clone
FN:261,_RNvNtNtNtCsiWUamAnYf7P_15loam_spine_core6traits7signing5testss_24mock_verifier_permissive
FN:355,_RNvNtNtNtCsiWUamAnYf7P_15loam_spine_core6traits7signing5testss_25mock_verifier_debug_clone
FN:314,_RNvNtNtNtCsiWUamAnYf7P_15loam_spine_core6traits7signing5testss_26mock_verifier_entry_strict
FN:208,_RNvNtNtNtCsiWUamAnYf7P_15loam_spine_core6traits7signing5testss_28signature_verification_valid
FN:294,_RNvNtNtNtCsiWUamAnYf7P_15loam_spine_core6traits7signing5testss_30mock_verifier_entry_permissive
FN:215,_RNvNtNtNtCsiWUamAnYf7P_15loam_spine_core6traits7signing5testss_30signature_verification_invalid
FN:222,_RNvNtNtNtCsiWUamAnYf7P_15loam_spine_core6traits7signing5testss_34signature_verification_debug_clone
FN:53,_RINvMNtNtCsiWUamAnYf7P_15loam_spine_core6traits7signingNtB3_21SignatureVerification7invalidReEB7_
FNDA:0,_RINvMNtNtCskrSqHInbZEk_15loam_spine_core6traits7signingNtB3_21SignatureVerification7invalidpEB7_
FNDA:0,_RNCNvXs1_NtNtNtCskrSqHInbZEk_15loam_spine_core6traits7signing7testingNtB7_12MockVerifierNtB9_8Verifier12verify_entry0Bd_
FNDA:0,_RNCNvXs1_NtNtNtCskrSqHInbZEk_15loam_spine_core6traits7signing7testingNtB7_12MockVerifierNtB9_8Verifier6verify0Bd_
FNDA:0,_RNCNvXs_NtNtNtCskrSqHInbZEk_15loam_spine_core6traits7signing7testingNtB6_10MockSignerNtB8_6Signer4sign0Bc_
FNDA:0,_RINvMNtNtCskrSqHInbZEk_15loam_spine_core6traits7signingNtB3_21SignatureVerification7invalidNtNtCs6bBekJvxEMJ_5alloc6string6StringECsfPdauiQYI6e_22cli_signer_integration
FNDA:0,_RNvMNtNtCskrSqHInbZEk_15loam_spine_core6traits7signingNtB2_21SignatureVerification5valid
FNDA:6,_RNvMNtNtCsiWUamAnYf7P_15loam_spine_core6traits7signingNtB2_21SignatureVerification5valid
FNDA:10,_RNvMNtNtNtCsiWUamAnYf7P_15loam_spine_core6traits7signing7testingNtB2_10MockSigner3new
FNDA:8,_RNvMs0_NtNtNtCsiWUamAnYf7P_15loam_spine_core6traits7signing7testingNtB5_12MockVerifier10permissive
FNDA:3,_RNvMs0_NtNtNtCsiWUamAnYf7P_15loam_spine_core6traits7signing7testingNtB5_12MockVerifier6strict
FNDA:3,_RNvXs1_NtNtNtCsiWUamAnYf7P_15loam_spine_core6traits7signing7testingNtB5_12MockVerifierNtB7_8Verifier12verify_entry
FNDA:4,_RNvXs1_NtNtNtCsiWUamAnYf7P_15loam_spine_core6traits7signing7testingNtB5_12MockVerifierNtB7_8Verifier6verify
FNDA:4,_RNvXs_NtNtNtCsiWUamAnYf7P_15loam_spine_core6traits7signing7testingNtB4_10MockSignerNtB6_6Signer3did
FNDA:4,_RNvXs_NtNtNtCsiWUamAnYf7P_15loam_spine_core6traits7signing7testingNtB4_10MockSignerNtB6_6Signer4sign
FNDA:1,_RNCNvNtNtNtCsiWUamAnYf7P_15loam_spine_core6traits7signing5testss_20mock_verifier_strict0B9_
FNDA:1,_RNCNvNtNtNtCsiWUamAnYf7P_15loam_spine_core6traits7signing5testss_22mock_signer_signs_data0B9_
FNDA:1,_RNCNvNtNtNtCsiWUamAnYf7P_15loam_spine_core6traits7signing5testss_24mock_verifier_permissive0B9_
FNDA:1,_RNCNvNtNtNtCsiWUamAnYf7P_15loam_spine_core6traits7signing5testss_26mock_verifier_entry_strict0B9_
FNDA:1,_RNCNvNtNtNtCsiWUamAnYf7P_15loam_spine_core6traits7signing5testss_30mock_verifier_entry_permissive0B9_
FNDA:3,_RNCNvXs1_NtNtNtCsiWUamAnYf7P_15loam_spine_core6traits7signing7testingNtB7_12MockVerifierNtB9_8Verifier12verify_entry0Bd_
FNDA:4,_RNCNvXs1_NtNtNtCsiWUamAnYf7P_15loam_spine_core6traits7signing7testingNtB7_12MockVerifierNtB9_8Verifier6verify0Bd_
FNDA:4,_RNCNvXs_NtNtNtCsiWUamAnYf7P_15loam_spine_core6traits7signing7testingNtB6_10MockSignerNtB8_6Signer4sign0Bc_
FNDA:1,_RNvNtNtNtCsiWUamAnYf7P_15loam_spine_core6traits7signing5testss_20mock_verifier_strict
FNDA:1,_RNvNtNtNtCsiWUamAnYf7P_15loam_spine_core6traits7signing5testss_21mock_verifier_default
FNDA:1,_RNvNtNtNtCsiWUamAnYf7P_15loam_spine_core6traits7signing5testss_22mock_signer_signs_data
FNDA:1,_RNvNtNtNtCsiWUamAnYf7P_15loam_spine_core6traits7signing5testss_23mock_signer_debug_clone
FNDA:1,_RNvNtNtNtCsiWUamAnYf7P_15loam_spine_core6traits7signing5testss_24mock_verifier_permissive
FNDA:1,_RNvNtNtNtCsiWUamAnYf7P_15loam_spine_core6traits7signing5testss_25mock_verifier_debug_clone
FNDA:1,_RNvNtNtNtCsiWUamAnYf7P_15loam_spine_core6traits7signing5testss_26mock_verifier_entry_strict
FNDA:1,_RNvNtNtNtCsiWUamAnYf7P_15loam_spine_core6traits7signing5testss_28signature_verification_valid
FNDA:1,_RNvNtNtNtCsiWUamAnYf7P_15loam_spine_core6traits7signing5testss_30mock_verifier_entry_permissive
FNDA:1,_RNvNtNtNtCsiWUamAnYf7P_15loam_spine_core6traits7signing5testss_30signature_verification_invalid
FNDA:1,_RNvNtNtNtCsiWUamAnYf7P_15loam_spine_core6traits7signing5testss_34signature_verification_debug_clone
FNDA:4,_RINvMNtNtCsiWUamAnYf7P_15loam_spine_core6traits7signingNtB3_21SignatureVerification7invalidReEB7_
FNF:28
FNH:28
DA:43,6
DA:44,6
DA:45,6
DA:46,6
DA:47,6
DA:48,6
DA:49,6
DA:53,4
DA:54,4
DA:55,4
DA:56,4
DA:57,4
DA:58,4
DA:59,4
DA:136,10
DA:137,10
DA:138,10
DA:142,4
DA:143,4
DA:144,4
DA:145,4
DA:146,4
DA:148,4
DA:149,4
DA:150,4
DA:166,8
DA:167,8
DA:168,8
DA:172,3
DA:173,3
DA:174,3
DA:175,3
DA:176,3
DA:180,4
DA:181,4
DA:182,4
DA:183,4
DA:184,4
DA:185,4
DA:186,4
DA:187,2
DA:189,2
DA:191,4
DA:193,3
DA:194,3
DA:195,2
DA:197,1
DA:199,3
DA:208,1
DA:209,1
DA:210,1
DA:211,1
DA:212,1
DA:215,1
DA:216,1
DA:217,1
DA:218,1
DA:219,1
DA:222,1
DA:223,1
DA:224,1
DA:225,1
DA:228,1
DA:229,1
DA:230,1
DA:233,1
DA:234,1
DA:235,1
DA:236,1
DA:237,1
DA:238,1
DA:239,1
DA:240,1
DA:241,1
DA:242,1
DA:243,1
DA:244,1
DA:245,1
DA:246,1
DA:247,1
DA:248,1
DA:249,1
DA:250,1
DA:251,1
DA:252,1
DA:253,1
DA:254,1
DA:255,1
DA:256,1
DA:257,1
DA:258,1
DA:261,1
DA:262,1
DA:263,1
DA:264,1
DA:265,1
DA:266,1
DA:267,1
DA:268,1
DA:269,1
DA:270,1
DA:271,1
DA:272,1
DA:273,1
DA:274,1
DA:277,1
DA:278,1
DA:279,1
DA:280,1
DA:281,1
DA:282,1
DA:283,1
DA:284,1
DA:285,1
DA:286,1
DA:287,1
DA:288,1
DA:289,1
DA:290,1
DA:291,1
DA:294,1
DA:295,1
DA:296,1
DA:297,1
DA:298,1
DA:299,1
DA:300,1
DA:301,1
DA:302,1
DA:303,1
DA:304,1
DA:305,1
DA:306,1
DA:307,1
DA:308,1
DA:309,1
DA:310,1
DA:311,1
DA:314,1
DA:315,1
DA:316,1
DA:317,1
DA:318,1
DA:319,1
DA:320,1
DA:321,1
DA:322,1
DA:323,1
DA:324,1
DA:325,1
DA:326,1
DA:327,1
DA:328,1
DA:329,1
DA:330,1
DA:331,1
DA:334,1
DA:337,1
DA:338,1
DA:339,1
DA:342,1
DA:345,1
DA:346,1
DA:347,1
DA:350,1
DA:351,1
DA:352,1
DA:355,1
DA:358,1
DA:359,1
DA:360,1
DA:363,1
DA:364,1
DA:365,1
BRF:0
BRH:0
LF:241
LH:241
end_of_record
SF:/path/to/ecoPrimals/phase2/loamSpine/crates/loam-spine-core/src/types.rs
FN:61,_RINvMNtCskrSqHInbZEk_15loam_spine_core5typesNtB3_3Did3newNtNtCs6bBekJvxEMJ_5alloc6string6StringECs30gg8f98xHa_15api_integration
FN:67,_RNvMNtCskrSqHInbZEk_15loam_spine_core5typesNtB2_3Did6as_str
FN:97,_RNvMs2_NtCskrSqHInbZEk_15loam_spine_core5typesNtB5_9Signature3new
FN:103,_RNvMs2_NtCskrSqHInbZEk_15loam_spine_core5typesNtB5_9Signature5empty
FN:115,_RNvMs2_NtCskrSqHInbZEk_15loam_spine_core5typesNtB5_9Signature8as_bytes
FN:109,_RNvMs2_NtCskrSqHInbZEk_15loam_spine_core5typesNtB5_9Signature8is_empty
FN:145,_RNvMs4_NtCskrSqHInbZEk_15loam_spine_core5typesNtB5_9Timestamp10from_nanos
FN:134,_RNvMs4_NtCskrSqHInbZEk_15loam_spine_core5typesNtB5_9Timestamp3now
FN:157,_RNvMs4_NtCskrSqHInbZEk_15loam_spine_core5typesNtB5_9Timestamp7as_secs
FN:151,_RNvMs4_NtCskrSqHInbZEk_15loam_spine_core5typesNtB5_9Timestamp8as_nanos
FN:188,_RNvMs7_NtCskrSqHInbZEk_15loam_spine_core5typesNtB5_10PayloadRef3new
FN:206,_RNvNtCskrSqHInbZEk_15loam_spine_core5types10hash_bytes
FN:212,_RNvNtCskrSqHInbZEk_15loam_spine_core5types17format_hash_short
FN:79,_RNvXs0_NtCskrSqHInbZEk_15loam_spine_core5typesNtB5_3DidINtNtCs9sjCchOt1K7_4core7convert4FromNtNtCs6bBekJvxEMJ_5alloc6string6StringE4from
FN:85,_RNvXs1_NtCskrSqHInbZEk_15loam_spine_core5typesNtB5_3DidINtNtCs9sjCchOt1K7_4core7convert4FromReE4from
FN:121,_RNvXs3_NtCskrSqHInbZEk_15loam_spine_core5typesNtB5_9SignatureNtNtCs9sjCchOt1K7_4core7default7Default7default
FN:163,_RNvXs5_NtCskrSqHInbZEk_15loam_spine_core5typesNtB5_9TimestampNtNtCs9sjCchOt1K7_4core7default7Default7default
FN:169,_RNvXs6_NtCskrSqHInbZEk_15loam_spine_core5typesNtB5_9TimestampNtNtCs9sjCchOt1K7_4core3fmt7Display3fmt
FN:264,_RNvXs9_NtCskrSqHInbZEk_15loam_spine_core5typesRShNtB5_14IntoByteBuffer16into_byte_buffer
FN:73,_RNvXs_NtCskrSqHInbZEk_15loam_spine_core5typesNtB4_3DidNtNtCs9sjCchOt1K7_4core3fmt7Display3fmt
FN:270,_RNvXsa_NtCskrSqHInbZEk_15loam_spine_core5typesReNtB5_14IntoByteBuffer16into_byte_buffer
FN:220,_RNvNtNtCskrSqHInbZEk_15loam_spine_core5types3hex6encode
FN:138,_RNCNvMs4_NtCskrSqHInbZEk_15loam_spine_core5typesNtB7_9Timestamp3now0B9_
FN:61,_RINvMNtCskrSqHInbZEk_15loam_spine_core5typesNtB3_3Did3newpEB5_
FN:198,_RINvMs7_NtCskrSqHInbZEk_15loam_spine_core5typesNtB6_10PayloadRef14with_mime_typepEB8_
FN:61,_RINvMNtCskrSqHInbZEk_15loam_spine_core5typesNtB3_3Did3newNtNtCs6bBekJvxEMJ_5alloc6string6StringECsd5Jd4nU1YRX_5chaos
FN:61,_RINvMNtCskrSqHInbZEk_15loam_spine_core5typesNtB3_3Did3newReECsd5Jd4nU1YRX_5chaos
FN:61,_RINvMNtCskrSqHInbZEk_15loam_spine_core5typesNtB3_3Did3newNtNtCs6bBekJvxEMJ_5alloc6string6StringECsfPdauiQYI6e_22cli_signer_integration
FN:61,_RINvMNtCskrSqHInbZEk_15loam_spine_core5typesNtB3_3Did3newReECslk0Lj0FVdsD_3e2e
FN:61,_RINvMNtCskrSqHInbZEk_15loam_spine_core5typesNtB3_3Did3newReECs4S1xE8DPCBn_14loam_spine_api
FN:258,_RNvXs8_NtCsiWUamAnYf7P_15loam_spine_core5typesINtNtCs6bBekJvxEMJ_5alloc3vec3VechENtB5_14IntoByteBuffer16into_byte_buffer
FN:79,_RNvXs0_NtCsiWUamAnYf7P_15loam_spine_core5typesNtB5_3DidINtNtCs9sjCchOt1K7_4core7convert4FromNtNtCs6bBekJvxEMJ_5alloc6string6StringE4from
FN:121,_RNvXs3_NtCsiWUamAnYf7P_15loam_spine_core5typesNtB5_9SignatureNtNtCs9sjCchOt1K7_4core7default7Default7default
FN:163,_RNvXs5_NtCsiWUamAnYf7P_15loam_spine_core5typesNtB5_9TimestampNtNtCs9sjCchOt1K7_4core7default7Default7default
FN:169,_RNvXs6_NtCsiWUamAnYf7P_15loam_spine_core5typesNtB5_9TimestampNtNtCs9sjCchOt1K7_4core3fmt7Display3fmt
FN:270,_RNvXsa_NtCsiWUamAnYf7P_15loam_spine_core5typesReNtB5_14IntoByteBuffer16into_byte_buffer
FN:280,_RNvNtNtCsiWUamAnYf7P_15loam_spine_core5types5testss_11did_display
FN:303,_RNvNtNtCsiWUamAnYf7P_15loam_spine_core5types5testss_13timestamp_now
FN:287,_RNvNtNtCsiWUamAnYf7P_15loam_spine_core5types5testss_15did_from_string
FN:293,_RNvNtNtCsiWUamAnYf7P_15loam_spine_core5types5testss_15signature_empty
FN:317,_RNvNtNtCsiWUamAnYf7P_15loam_spine_core5types5testss_16hash_bytes_works
FN:331,_RNvNtNtCsiWUamAnYf7P_15loam_spine_core5types5testss_19payload_ref_builder
FN:348,_RNvNtNtCsiWUamAnYf7P_15loam_spine_core5types5testss_20byte_buffer_from_vec
FN:310,_RNvNtNtCsiWUamAnYf7P_15loam_spine_core5types5testss_20timestamp_conversion
FN:355,_RNvNtNtCsiWUamAnYf7P_15loam_spine_core5types5testss_22byte_buffer_from_slice
FN:341,_RNvNtNtCsiWUamAnYf7P_15loam_spine_core5types5testss_23format_hash_short_works
FN:362,_RNvNtNtCsiWUamAnYf7P_15loam_spine_core5types5testss_27byte_buffer_zero_copy_slice
FN:61,_RINvMNtCsiWUamAnYf7P_15loam_spine_core5typesNtB3_3Did3newNtNtCs6bBekJvxEMJ_5alloc6string6StringEB5_
FN:61,_RINvMNtCsiWUamAnYf7P_15loam_spine_core5typesNtB3_3Did3newReEB5_
FN:198,_RINvMs7_NtCsiWUamAnYf7P_15loam_spine_core5typesNtB6_10PayloadRef14with_mime_typeReEB8_
FN:138,_RNCNvMs4_NtCsiWUamAnYf7P_15loam_spine_core5typesNtB7_9Timestamp3now0B9_
FN:220,_RNvNtNtCsiWUamAnYf7P_15loam_spine_core5types3hex6encode
FN:67,_RNvMNtCsiWUamAnYf7P_15loam_spine_core5typesNtB2_3Did6as_str
FN:97,_RNvMs2_NtCsiWUamAnYf7P_15loam_spine_core5typesNtB5_9Signature3new
FN:103,_RNvMs2_NtCsiWUamAnYf7P_15loam_spine_core5typesNtB5_9Signature5empty
FN:115,_RNvMs2_NtCsiWUamAnYf7P_15loam_spine_core5typesNtB5_9Signature8as_bytes
FN:109,_RNvMs2_NtCsiWUamAnYf7P_15loam_spine_core5typesNtB5_9Signature8is_empty
FN:145,_RNvMs4_NtCsiWUamAnYf7P_15loam_spine_core5typesNtB5_9Timestamp10from_nanos
FN:134,_RNvMs4_NtCsiWUamAnYf7P_15loam_spine_core5typesNtB5_9Timestamp3now
FN:157,_RNvMs4_NtCsiWUamAnYf7P_15loam_spine_core5typesNtB5_9Timestamp7as_secs
FN:151,_RNvMs4_NtCsiWUamAnYf7P_15loam_spine_core5typesNtB5_9Timestamp8as_nanos
FN:188,_RNvMs7_NtCsiWUamAnYf7P_15loam_spine_core5typesNtB5_10PayloadRef3new
FN:206,_RNvNtCsiWUamAnYf7P_15loam_spine_core5types10hash_bytes
FN:212,_RNvNtCsiWUamAnYf7P_15loam_spine_core5types17format_hash_short
FN:85,_RNvXs1_NtCsiWUamAnYf7P_15loam_spine_core5typesNtB5_3DidINtNtCs9sjCchOt1K7_4core7convert4FromReE4from
FN:264,_RNvXs9_NtCsiWUamAnYf7P_15loam_spine_core5typesRShNtB5_14IntoByteBuffer16into_byte_buffer
FN:73,_RNvXs_NtCsiWUamAnYf7P_15loam_spine_core5typesNtB4_3DidNtNtCs9sjCchOt1K7_4core3fmt7Display3fmt
FNDA:13,_RINvMNtCskrSqHInbZEk_15loam_spine_core5typesNtB3_3Did3newNtNtCs6bBekJvxEMJ_5alloc6string6StringECs30gg8f98xHa_15api_integration
FNDA:0,_RNvMNtCskrSqHInbZEk_15loam_spine_core5typesNtB2_3Did6as_str
FNDA:0,_RNvMs2_NtCskrSqHInbZEk_15loam_spine_core5typesNtB5_9Signature3new
FNDA:5199,_RNvMs2_NtCskrSqHInbZEk_15loam_spine_core5typesNtB5_9Signature5empty
FNDA:0,_RNvMs2_NtCskrSqHInbZEk_15loam_spine_core5typesNtB5_9Signature8as_bytes
FNDA:0,_RNvMs2_NtCskrSqHInbZEk_15loam_spine_core5typesNtB5_9Signature8is_empty
FNDA:0,_RNvMs4_NtCskrSqHInbZEk_15loam_spine_core5typesNtB5_9Timestamp10from_nanos
FNDA:14317,_RNvMs4_NtCskrSqHInbZEk_15loam_spine_core5typesNtB5_9Timestamp3now
FNDA:0,_RNvMs4_NtCskrSqHInbZEk_15loam_spine_core5typesNtB5_9Timestamp7as_secs
FNDA:0,_RNvMs4_NtCskrSqHInbZEk_15loam_spine_core5typesNtB5_9Timestamp8as_nanos
FNDA:0,_RNvMs7_NtCskrSqHInbZEk_15loam_spine_core5typesNtB5_10PayloadRef3new
FNDA:10403,_RNvNtCskrSqHInbZEk_15loam_spine_core5types10hash_bytes
FNDA:2,_RNvNtCskrSqHInbZEk_15loam_spine_core5types17format_hash_short
FNDA:0,_RNvXs0_NtCskrSqHInbZEk_15loam_spine_core5typesNtB5_3DidINtNtCs9sjCchOt1K7_4core7convert4FromNtNtCs6bBekJvxEMJ_5alloc6string6StringE4from
FNDA:0,_RNvXs1_NtCskrSqHInbZEk_15loam_spine_core5typesNtB5_3DidINtNtCs9sjCchOt1K7_4core7convert4FromReE4from
FNDA:0,_RNvXs3_NtCskrSqHInbZEk_15loam_spine_core5typesNtB5_9SignatureNtNtCs9sjCchOt1K7_4core7default7Default7default
FNDA:0,_RNvXs5_NtCskrSqHInbZEk_15loam_spine_core5typesNtB5_9TimestampNtNtCs9sjCchOt1K7_4core7default7Default7default
FNDA:0,_RNvXs6_NtCskrSqHInbZEk_15loam_spine_core5typesNtB5_9TimestampNtNtCs9sjCchOt1K7_4core3fmt7Display3fmt
FNDA:0,_RNvXs9_NtCskrSqHInbZEk_15loam_spine_core5typesRShNtB5_14IntoByteBuffer16into_byte_buffer
FNDA:0,_RNvXs_NtCskrSqHInbZEk_15loam_spine_core5typesNtB4_3DidNtNtCs9sjCchOt1K7_4core3fmt7Display3fmt
FNDA:0,_RNvXsa_NtCskrSqHInbZEk_15loam_spine_core5typesReNtB5_14IntoByteBuffer16into_byte_buffer
FNDA:2,_RNvNtNtCskrSqHInbZEk_15loam_spine_core5types3hex6encode
FNDA:14317,_RNCNvMs4_NtCskrSqHInbZEk_15loam_spine_core5typesNtB7_9Timestamp3now0B9_
FNDA:0,_RINvMNtCskrSqHInbZEk_15loam_spine_core5typesNtB3_3Did3newpEB5_
FNDA:0,_RINvMs7_NtCskrSqHInbZEk_15loam_spine_core5typesNtB6_10PayloadRef14with_mime_typepEB8_
FNDA:1450,_RINvMNtCskrSqHInbZEk_15loam_spine_core5typesNtB3_3Did3newNtNtCs6bBekJvxEMJ_5alloc6string6StringECsd5Jd4nU1YRX_5chaos
FNDA:25,_RINvMNtCskrSqHInbZEk_15loam_spine_core5typesNtB3_3Did3newReECsd5Jd4nU1YRX_5chaos
FNDA:0,_RINvMNtCskrSqHInbZEk_15loam_spine_core5typesNtB3_3Did3newNtNtCs6bBekJvxEMJ_5alloc6string6StringECsfPdauiQYI6e_22cli_signer_integration
FNDA:9,_RINvMNtCskrSqHInbZEk_15loam_spine_core5typesNtB3_3Did3newReECslk0Lj0FVdsD_3e2e
FNDA:22,_RINvMNtCskrSqHInbZEk_15loam_spine_core5typesNtB3_3Did3newReECs4S1xE8DPCBn_14loam_spine_api
FNDA:1,_RNvXs8_NtCsiWUamAnYf7P_15loam_spine_core5typesINtNtCs6bBekJvxEMJ_5alloc3vec3VechENtB5_14IntoByteBuffer16into_byte_buffer
FNDA:0,_RNvXs0_NtCsiWUamAnYf7P_15loam_spine_core5typesNtB5_3DidINtNtCs9sjCchOt1K7_4core7convert4FromNtNtCs6bBekJvxEMJ_5alloc6string6StringE4from
FNDA:0,_RNvXs3_NtCsiWUamAnYf7P_15loam_spine_core5typesNtB5_9SignatureNtNtCs9sjCchOt1K7_4core7default7Default7default
FNDA:0,_RNvXs5_NtCsiWUamAnYf7P_15loam_spine_core5typesNtB5_9TimestampNtNtCs9sjCchOt1K7_4core7default7Default7default
FNDA:0,_RNvXs6_NtCsiWUamAnYf7P_15loam_spine_core5typesNtB5_9TimestampNtNtCs9sjCchOt1K7_4core3fmt7Display3fmt
FNDA:0,_RNvXsa_NtCsiWUamAnYf7P_15loam_spine_core5typesReNtB5_14IntoByteBuffer16into_byte_buffer
FNDA:1,_RNvNtNtCsiWUamAnYf7P_15loam_spine_core5types5testss_11did_display
FNDA:1,_RNvNtNtCsiWUamAnYf7P_15loam_spine_core5types5testss_13timestamp_now
FNDA:1,_RNvNtNtCsiWUamAnYf7P_15loam_spine_core5types5testss_15did_from_string
FNDA:1,_RNvNtNtCsiWUamAnYf7P_15loam_spine_core5types5testss_15signature_empty
FNDA:1,_RNvNtNtCsiWUamAnYf7P_15loam_spine_core5types5testss_16hash_bytes_works
FNDA:1,_RNvNtNtCsiWUamAnYf7P_15loam_spine_core5types5testss_19payload_ref_builder
FNDA:1,_RNvNtNtCsiWUamAnYf7P_15loam_spine_core5types5testss_20byte_buffer_from_vec
FNDA:1,_RNvNtNtCsiWUamAnYf7P_15loam_spine_core5types5testss_20timestamp_conversion
FNDA:1,_RNvNtNtCsiWUamAnYf7P_15loam_spine_core5types5testss_22byte_buffer_from_slice
FNDA:1,_RNvNtNtCsiWUamAnYf7P_15loam_spine_core5types5testss_23format_hash_short_works
FNDA:1,_RNvNtNtCsiWUamAnYf7P_15loam_spine_core5types5testss_27byte_buffer_zero_copy_slice
FNDA:40,_RINvMNtCsiWUamAnYf7P_15loam_spine_core5typesNtB3_3Did3newNtNtCs6bBekJvxEMJ_5alloc6string6StringEB5_
FNDA:185,_RINvMNtCsiWUamAnYf7P_15loam_spine_core5typesNtB3_3Did3newReEB5_
FNDA:1,_RINvMs7_NtCsiWUamAnYf7P_15loam_spine_core5typesNtB6_10PayloadRef14with_mime_typeReEB8_
FNDA:1694,_RNCNvMs4_NtCsiWUamAnYf7P_15loam_spine_core5typesNtB7_9Timestamp3now0B9_
FNDA:1,_RNvNtNtCsiWUamAnYf7P_15loam_spine_core5types3hex6encode
FNDA:1,_RNvMNtCsiWUamAnYf7P_15loam_spine_core5typesNtB2_3Did6as_str
FNDA:13,_RNvMs2_NtCsiWUamAnYf7P_15loam_spine_core5typesNtB5_9Signature3new
FNDA:1325,_RNvMs2_NtCsiWUamAnYf7P_15loam_spine_core5typesNtB5_9Signature5empty
FNDA:1,_RNvMs2_NtCsiWUamAnYf7P_15loam_spine_core5typesNtB5_9Signature8as_bytes
FNDA:3,_RNvMs2_NtCsiWUamAnYf7P_15loam_spine_core5typesNtB5_9Signature8is_empty
FNDA:4,_RNvMs4_NtCsiWUamAnYf7P_15loam_spine_core5typesNtB5_9Timestamp10from_nanos
FNDA:1694,_RNvMs4_NtCsiWUamAnYf7P_15loam_spine_core5typesNtB5_9Timestamp3now
FNDA:2,_RNvMs4_NtCsiWUamAnYf7P_15loam_spine_core5typesNtB5_9Timestamp7as_secs
FNDA:7,_RNvMs4_NtCsiWUamAnYf7P_15loam_spine_core5typesNtB5_9Timestamp8as_nanos
FNDA:1,_RNvMs7_NtCsiWUamAnYf7P_15loam_spine_core5typesNtB5_10PayloadRef3new
FNDA:1551,_RNvNtCsiWUamAnYf7P_15loam_spine_core5types10hash_bytes
FNDA:1,_RNvNtCsiWUamAnYf7P_15loam_spine_core5types17format_hash_short
FNDA:1,_RNvXs1_NtCsiWUamAnYf7P_15loam_spine_core5typesNtB5_3DidINtNtCs9sjCchOt1K7_4core7convert4FromReE4from
FNDA:1,_RNvXs9_NtCsiWUamAnYf7P_15loam_spine_core5typesRShNtB5_14IntoByteBuffer16into_byte_buffer
FNDA:1,_RNvXs_NtCsiWUamAnYf7P_15loam_spine_core5typesNtB4_3DidNtNtCs9sjCchOt1K7_4core3fmt7Display3fmt
FNF:36
FNH:31
DA:61,1744
DA:62,1744
DA:63,1744
DA:67,1
DA:68,1
DA:69,1
DA:73,1
DA:74,1
DA:75,1
DA:79,0
DA:80,0
DA:81,0
DA:85,1
DA:86,1
DA:87,1
DA:97,13
DA:98,13
DA:99,13
DA:103,6524
DA:104,6524
DA:105,6524
DA:109,3
DA:110,3
DA:111,3
DA:115,1
DA:116,1
DA:117,1
DA:121,0
DA:122,0
DA:123,0
DA:134,16011
DA:135,16011
DA:136,16011
DA:137,16011
DA:138,16011
DA:139,16011
DA:140,16011
DA:141,16011
DA:145,4
DA:146,4
DA:147,4
DA:151,7
DA:152,7
DA:153,7
DA:157,2
DA:158,2
DA:159,2
DA:163,0
DA:164,0
DA:165,0
DA:169,0
DA:170,0
DA:171,0
DA:188,1
DA:189,1
DA:190,1
DA:191,1
DA:192,1
DA:193,1
DA:194,1
DA:198,1
DA:199,1
DA:200,1
DA:201,1
DA:206,11954
DA:207,11954
DA:208,11954
DA:212,3
DA:213,3
DA:214,3
DA:220,3
DA:221,3
DA:222,27
DA:223,24
DA:224,24
DA:225,24
DA:226,3
DA:227,3
DA:258,1
DA:259,1
DA:260,1
DA:264,1
DA:265,1
DA:266,1
DA:270,0
DA:271,0
DA:272,0
DA:280,1
DA:281,1
DA:282,1
DA:283,1
DA:284,1
DA:287,1
DA:288,1
DA:289,1
DA:290,1
DA:293,1
DA:294,1
DA:295,1
DA:297,1
DA:298,1
DA:299,1
DA:300,1
DA:303,1
DA:304,1
DA:305,1
DA:306,1
DA:307,1
DA:310,1
DA:311,1
DA:312,1
DA:313,1
DA:314,1
DA:317,1
DA:318,1
DA:319,1
DA:322,1
DA:323,1
DA:326,1
DA:327,1
DA:328,1
DA:331,1
DA:332,1
DA:333,1
DA:334,1
DA:335,1
DA:336,1
DA:337,1
DA:338,1
DA:341,1
DA:342,1
DA:343,1
DA:344,1
DA:345,1
DA:348,1
DA:349,1
DA:350,1
DA:351,1
DA:352,1
DA:355,1
DA:356,1
DA:357,1
DA:358,1
DA:359,1
DA:362,1
DA:363,1
DA:364,1
DA:365,1
DA:367,1
DA:368,1
DA:369,1
BRF:0
BRH:0
LF:152
LH:137
end_of_record